
NSCAM.elf:     file format elf32-littleriscv
NSCAM.elf
architecture: riscv:rv32, flags 0x00000112:
EXEC_P, HAS_SYMS, D_PAGED
start address 0x00000000

Program Header:
    LOAD off    0x00001000 vaddr 0x00000000 paddr 0x00000000 align 2**12
         filesz 0x00008dd4 memsz 0x00008dd4 flags r-x
    LOAD off    0x0000a000 vaddr 0x20000000 paddr 0x00008dd4 align 2**12
         filesz 0x00000068 memsz 0x0000064c flags rw-
    LOAD off    0x0000b000 vaddr 0x20020000 paddr 0x00008e3c align 2**12
         filesz 0x00001200 memsz 0x00001200 flags rw-
    LOAD off    0x0000c800 vaddr 0x20003800 paddr 0x20003800 align 2**12
         filesz 0x00000000 memsz 0x00000800 flags rw-

Sections:
Idx Name           Size      VMA       LMA       File off  Algn  Flags
  0 .init          00000004  00000000  00000000  00001000  2**1  CONTENTS, ALLOC, LOAD, READONLY, CODE
  1 .vector        000000bc  00000004  00000004  00001004  2**1  CONTENTS, ALLOC, LOAD, READONLY, CODE
  2 .text          00008d14  000000c0  000000c0  000010c0  2**2  CONTENTS, ALLOC, LOAD, READONLY, CODE
  3 .fini          00000000  00008dd4  00008dd4  0000c200  2**0  CONTENTS, ALLOC, LOAD, CODE
  4 .dalign        00000000  20000000  20000000  0000c200  2**0  CONTENTS
  5 .dlalign       00000000  00008dd4  00008dd4  0000c200  2**0  CONTENTS
  6 .data          00000068  20000000  00008dd4  0000a000  2**2  CONTENTS, ALLOC, LOAD, DATA
  7 .bss           000005e4  20000068  00008e3c  0000a068  2**2  ALLOC
  8 .DMADATA       00001200  20020000  00008e3c  0000b000  2**2  CONTENTS, ALLOC, LOAD, DATA
  9 .stack         00000800  20003800  20003800  0000c800  2**0  ALLOC
 10 .debug_info    00015af4  00000000  00000000  0000c200  2**0  CONTENTS, READONLY, DEBUGGING
 11 .debug_abbrev  0000310d  00000000  00000000  00021cf4  2**0  CONTENTS, READONLY, DEBUGGING
 12 .debug_loc     00009120  00000000  00000000  00024e01  2**0  CONTENTS, READONLY, DEBUGGING
 13 .debug_aranges 00000898  00000000  00000000  0002df28  2**3  CONTENTS, READONLY, DEBUGGING
 14 .debug_ranges  00001160  00000000  00000000  0002e7c0  2**3  CONTENTS, READONLY, DEBUGGING
 15 .debug_line    0001336c  00000000  00000000  0002f920  2**0  CONTENTS, READONLY, DEBUGGING
 16 .debug_str     00001da9  00000000  00000000  00042c8c  2**0  CONTENTS, READONLY, DEBUGGING
 17 .comment       00000033  00000000  00000000  00044a35  2**0  CONTENTS, READONLY
 18 .debug_frame   0000253c  00000000  00000000  00044a68  2**2  CONTENTS, READONLY, DEBUGGING
SYMBOL TABLE:
00000000 l    d  .init	00000000 .init
00000004 l    d  .vector	00000000 .vector
000000c0 l    d  .text	00000000 .text
00008dd4 l    d  .fini	00000000 .fini
20000000 l    d  .dalign	00000000 .dalign
00008dd4 l    d  .dlalign	00000000 .dlalign
20000000 l    d  .data	00000000 .data
20000068 l    d  .bss	00000000 .bss
20020000 l    d  .DMADATA	00000000 .DMADATA
20003800 l    d  .stack	00000000 .stack
00000000 l    d  .debug_info	00000000 .debug_info
00000000 l    d  .debug_abbrev	00000000 .debug_abbrev
00000000 l    d  .debug_loc	00000000 .debug_loc
00000000 l    d  .debug_aranges	00000000 .debug_aranges
00000000 l    d  .debug_ranges	00000000 .debug_ranges
00000000 l    d  .debug_line	00000000 .debug_line
00000000 l    d  .debug_str	00000000 .debug_str
00000000 l    d  .comment	00000000 .comment
00000000 l    d  .debug_frame	00000000 .debug_frame
00000000 l    df *ABS*	00000000 ./Startup/startup_CH56x.o
00000004 l       .vector	00000000 _vector_base
00000000 l    df *ABS*	00000000 Main.c
00000000 l    df *ABS*	00000000 nyaops.c
000077e4 l     O .text	00000260 nyaops_logo
00000000 l    df *ABS*	00000000 mt9m001.c
00007a44 l     O .text	00000800 __color_map
20000060 l     O .data	00000004 FMOS
00000000 l    df *ABS*	00000000 sccb.c
00000000 l    df *ABS*	00000000 sd.c
00001106 l     F .text	0000000e _sd_select.constprop.5
00001114 l     F .text	00000028 _sd_transfer.constprop.6
0000113c l     F .text	0000000e _sd_deselect.constprop.7
00001796 l     F .text	00000034 _sd_cid.part.2
00001796 l     F .text	00000034 _sd_csd.part.3
00000000 l    df *ABS*	00000000 CH56x_clk.c
00000000 l    df *ABS*	00000000 CH56x_gpio.c
00000000 l    df *ABS*	00000000 CH56x_spi.c
00000000 l    df *ABS*	00000000 CH56x_sys.c
20000080 l     O .bss	00000002 p_ms
20000082 l     O .bss	00000001 p_us
00000000 l    df *ABS*	00000000 CH56x_timer.c
00000000 l    df *ABS*	00000000 fonts.c
00000000 l    df *ABS*	00000000 lcd.c
00002044 l     F .text	00000034 _lcd_writeCommand.constprop.5
20000548 l     O .bss	00000100 _buf
00000000 l    df *ABS*	00000000 oled.c
00000000 l    df *ABS*	00000000 regscreen.c
00008acc l     O .text	0000006f regs
00000000 l    df *ABS*	00000000 diskio.c
00000000 l    df *ABS*	00000000 ff.c
00004114 l     F .text	0000001e ld_dword
00004132 l     F .text	0000001c clst2sect
0000414e l     F .text	00000042 get_ldnumber
00004190 l     F .text	0000004a validate
000041da l     F .text	00000026 ld_clust.isra.2
00004200 l     F .text	00000028 st_clust.isra.3
00004228 l     F .text	0000005c sync_window.part.5
00004284 l     F .text	0000004e move_window
000042d2 l     F .text	000000f8 check_fs
000043ca l     F .text	00000150 put_fat
0000451a l     F .text	000000e2 get_fat.isra.8
000045fc l     F .text	00000114 create_chain
00004710 l     F .text	00000098 remove_chain
000047a8 l     F .text	000002f6 mount_volume
00004a9e l     F .text	00000090 dir_sdi.constprop.14
00004b2e l     F .text	00000076 dir_clear
00004ba4 l     F .text	000000de dir_next
00004c82 l     F .text	0000020e follow_path
00004e90 l     F .text	00000086 dir_register
00004f16 l     F .text	000000e6 sync_fs
000055f6 l     F .text	00000068 putc_bfd
0000565e l     F .text	00000036 putc_flush
00008b3c l     O .text	00000080 ExCvt
20000084 l     O .bss	00000004 FatFs
20000088 l     O .bss	00000002 Fsid
00000000 l    df *ABS*	00000000 addsf3.c
00000000 l    df *ABS*	00000000 divsf3.c
00000000 l    df *ABS*	00000000 eqsf2.c
00000000 l    df *ABS*	00000000 gesf2.c
00000000 l    df *ABS*	00000000 lesf2.c
00000000 l    df *ABS*	00000000 mulsf3.c
00000000 l    df *ABS*	00000000 subsf3.c
00000000 l    df *ABS*	00000000 fixsfsi.c
00000000 l    df *ABS*	00000000 fixunssfsi.c
00000000 l    df *ABS*	00000000 floatsisf.c
00000000 l    df *ABS*	00000000 floatunsisf.c
00000000 l    df *ABS*	00000000 libgcc2.c
00000000 l    df *ABS*	00000000 malloc.c
00000000 l    df *ABS*	00000000 memcmp.c
00000000 l    df *ABS*	00000000 memcpy.c
00000000 l    df *ABS*	00000000 nano-mallocr.c
00000000 l    df *ABS*	00000000 nano-mallocr.c
00000000 l    df *ABS*	00000000 sbrkr.c
00000000 l    df *ABS*	00000000 strchr.c
00000000 l    df *ABS*	00000000 strlen.c
00000000 l    df *ABS*	00000000 vsprintf.c
00000000 l    df *ABS*	00000000 mlock.c
00000000 l    df *ABS*	00000000 nano-mallocr.c
00000000 l    df *ABS*	00000000 nano-vfprintf.c
00000000 l    df *ABS*	00000000 nano-vfprintf_i.c
00000000 l    df *ABS*	00000000 memchr.c
00000000 l    df *ABS*	00000000 memmove.c
00000000 l    df *ABS*	00000000 nano-mallocr.c
00000000 l    df *ABS*	00000000 sbrk.c
20000094 l     O .bss	00000004 heap_end.1518
00000000 l    df *ABS*	00000000 libgcc2.c
00000000 l    df *ABS*	00000000 impure.c
20000000 l     O .data	00000060 impure_data
00000000 l    df *ABS*	00000000 reent.c
000075c2 g     F .text	00000014 _malloc_usable_size_r
00000aa8  w      .text	00000000 GPIO_IRQHandler
00003840 g     F .text	0000003a __oled_start
000018dc g     F .text	0000007a _sd_read
00003d2c g     F .text	0000013a _oled_draw
00000ab8  w      .text	00000000 EMMC_IRQHandler
00002bce g     F .text	00000152 _lcd_scroll
00003684 g     F .text	0000004c _lcd_printfa
00000aae  w      .text	00000000 LINK_IRQHandler
00002494 g     F .text	00000074 _lcd_init
20000860 g       .data	00000000 __global_pointer$
00006dd0 g     F .text	00000014 vsprintf
00005786 g     F .text	000002fa f_printf
00003832 g     F .text	00000006 _oled_trans
00001f6e g     F .text	0000002a mDelayuS
00000a9e  w      .text	00000000 HardFault_Handler
2000007c g     O .bss	00000002 curr_ypos
20000070 g     O .bss	00000004 oled
000038b4 g     F .text	0000006a __oled_ack
2000006c g     O .bss	00000004 lcd
00006de6 g     F .text	00000002 __malloc_unlock
000019fe g     F .text	00000084 SDInit
00005dea g     F .text	000002b2 .hidden __divsf3
00000aa0  w      .text	00000000 SysTick_Handler
00007578 g     F .text	0000004a memmove
00000a9c  w      .text	00000000 NMI_Handler
00006822 g     F .text	00000062 .hidden __fixsfsi
000011d4 g     F .text	00000066 _sd_cmd
00000ac0  w      .text	00000000 UART1_IRQHandler
00001fe0 g     F .text	00000016 getFont
00000ab6  w      .text	00000000 USBHS_IRQHandler
20000648 g     O .bss	00000004 errno
20000068 g       .bss	00000000 _sbss
00000800 g       *ABS*	00000000 __stack_size
0000649a g     F .text	00000388 .hidden __subsf3
20000098 g     O .bss	00000230 fs
000036d0 g     F .text	00000162 LCDInit
00001956 g     F .text	000000a8 _sd_reads
00000ab4  w      .text	00000000 UART0_IRQHandler
0000114a g     F .text	0000004c _sd_blk_transfer
000029c0 g     F .text	00000138 _lcd_print
00006b26 g     F .text	000000b6 memcpy
00006f2e g     F .text	0000027a _svfprintf_r
00004086 g     F .text	00000022 disk_initialize
00006da4 g     F .text	0000002c _vsiprintf_r
00006ae4 g     F .text	0000000e malloc
00003838 g     F .text	00000004 _oled_color
00000aa2  w      .text	00000000 SWI_Handler
00000004 g       .init	00000000 _einit
0000617e g     F .text	0000008c .hidden __lesf2
0000407c g     F .text	0000000a disk_status
00001c90 g     F .text	00000114 GPIOB_ModeCfg
000010aa g     F .text	00000016 sccb_init
00000aca  w      .text	00000000 PMT_IRQHandler
000088a0 g     O .text	00000228 __FONTS_SMALL_
00000abe  w      .text	00000000 SPI1_IRQHandler
00006d4e g     F .text	0000002a _sbrk_r
00003a06 g     F .text	00000026 _oled_bright
00003e66 g     F .text	0000008e _oled_print
00000aa6  w      .text	00000000 TMR0_IRQHandler
000021b0 g     F .text	00000040 _lcd_writeData16s
00004110 g     F .text	00000004 disk_ioctl
00003a2c g     F .text	00000028 _oled_open
0000609c g     F .text	0000005c .hidden __nesf2
00001f98 g     F .text	0000002a mDelaymS
00000acc  w      .text	00000000 ECDC_IRQHandler
20000069 g     O .bss	00000001 SD_OK
00001da4 g     F .text	00000032 SPI0_MasterDefInit
00006de8 g     F .text	0000005a _realloc_r
00006dd0 g     F .text	00000014 vsiprintf
000075d6 g     F .text	00000020 _sbrk
00001e72 g     F .text	0000006a SPI1_DataMode
00000e32 g     F .text	00000024 sensor_get_buf
000010c0 g     F .text	00000036 sccb_write
000014b8 g     F .text	00000260 _sd_init
20020000 g       .DMADATA	00000000 _dmadata_start
00002af8 g     F .text	0000005a _lcd_printf
00000fca g     F .text	00000062 __sccb_ack
2000064c g       .bss	00000000 _ebss
000021f0 g     F .text	0000008e __spi1_blk_trans
0000255a g     F .text	00000028 _lcd_pixel
00001f4c g     F .text	00000022 Delay_Init
00003a54 g     F .text	00000028 _oled_close
00000e62 g     F .text	00000100 DVP_IRQHandler
00000a94 g     F .text	00000008 get_nyaops_logo
00000aac  w      .text	00000000 USBSS_IRQHandler
00000f96 g     F .text	00000034 __sccb_stop
000012ba g     F .text	000000d4 _sd_write
000060f8 g     F .text	00000086 .hidden __gtsf2
2000007e g     O .bss	00000002 row_count
000022e4 g     F .text	00000072 _lcd_flashData16
20000068 g     O .bss	00000001 DEBUG
000010f6 g     F .text	00000010 _sd_avail
20020000 g       .DMADATA	00000000 _dmadata_end
00003af2 g     F .text	00000054 _oled_clear
2000064c g       .bss	00000000 end
00000ac2  w      .text	00000000 UART2_IRQHandler
000023c2 g     F .text	00000032 _lcd_setPosition
00006e42 g     F .text	000000ec __ssputs_r
00000f62 g     F .text	00000034 __sccb_start
00002078 g     F .text	0000000c _lcd_dispControl
0000180e g     F .text	0000008a _sd_size
00003ab6 g     F .text	0000003c _oled_setPosition
00003cc0 g     F .text	0000006c _oled_flash
00001196 g     F .text	0000003e _sd_wait_ack_
00001898 g     F .text	00000044 _sd_cid
00003f4e g     F .text	00000074 _oled_printfc
00006a6e g     F .text	00000076 .hidden __clzsi2
0000755e g     F .text	0000001a memchr
00006bdc g     F .text	000000a4 _free_r
00001f00 g     F .text	0000004c SPI1_MasterTrans
000020fe g     F .text	00000038 _lcd_writeData
000039aa g     F .text	00000024 iic_init
00005762 g     F .text	00000024 f_close
000039ce g     F .text	00000038 _oled_writeCommand
00003b46 g     F .text	0000017a _oled_init
00000000 g       .init	00000000 _start
000068da g     F .text	000000c6 .hidden __floatsisf
00005264 g     F .text	000001aa f_read
0000227e g     F .text	00000066 __spi1_flash
0000609c g     F .text	0000005c .hidden __eqsf2
00002d20 g     F .text	00000206 _lcd_line
00002170 g     F .text	00000040 _lcd_writeData16
00000ab2  w      .text	00000000 TMR2_IRQHandler
000025b0 g     F .text	00000080 _lcd_bitmap
00002136 g     F .text	0000003a _lcd_writeDatas
20000000 g       .dalign	00000000 _data_vma
00002676 g     F .text	0000009a _lcd_bitmapc
00004074 g     F .text	00000008 getRegValues
00006b00 g     F .text	00000026 memcmp
000032f0 g     F .text	00000028 rgb_565
00003ef4 g     F .text	0000005a _oled_printf
00000b62 g     F .text	00000044 sensor_clock
00006de4 g     F .text	00000002 __malloc_lock
00000ce8 g     F .text	00000082 sensor_shutter
20020000 g     O .DMADATA	00000500 sensor_buf_0
000000c0 g     F .text	000000a8 memset
0000334c g     F .text	00000098 _lcd_bitmapt
00000168 g     F .text	0000092c main
20000078 g     O .bss	00000002 snap_count
00001718 g     F .text	0000007e _sd_receive_ncs_
00002710 g     F .text	00000102 _lcd_bitmaps
20020500 g     O .DMADATA	00000500 sensor_buf_1
00005694 g     F .text	000000ce f_sync
000014a4 g     F .text	00000014 spiInit
0000617e g     F .text	0000008c .hidden __ltsf2
00003a7c g     F .text	0000003a _oled_writeData
20020a00 g     O .DMADATA	00000800 sensor_lcd_map
00006c80 g     F .text	000000ce _malloc_r
00001ffa g     F .text	00000030 _lcd_reset
00004ffc g     F .text	00000050 f_mount
0000620a g     F .text	00000290 .hidden __mulsf3
0000387a g     F .text	0000003a __oled_stop
00001a82 g     F .text	000000fa SystemInit
000017ca g     F .text	00000044 _sd_csd
00002378 g     F .text	0000004a _lcd_writeReg32
00000d6a g     F .text	000000c8 sensor_gain
00008c98 g     O .text	00000100 .hidden __clz_tab
0000391e g     F .text	0000008c __oled_wr
00000000 g       .init	00000000 _sinit
00002582 g     F .text	0000002e _lcd_row
20000074 g     O .bss	00000004 sd
000060f8 g     F .text	00000086 .hidden __gesf2
00002508 g     F .text	00000052 _lcd_clear
00006da4 g     F .text	0000002c _vsprintf_r
200002c8 g     O .bss	00000280 lcd_row_buf
000082b0 g     O .text	000005f0 __FONTS_BIG_
00001edc g     F .text	00000024 SPI1_MasterSendByte
00000ac8  w      .text	00000000 ETH_IRQHandler
000071a8 g     F .text	0000010c _printf_common
20000064 g     O .data	00000004 _impure_ptr
000023f4 g     F .text	000000a0 _lcd_rotate
00006f2e g     F .text	0000027a _svfiprintf_r
0000123a g     F .text	0000003a _sd_wait_ready_
2000007a g     O .bss	00000001 snapshot
20004000 g       .stack	00000000 _eusrstack
00003318 g     F .text	0000001a _lcd_back_color
000033e4 g     F .text	000000b4 _lcd_bitmaptc
00002b52 g     F .text	0000007c _lcd_printfc
00001b7c g     F .text	00000114 GPIOA_ModeCfg
00003332 g     F .text	0000001a _lcd_fore_color
20000068 g       .data	00000000 _edata
0000282e g     F .text	00000192 _lcd_draw
00000aaa  w      .text	00000000 SPI0_IRQHandler
0000540e g     F .text	000001e8 f_write
00008dd4 g       .dlalign	00000000 _data_lma
0000383c g     F .text	00000004 _oled_font
0000504c g     F .text	00000218 f_open
000040dc g     F .text	00000034 disk_write
000069a0 g     F .text	000000ce .hidden __floatunsisf
0000202a g     F .text	0000001a _lcd_backLight
00003498 g     F .text	000001ec _lcd_printa_
0000102c g     F .text	0000007e __sccb_wr
00000aa4  w      .text	00000000 WDOG_IRQHandler
00000abc  w      .text	00000000 HSPI_IRQHandler
00000ace  w      .text	00000000 handle_reset
00001274 g     F .text	00000046 _sd_cmd_ncs_
00006884 g     F .text	00000056 .hidden __fixunssfsi
00000e56 g     F .text	0000000c sensor_req_buf
00006d92 g     F .text	00000012 strlen
000040a8 g     F .text	00000034 disk_read
000072b4 g     F .text	000002aa _printf_i
00001fc2 g     F .text	0000001e TMR1_PWMInit
00002084 g     F .text	0000007a __io_init
00000ac4  w      .text	00000000 UART3_IRQHandler
20000090 g     O .bss	00000004 __malloc_sbrk_start
00002f26 g     F .text	000002e6 _lcd_tri
00006d78 g     F .text	0000001a strchr
00002356 g     F .text	00000022 _lcd_writeReg8
00001e40 g     F .text	00000032 SPI1_MasterDefInit
2000008c g     O .bss	00000004 __malloc_free_list
00000ba6 g     F .text	00000142 sensor_init
0000320c g     F .text	000000e4 _lcd_rect
00000ab0  w      .text	00000000 TMR1_IRQHandler
00001ff6 g     F .text	00000004 _lcd_font
00000ac6  w      .text	00000000 SERDES_IRQHandler
0000138e g     F .text	00000116 _sd_writes
00001dd6 g     F .text	0000006a SPI0_DataMode
00005a80 g     F .text	0000036a .hidden __addsf3
00003fc2 g     F .text	000000b2 OLEDInit
00002630 g     F .text	00000046 _lcd_bitmapf
00002812 g     F .text	0000001c _lcd_bitmapsc
00006af2 g     F .text	0000000e free



Disassembly of section .init:

00000000 <_sinit>:
_start():
E:\Works\NSCAM\obj/../Startup/startup_CH56x.S:13

	.section	.init,"ax",@progbits
	.global	_start
	.align	1
_start:
	j	handle_reset
   0:	2cf0006f          	j	ace <handle_reset>

Disassembly of section .vector:

00000004 <_vector_base>:
	...
_vector_base():
E:\Works\NSCAM\obj/../Startup/startup_CH56x.S:21
    .align  1
_vector_base:
    .option norvc;
    .word   0
    .word   0
        j   NMI_Handler                 /* NMI Handler */
   c:	2910006f          	j	a9c <NMI_Handler>
E:\Works\NSCAM\obj/../Startup/startup_CH56x.S:22
        j   HardFault_Handler           /* Hard Fault Handler */
  10:	28f0006f          	j	a9e <HardFault_Handler>
	...
E:\Works\NSCAM\obj/../Startup/startup_CH56x.S:31
    .word   0
    .word   0
    .word   0
    .word   0
    .word   0
        j   SysTick_Handler            /* SysTick Handler */
  34:	26d0006f          	j	aa0 <SysTick_Handler>
  38:	0000                	unimp
  3a:	0000                	unimp
E:\Works\NSCAM\obj/../Startup/startup_CH56x.S:33
    .word   0
        j   SWI_Handler                 /* SWI Handler */
  3c:	2670006f          	j	aa2 <SWI_Handler>
  40:	0000                	unimp
  42:	0000                	unimp
E:\Works\NSCAM\obj/../Startup/startup_CH56x.S:36
    .word   0
    /* External Interrupts */
        j   WDOG_IRQHandler			   /* WDOG */
  44:	2610006f          	j	aa4 <WDOG_IRQHandler>
E:\Works\NSCAM\obj/../Startup/startup_CH56x.S:37
        j   TMR0_IRQHandler            /* TMR0 */
  48:	25f0006f          	j	aa6 <TMR0_IRQHandler>
E:\Works\NSCAM\obj/../Startup/startup_CH56x.S:38
        j   GPIO_IRQHandler            /* GPIO */
  4c:	25d0006f          	j	aa8 <GPIO_IRQHandler>
E:\Works\NSCAM\obj/../Startup/startup_CH56x.S:39
        j   SPI0_IRQHandler            /* SPI0 */
  50:	25b0006f          	j	aaa <SPI0_IRQHandler>
E:\Works\NSCAM\obj/../Startup/startup_CH56x.S:40
        j   USBSS_IRQHandler           /* USBSS */
  54:	2590006f          	j	aac <USBSS_IRQHandler>
E:\Works\NSCAM\obj/../Startup/startup_CH56x.S:41
        j   LINK_IRQHandler            /* LINK */
  58:	2570006f          	j	aae <LINK_IRQHandler>
E:\Works\NSCAM\obj/../Startup/startup_CH56x.S:42
        j   TMR1_IRQHandler            /* TMR1 */
  5c:	2550006f          	j	ab0 <TMR1_IRQHandler>
E:\Works\NSCAM\obj/../Startup/startup_CH56x.S:43
        j   TMR2_IRQHandler            /* TMR2 */
  60:	2530006f          	j	ab2 <TMR2_IRQHandler>
E:\Works\NSCAM\obj/../Startup/startup_CH56x.S:44
        j   UART0_IRQHandler           /* UART0 */
  64:	2510006f          	j	ab4 <UART0_IRQHandler>
E:\Works\NSCAM\obj/../Startup/startup_CH56x.S:45
        j   USBHS_IRQHandler           /* USBHS */
  68:	24f0006f          	j	ab6 <USBHS_IRQHandler>
E:\Works\NSCAM\obj/../Startup/startup_CH56x.S:46
        j   EMMC_IRQHandler            /* EMMC */
  6c:	24d0006f          	j	ab8 <EMMC_IRQHandler>
E:\Works\NSCAM\obj/../Startup/startup_CH56x.S:47
        j   DVP_IRQHandler             /* DVP */
  70:	5f30006f          	j	e62 <DVP_IRQHandler>
E:\Works\NSCAM\obj/../Startup/startup_CH56x.S:48
        j   HSPI_IRQHandler            /* HSPI */
  74:	2490006f          	j	abc <HSPI_IRQHandler>
E:\Works\NSCAM\obj/../Startup/startup_CH56x.S:49
        j   SPI1_IRQHandler            /* SPI1 */
  78:	2470006f          	j	abe <SPI1_IRQHandler>
E:\Works\NSCAM\obj/../Startup/startup_CH56x.S:50
        j   UART1_IRQHandler           /* UART1 */
  7c:	2450006f          	j	ac0 <UART1_IRQHandler>
E:\Works\NSCAM\obj/../Startup/startup_CH56x.S:51
        j   UART2_IRQHandler           /* UART2 */
  80:	2430006f          	j	ac2 <UART2_IRQHandler>
E:\Works\NSCAM\obj/../Startup/startup_CH56x.S:52
        j   UART3_IRQHandler           /* UART3 */
  84:	2410006f          	j	ac4 <UART3_IRQHandler>
E:\Works\NSCAM\obj/../Startup/startup_CH56x.S:53
        j   SERDES_IRQHandler          /* SERDES */
  88:	23f0006f          	j	ac6 <SERDES_IRQHandler>
E:\Works\NSCAM\obj/../Startup/startup_CH56x.S:54
        j   ETH_IRQHandler             /* ETH */
  8c:	23d0006f          	j	ac8 <ETH_IRQHandler>
E:\Works\NSCAM\obj/../Startup/startup_CH56x.S:55
        j   PMT_IRQHandler             /* PMT */
  90:	23b0006f          	j	aca <PMT_IRQHandler>
E:\Works\NSCAM\obj/../Startup/startup_CH56x.S:56
        j   ECDC_IRQHandler            /* ECDC */
  94:	2390006f          	j	acc <ECDC_IRQHandler>
	...

Disassembly of section .text:

000000c0 <memset>:
memset():
      c0:	433d                	li	t1,15
      c2:	872a                	mv	a4,a0
      c4:	02c37363          	bgeu	t1,a2,ea <memset+0x2a>
      c8:	00f77793          	andi	a5,a4,15
      cc:	efbd                	bnez	a5,14a <memset+0x8a>
      ce:	e5ad                	bnez	a1,138 <memset+0x78>
      d0:	ff067693          	andi	a3,a2,-16
      d4:	8a3d                	andi	a2,a2,15
      d6:	96ba                	add	a3,a3,a4
      d8:	c30c                	sw	a1,0(a4)
      da:	c34c                	sw	a1,4(a4)
      dc:	c70c                	sw	a1,8(a4)
      de:	c74c                	sw	a1,12(a4)
      e0:	0741                	addi	a4,a4,16
      e2:	fed76be3          	bltu	a4,a3,d8 <memset+0x18>
      e6:	e211                	bnez	a2,ea <memset+0x2a>
      e8:	8082                	ret
      ea:	40c306b3          	sub	a3,t1,a2
      ee:	068a                	slli	a3,a3,0x2
      f0:	00000297          	auipc	t0,0x0
      f4:	9696                	add	a3,a3,t0
      f6:	00a68067          	jr	10(a3)
      fa:	00b70723          	sb	a1,14(a4)
      fe:	00b706a3          	sb	a1,13(a4)
     102:	00b70623          	sb	a1,12(a4)
     106:	00b705a3          	sb	a1,11(a4)
     10a:	00b70523          	sb	a1,10(a4)
     10e:	00b704a3          	sb	a1,9(a4)
     112:	00b70423          	sb	a1,8(a4)
     116:	00b703a3          	sb	a1,7(a4)
     11a:	00b70323          	sb	a1,6(a4)
     11e:	00b702a3          	sb	a1,5(a4)
     122:	00b70223          	sb	a1,4(a4)
     126:	00b701a3          	sb	a1,3(a4)
     12a:	00b70123          	sb	a1,2(a4)
     12e:	00b700a3          	sb	a1,1(a4)
     132:	00b70023          	sb	a1,0(a4)
     136:	8082                	ret
     138:	0ff5f593          	andi	a1,a1,255
     13c:	00859693          	slli	a3,a1,0x8
     140:	8dd5                	or	a1,a1,a3
     142:	01059693          	slli	a3,a1,0x10
     146:	8dd5                	or	a1,a1,a3
     148:	b761                	j	d0 <memset+0x10>
     14a:	00279693          	slli	a3,a5,0x2
     14e:	00000297          	auipc	t0,0x0
     152:	9696                	add	a3,a3,t0
     154:	8286                	mv	t0,ra
     156:	fa8680e7          	jalr	-88(a3)
     15a:	8096                	mv	ra,t0
     15c:	17c1                	addi	a5,a5,-16
     15e:	8f1d                	sub	a4,a4,a5
     160:	963e                	add	a2,a2,a5
     162:	f8c374e3          	bgeu	t1,a2,ea <memset+0x2a>
     166:	b7a5                	j	ce <memset+0xe>

00000168 <main>:
main():
E:\Works\NSCAM\obj/../User/Main.c:38
* Description    : Main program.
* Input          : None
* Return         : None
*******************************************************************************/
int main()
{
     168:	7155                	addi	sp,sp,-208
     16a:	c786                	sw	ra,204(sp)
E:\Works\NSCAM\obj/../User/Main.c:40
    // Close LCD BLK
    GPIOA_ModeCfg(GPIO_Pin_9, GPIO_Slowascent_PP_8mA);
     16c:	4595                	li	a1,5
E:\Works\NSCAM\obj/../User/Main.c:38
{
     16e:	c5a2                	sw	s0,200(sp)
     170:	c3a6                	sw	s1,196(sp)
     172:	c1ca                	sw	s2,192(sp)
     174:	df4e                	sw	s3,188(sp)
     176:	dd52                	sw	s4,184(sp)
     178:	db56                	sw	s5,180(sp)
     17a:	d95a                	sw	s6,176(sp)
     17c:	d75e                	sw	s7,172(sp)
     17e:	d562                	sw	s8,168(sp)
     180:	d366                	sw	s9,164(sp)
     182:	d16a                	sw	s10,160(sp)
     184:	cf6e                	sw	s11,156(sp)
E:\Works\NSCAM\obj/../User/Main.c:40
    GPIOA_ModeCfg(GPIO_Pin_9, GPIO_Slowascent_PP_8mA);
     186:	20000513          	li	a0,512
E:\Works\NSCAM\obj/../User/Main.c:38
{
     18a:	81010113          	addi	sp,sp,-2032
E:\Works\NSCAM\obj/../User/Main.c:41
    GPIOA_ResetBits(GPIO_Pin_9);
     18e:	40001437          	lui	s0,0x40001
E:\Works\NSCAM\obj/../User/Main.c:40
    GPIOA_ModeCfg(GPIO_Pin_9, GPIO_Slowascent_PP_8mA);
     192:	1eb010ef          	jal	ra,1b7c <GPIOA_ModeCfg>
E:\Works\NSCAM\obj/../User/Main.c:41
    GPIOA_ResetBits(GPIO_Pin_9);
     196:	447c                	lw	a5,76(s0)
E:\Works\NSCAM\obj/../User/Main.c:43

	SystemInit(FREQ_SYS);
     198:	05b8e4b7          	lui	s1,0x5b8e
     19c:	80048513          	addi	a0,s1,-2048 # 5b8d800 <_data_lma+0x5b84a2c>
E:\Works\NSCAM\obj/../User/Main.c:41
    GPIOA_ResetBits(GPIO_Pin_9);
     1a0:	2007e793          	ori	a5,a5,512
     1a4:	c47c                	sw	a5,76(s0)
E:\Works\NSCAM\obj/../User/Main.c:43
	SystemInit(FREQ_SYS);
     1a6:	0dd010ef          	jal	ra,1a82 <SystemInit>
E:\Works\NSCAM\obj/../User/Main.c:44
	Delay_Init(FREQ_SYS);
     1aa:	80048513          	addi	a0,s1,-2048
     1ae:	59f010ef          	jal	ra,1f4c <Delay_Init>
E:\Works\NSCAM\obj/../User/Main.c:45
	mDelaymS(500);
     1b2:	1f400513          	li	a0,500
     1b6:	5e3010ef          	jal	ra,1f98 <mDelaymS>
E:\Works\NSCAM\obj/../User/Main.c:52
	/*
	 * LED PB9
	 * RX0 PB5
	 * TX0 PB6
	 * */
	GPIOB_ResetBits(GPIO_Pin_9);
     1ba:	547c                	lw	a5,108(s0)
E:\Works\NSCAM\obj/../User/Main.c:53
	GPIOB_ModeCfg(GPIO_Pin_9, GPIO_Slowascent_PP_8mA);
     1bc:	4595                	li	a1,5
     1be:	20000513          	li	a0,512
E:\Works\NSCAM\obj/../User/Main.c:52
	GPIOB_ResetBits(GPIO_Pin_9);
     1c2:	2007e793          	ori	a5,a5,512
     1c6:	d47c                	sw	a5,108(s0)
E:\Works\NSCAM\obj/../User/Main.c:53
	GPIOB_ModeCfg(GPIO_Pin_9, GPIO_Slowascent_PP_8mA);
     1c8:	2c9010ef          	jal	ra,1c90 <GPIOB_ModeCfg>
E:\Works\NSCAM\obj/../User/Main.c:54
	GPIOB_ResetBits(GPIO_Pin_5);
     1cc:	547c                	lw	a5,108(s0)
E:\Works\NSCAM\obj/../User/Main.c:55
	GPIOB_ModeCfg(GPIO_Pin_5, GPIO_Slowascent_PP_8mA);
     1ce:	4595                	li	a1,5
     1d0:	02000513          	li	a0,32
E:\Works\NSCAM\obj/../User/Main.c:54
	GPIOB_ResetBits(GPIO_Pin_5);
     1d4:	0207e793          	ori	a5,a5,32
     1d8:	d47c                	sw	a5,108(s0)
E:\Works\NSCAM\obj/../User/Main.c:55
	GPIOB_ModeCfg(GPIO_Pin_5, GPIO_Slowascent_PP_8mA);
     1da:	2b7010ef          	jal	ra,1c90 <GPIOB_ModeCfg>
E:\Works\NSCAM\obj/../User/Main.c:56
	GPIOB_ResetBits(GPIO_Pin_6);
     1de:	547c                	lw	a5,108(s0)
E:\Works\NSCAM\obj/../User/Main.c:57
	GPIOB_ModeCfg(GPIO_Pin_6, GPIO_Slowascent_PP_8mA);
     1e0:	4595                	li	a1,5
     1e2:	04000513          	li	a0,64
E:\Works\NSCAM\obj/../User/Main.c:56
	GPIOB_ResetBits(GPIO_Pin_6);
     1e6:	0407e793          	ori	a5,a5,64
     1ea:	d47c                	sw	a5,108(s0)
E:\Works\NSCAM\obj/../User/Main.c:57
	GPIOB_ModeCfg(GPIO_Pin_6, GPIO_Slowascent_PP_8mA);
     1ec:	2a5010ef          	jal	ra,1c90 <GPIOB_ModeCfg>
E:\Works\NSCAM\obj/../User/Main.c:63

	/*
	 * CHG PA16
	 * STD PB7
	 * */
	GPIOA_ModeCfg(GPIO_Pin_16, GPIO_ModeIN_Floating);
     1f0:	4581                	li	a1,0
     1f2:	6541                	lui	a0,0x10
     1f4:	189010ef          	jal	ra,1b7c <GPIOA_ModeCfg>
E:\Works\NSCAM\obj/../User/Main.c:64
	GPIOB_ModeCfg(GPIO_Pin_7, GPIO_ModeIN_Floating);
     1f8:	4581                	li	a1,0
     1fa:	08000513          	li	a0,128
     1fe:	293010ef          	jal	ra,1c90 <GPIOB_ModeCfg>
E:\Works\NSCAM\obj/../User/Main.c:76
	 * KLF PB2
	 * KDN PA20
	 * KRT PB3
	 * KPU PB4
	 * */
	GPIOB_ModeCfg(GPIO_Pin_0, GPIO_ModeIN_Floating);
     202:	4581                	li	a1,0
     204:	4505                	li	a0,1
     206:	28b010ef          	jal	ra,1c90 <GPIOB_ModeCfg>
E:\Works\NSCAM\obj/../User/Main.c:77
	GPIOA_ModeCfg(GPIO_Pin_23, GPIO_ModeIN_Floating);
     20a:	4581                	li	a1,0
     20c:	00800537          	lui	a0,0x800
     210:	16d010ef          	jal	ra,1b7c <GPIOA_ModeCfg>
E:\Works\NSCAM\obj/../User/Main.c:78
	GPIOA_ModeCfg(GPIO_Pin_17, GPIO_ModeIN_Floating);
     214:	4581                	li	a1,0
     216:	00020537          	lui	a0,0x20
     21a:	163010ef          	jal	ra,1b7c <GPIOA_ModeCfg>
E:\Works\NSCAM\obj/../User/Main.c:79
	GPIOB_ModeCfg(GPIO_Pin_1, GPIO_ModeIN_Floating);
     21e:	4581                	li	a1,0
     220:	4509                	li	a0,2
     222:	26f010ef          	jal	ra,1c90 <GPIOB_ModeCfg>
E:\Works\NSCAM\obj/../User/Main.c:80
	GPIOB_ModeCfg(GPIO_Pin_2, GPIO_ModeIN_Floating);
     226:	4581                	li	a1,0
     228:	4511                	li	a0,4
     22a:	267010ef          	jal	ra,1c90 <GPIOB_ModeCfg>
E:\Works\NSCAM\obj/../User/Main.c:81
	GPIOA_ModeCfg(GPIO_Pin_20, GPIO_ModeIN_Floating);
     22e:	4581                	li	a1,0
     230:	00100537          	lui	a0,0x100
     234:	149010ef          	jal	ra,1b7c <GPIOA_ModeCfg>
E:\Works\NSCAM\obj/../User/Main.c:82
	GPIOB_ModeCfg(GPIO_Pin_3, GPIO_ModeIN_Floating);
     238:	4581                	li	a1,0
     23a:	4521                	li	a0,8
     23c:	255010ef          	jal	ra,1c90 <GPIOB_ModeCfg>
E:\Works\NSCAM\obj/../User/Main.c:83
	GPIOB_ModeCfg(GPIO_Pin_4, GPIO_ModeIN_Floating);
     240:	4581                	li	a1,0
     242:	4541                	li	a0,16
     244:	24d010ef          	jal	ra,1c90 <GPIOB_ModeCfg>
E:\Works\NSCAM\obj/../User/Main.c:88

	/*
     * TRIG PA19
     * */
	GPIOA_ResetBits(GPIO_Pin_19);
     248:	447c                	lw	a5,76(s0)
     24a:	00080737          	lui	a4,0x80
E:\Works\NSCAM\obj/../User/Main.c:89
    GPIOA_ModeCfg(GPIO_Pin_19, GPIO_Highspeed_PP_8mA);
     24e:	459d                	li	a1,7
E:\Works\NSCAM\obj/../User/Main.c:88
	GPIOA_ResetBits(GPIO_Pin_19);
     250:	8fd9                	or	a5,a5,a4
     252:	c47c                	sw	a5,76(s0)
E:\Works\NSCAM\obj/../User/Main.c:89
    GPIOA_ModeCfg(GPIO_Pin_19, GPIO_Highspeed_PP_8mA);
     254:	00080537          	lui	a0,0x80
     258:	125010ef          	jal	ra,1b7c <GPIOA_ModeCfg>
E:\Works\NSCAM\obj/../User/Main.c:94

    /*
     * STROBE PA18
     * */
    GPIOA_ModeCfg(GPIO_Pin_18, GPIO_ModeIN_Floating);
     25c:	4581                	li	a1,0
     25e:	00040537          	lui	a0,0x40
     262:	11b010ef          	jal	ra,1b7c <GPIOA_ModeCfg>
E:\Works\NSCAM\obj/../User/Main.c:96

	lcd = LCDInit();
     266:	46a030ef          	jal	ra,36d0 <LCDInit>
     26a:	80c18493          	addi	s1,gp,-2036 # 2000006c <lcd>
     26e:	c088                	sw	a0,0(s1)
E:\Works\NSCAM\obj/../User/Main.c:97
    lcd->init(lcd->p);
     270:	415c                	lw	a5,4(a0)
     272:	4108                	lw	a0,0(a0)
     274:	80c18413          	addi	s0,gp,-2036 # 2000006c <lcd>
     278:	9782                	jalr	a5
E:\Works\NSCAM\obj/../User/Main.c:98
    lcd->colorb(lcd->p, 0x000000); // 00BCD4
     27a:	409c                	lw	a5,0(s1)
     27c:	4581                	li	a1,0
     27e:	4bd8                	lw	a4,20(a5)
     280:	4388                	lw	a0,0(a5)
     282:	9702                	jalr	a4
E:\Works\NSCAM\obj/../User/Main.c:99
    lcd->colorf(lcd->p, 0xFFFFFF);
     284:	409c                	lw	a5,0(s1)
     286:	010005b7          	lui	a1,0x1000
     28a:	15fd                	addi	a1,a1,-1
     28c:	4f98                	lw	a4,24(a5)
     28e:	4388                	lw	a0,0(a5)
     290:	9702                	jalr	a4
E:\Works\NSCAM\obj/../User/Main.c:100
    lcd->clear(lcd->p);
     292:	409c                	lw	a5,0(s1)
     294:	5398                	lw	a4,32(a5)
     296:	4388                	lw	a0,0(a5)
     298:	9702                	jalr	a4
E:\Works\NSCAM\obj/../User/Main.c:101
    lcd->light(lcd->p, 1);
     29a:	409c                	lw	a5,0(s1)
     29c:	4585                	li	a1,1
     29e:	47d8                	lw	a4,12(a5)
     2a0:	4388                	lw	a0,0(a5)
E:\Works\NSCAM\obj/../User/Main.c:103

    oled = OLEDInit(OLED_SCREEN_SMALL);
     2a2:	81018913          	addi	s2,gp,-2032 # 20000070 <oled>
     2a6:	81018493          	addi	s1,gp,-2032 # 20000070 <oled>
E:\Works\NSCAM\obj/../User/Main.c:101
    lcd->light(lcd->p, 1);
     2aa:	9702                	jalr	a4
E:\Works\NSCAM\obj/../User/Main.c:103
    oled = OLEDInit(OLED_SCREEN_SMALL);
     2ac:	07800513          	li	a0,120
     2b0:	513030ef          	jal	ra,3fc2 <OLEDInit>
     2b4:	00a92023          	sw	a0,0(s2)
E:\Works\NSCAM\obj/../User/Main.c:104
    oled->init(oled->p);
     2b8:	495c                	lw	a5,20(a0)
     2ba:	4108                	lw	a0,0(a0)
     2bc:	9782                	jalr	a5
E:\Works\NSCAM\obj/../User/Main.c:105
    oled->clear(oled->p);
     2be:	00092783          	lw	a5,0(s2)
     2c2:	4b98                	lw	a4,16(a5)
     2c4:	4388                	lw	a0,0(a5)
     2c6:	9702                	jalr	a4
E:\Works\NSCAM\obj/../User/Main.c:106
    oled->font(oled->p, FontBig);
     2c8:	00092783          	lw	a5,0(s2)
     2cc:	4589                	li	a1,2
     2ce:	47d8                	lw	a4,12(a5)
     2d0:	4388                	lw	a0,0(a5)
     2d2:	9702                	jalr	a4
E:\Works\NSCAM\obj/../User/Main.c:107
    oled->printfc(oled->p, 1, "NSCAM-M2");
     2d4:	00092783          	lw	a5,0(s2)
     2d8:	00007637          	lui	a2,0x7
     2dc:	61060613          	addi	a2,a2,1552 # 7610 <_sbrk+0x3a>
     2e0:	5bd8                	lw	a4,52(a5)
     2e2:	4388                	lw	a0,0(a5)
     2e4:	4585                	li	a1,1
     2e6:	9702                	jalr	a4
E:\Works\NSCAM\obj/../User/Main.c:111

    int k;

    if (DEBUG) lcd->printfa(lcd->p, "\nNSCAM-M2, by NSDN\n\n");
     2e8:	8081c783          	lbu	a5,-2040(gp) # 20000068 <_edata>
     2ec:	80818913          	addi	s2,gp,-2040 # 20000068 <_edata>
     2f0:	6e078263          	beqz	a5,9d4 <__stack_size+0x1d4>
E:\Works\NSCAM\obj/../User/Main.c:111 (discriminator 1)
     2f4:	401c                	lw	a5,0(s0)
     2f6:	000075b7          	lui	a1,0x7
     2fa:	61c58593          	addi	a1,a1,1564 # 761c <_sbrk+0x46>
     2fe:	57f8                	lw	a4,108(a5)
     300:	4388                	lw	a0,0(a5)
     302:	9702                	jalr	a4
E:\Works\NSCAM\obj/../User/Main.c:113
    else lcd->bitmapsc(lcd->p, 160, 120, 152, 32, get_nyaops_logo());
    mDelaymS(1000);
     304:	3e800513          	li	a0,1000
     308:	491010ef          	jal	ra,1f98 <mDelaymS>
E:\Works\NSCAM\obj/../User/Main.c:115

    if (DEBUG) lcd->printfa(lcd->p, "sd init...\n");
     30c:	00094783          	lbu	a5,0(s2)
     310:	cb89                	beqz	a5,322 <main+0x1ba>
E:\Works\NSCAM\obj/../User/Main.c:115 (discriminator 1)
     312:	401c                	lw	a5,0(s0)
     314:	000075b7          	lui	a1,0x7
     318:	63458593          	addi	a1,a1,1588 # 7634 <_sbrk+0x5e>
     31c:	57f8                	lw	a4,108(a5)
     31e:	4388                	lw	a0,0(a5)
     320:	9702                	jalr	a4
E:\Works\NSCAM\obj/../User/Main.c:116
    sd = SDInit();
     322:	6dc010ef          	jal	ra,19fe <SDInit>
     326:	81418993          	addi	s3,gp,-2028 # 20000074 <sd>
E:\Works\NSCAM\obj/../User/Main.c:117
    uint8_t sds = sd->init(sd->p);
     32a:	415c                	lw	a5,4(a0)
E:\Works\NSCAM\obj/../User/Main.c:116
    sd = SDInit();
     32c:	00a9a023          	sw	a0,0(s3)
E:\Works\NSCAM\obj/../User/Main.c:117
    uint8_t sds = sd->init(sd->p);
     330:	4108                	lw	a0,0(a0)
     332:	80918a13          	addi	s4,gp,-2039 # 20000069 <SD_OK>
     336:	9782                	jalr	a5
E:\Works\NSCAM\obj/../User/Main.c:118
    if (sd->avail(sd->p)) {
     338:	0009a783          	lw	a5,0(s3)
E:\Works\NSCAM\obj/../User/Main.c:117
    uint8_t sds = sd->init(sd->p);
     33c:	8b2a                	mv	s6,a0
E:\Works\NSCAM\obj/../User/Main.c:118
    if (sd->avail(sd->p)) {
     33e:	4798                	lw	a4,8(a5)
     340:	4388                	lw	a0,0(a5)
     342:	9702                	jalr	a4
     344:	6a050a63          	beqz	a0,9f8 <__stack_size+0x1f8>
E:\Works\NSCAM\obj/../User/Main.c:119
        uint32_t siz = sd->size(sd->p);
     348:	0009a783          	lw	a5,0(s3)
     34c:	4f98                	lw	a4,24(a5)
     34e:	4388                	lw	a0,0(a5)
     350:	9702                	jalr	a4
E:\Works\NSCAM\obj/../User/Main.c:120
        if (DEBUG) lcd->printfa(lcd->p, "sd state: %02X, type:%d\n", sds, sd->p->type);
     352:	00094783          	lbu	a5,0(s2)
E:\Works\NSCAM\obj/../User/Main.c:119
        uint32_t siz = sd->size(sd->p);
     356:	8aaa                	mv	s5,a0
E:\Works\NSCAM\obj/../User/Main.c:120
        if (DEBUG) lcd->printfa(lcd->p, "sd state: %02X, type:%d\n", sds, sd->p->type);
     358:	cb9d                	beqz	a5,38e <main+0x226>
E:\Works\NSCAM\obj/../User/Main.c:120 (discriminator 1)
     35a:	0009a703          	lw	a4,0(s3)
     35e:	401c                	lw	a5,0(s0)
     360:	000075b7          	lui	a1,0x7
     364:	4314                	lw	a3,0(a4)
     366:	4388                	lw	a0,0(a5)
     368:	57f8                	lw	a4,108(a5)
     36a:	4294                	lw	a3,0(a3)
     36c:	865a                	mv	a2,s6
     36e:	64058593          	addi	a1,a1,1600 # 7640 <_sbrk+0x6a>
     372:	9702                	jalr	a4
E:\Works\NSCAM\obj/../User/Main.c:121 (discriminator 1)
        if (DEBUG) lcd->printfa(lcd->p, "size: %d MB\n", siz / 2048);
     374:	00094783          	lbu	a5,0(s2)
     378:	cb99                	beqz	a5,38e <main+0x226>
     37a:	401c                	lw	a5,0(s0)
     37c:	000075b7          	lui	a1,0x7
     380:	00bad613          	srli	a2,s5,0xb
     384:	57f8                	lw	a4,108(a5)
     386:	4388                	lw	a0,0(a5)
     388:	65c58593          	addi	a1,a1,1628 # 765c <_sbrk+0x86>
     38c:	9702                	jalr	a4
E:\Works\NSCAM\obj/../User/Main.c:122
        SD_OK = (sds == 0) && (siz != 0);
     38e:	4781                	li	a5,0
     390:	000b1463          	bnez	s6,398 <main+0x230>
E:\Works\NSCAM\obj/../User/Main.c:122 (discriminator 1)
     394:	015037b3          	snez	a5,s5
E:\Works\NSCAM\obj/../User/Main.c:122 (discriminator 6)
     398:	00fa0023          	sb	a5,0(s4)
E:\Works\NSCAM\obj/../User/Main.c:126
    } else {
        if (DEBUG) lcd->printfa(lcd->p, "where is my card?\n");
    }
    if (DEBUG) lcd->printfa(lcd->p, "\n");
     39c:	00094783          	lbu	a5,0(s2)
     3a0:	cb89                	beqz	a5,3b2 <main+0x24a>
E:\Works\NSCAM\obj/../User/Main.c:126 (discriminator 1)
     3a2:	401c                	lw	a5,0(s0)
     3a4:	000075b7          	lui	a1,0x7
     3a8:	6c058593          	addi	a1,a1,1728 # 76c0 <_sbrk+0xea>
     3ac:	57f8                	lw	a4,108(a5)
     3ae:	4388                	lw	a0,0(a5)
     3b0:	9702                	jalr	a4
E:\Works\NSCAM\obj/../User/Main.c:128

    if (SD_OK) {
     3b2:	000a4783          	lbu	a5,0(s4)
     3b6:	26078063          	beqz	a5,616 <main+0x4ae>
E:\Works\NSCAM\obj/../User/Main.c:129
        if (DEBUG) lcd->printfa(lcd->p, "init fatfs...\n");
     3ba:	00094783          	lbu	a5,0(s2)
     3be:	cb89                	beqz	a5,3d0 <main+0x268>
E:\Works\NSCAM\obj/../User/Main.c:129 (discriminator 1)
     3c0:	401c                	lw	a5,0(s0)
     3c2:	000075b7          	lui	a1,0x7
     3c6:	68058593          	addi	a1,a1,1664 # 7680 <_sbrk+0xaa>
     3ca:	57f8                	lw	a4,108(a5)
     3cc:	4388                	lw	a0,0(a5)
     3ce:	9702                	jalr	a4
E:\Works\NSCAM\obj/../User/Main.c:130
        k = f_mount(&fs, "", 1);
     3d0:	000075b7          	lui	a1,0x7
     3d4:	4605                	li	a2,1
     3d6:	63058593          	addi	a1,a1,1584 # 7630 <_sbrk+0x5a>
     3da:	83818513          	addi	a0,gp,-1992 # 20000098 <fs>
     3de:	41f040ef          	jal	ra,4ffc <f_mount>
     3e2:	6705                	lui	a4,0x1
     3e4:	86070713          	addi	a4,a4,-1952 # 860 <__stack_size+0x60>
     3e8:	1014                	addi	a3,sp,32
     3ea:	77fd                	lui	a5,0xfffff
     3ec:	9736                	add	a4,a4,a3
     3ee:	97ba                	add	a5,a5,a4
     3f0:	c43e                	sw	a5,8(sp)
     3f2:	7aa7a423          	sw	a0,1960(a5) # fffff7a8 <sensor_lcd_map+0xdffdeda8>
     3f6:	8a2a                	mv	s4,a0
E:\Works\NSCAM\obj/../User/Main.c:132
        if (k == FR_OK) {
            if (DEBUG) lcd->printfa(lcd->p, "fs mounted.\n");
     3f8:	00094783          	lbu	a5,0(s2)
E:\Works\NSCAM\obj/../User/Main.c:131
        if (k == FR_OK) {
     3fc:	66051163          	bnez	a0,a5e <__stack_size+0x25e>
E:\Works\NSCAM\obj/../User/Main.c:132
            if (DEBUG) lcd->printfa(lcd->p, "fs mounted.\n");
     400:	cb89                	beqz	a5,412 <main+0x2aa>
E:\Works\NSCAM\obj/../User/Main.c:132 (discriminator 1)
     402:	401c                	lw	a5,0(s0)
     404:	000075b7          	lui	a1,0x7
     408:	69058593          	addi	a1,a1,1680 # 7690 <_sbrk+0xba>
     40c:	57f8                	lw	a4,108(a5)
     40e:	4388                	lw	a0,0(a5)
     410:	9702                	jalr	a4
E:\Works\NSCAM\obj/../User/Main.c:133
            FIL info = { 0 };
     412:	6c05                	lui	s8,0x1
     414:	1018                	addi	a4,sp,32
     416:	860c0793          	addi	a5,s8,-1952 # 860 <__stack_size+0x60>
     41a:	97ba                	add	a5,a5,a4
     41c:	7afd                	lui	s5,0xfffff
     41e:	01578b33          	add	s6,a5,s5
     422:	22800613          	li	a2,552
     426:	4581                	li	a1,0
     428:	7b0b0513          	addi	a0,s6,1968
     42c:	3951                	jal	c0 <memset>
E:\Works\NSCAM\obj/../User/Main.c:134
            f_open(&info, "INFO.TXT", FA_WRITE | FA_CREATE_ALWAYS);
     42e:	1018                	addi	a4,sp,32
     430:	860c0793          	addi	a5,s8,-1952
     434:	97ba                	add	a5,a5,a4
     436:	7b0a8993          	addi	s3,s5,1968 # fffff7b0 <sensor_lcd_map+0xdffdedb0>
     43a:	99be                	add	s3,s3,a5
     43c:	000075b7          	lui	a1,0x7
     440:	4629                	li	a2,10
     442:	6a058593          	addi	a1,a1,1696 # 76a0 <_sbrk+0xca>
     446:	854e                	mv	a0,s3
     448:	405040ef          	jal	ra,504c <f_open>
E:\Works\NSCAM\obj/../User/Main.c:135
            f_printf(&info, "NSCAM-M2 with CH565W\n");
     44c:	000075b7          	lui	a1,0x7
     450:	6ac58593          	addi	a1,a1,1708 # 76ac <_sbrk+0xd6>
     454:	854e                	mv	a0,s3
     456:	330050ef          	jal	ra,5786 <f_printf>
E:\Works\NSCAM\obj/../User/Main.c:136
            f_printf(&info, "by NyaSama Developer Network\n");
     45a:	000075b7          	lui	a1,0x7
     45e:	6c458593          	addi	a1,a1,1732 # 76c4 <_sbrk+0xee>
     462:	854e                	mv	a0,s3
     464:	322050ef          	jal	ra,5786 <f_printf>
E:\Works\NSCAM\obj/../User/Main.c:137
            f_printf(&info, "Firmware Version: %s\n", "0.01a");
     468:	00007637          	lui	a2,0x7
     46c:	000075b7          	lui	a1,0x7
     470:	6e460613          	addi	a2,a2,1764 # 76e4 <_sbrk+0x10e>
     474:	6ec58593          	addi	a1,a1,1772 # 76ec <_sbrk+0x116>
     478:	854e                	mv	a0,s3
     47a:	30c050ef          	jal	ra,5786 <f_printf>
E:\Works\NSCAM\obj/../User/Main.c:138
            f_printf(&info, "\nFreq Info:\n");
     47e:	000075b7          	lui	a1,0x7
     482:	70458593          	addi	a1,a1,1796 # 7704 <_sbrk+0x12e>
     486:	854e                	mv	a0,s3
     488:	2fe050ef          	jal	ra,5786 <f_printf>
E:\Works\NSCAM\obj/../User/Main.c:139
            f_printf(&info, "System: %8dHz\n", NSCAM_FSYS);
     48c:	05b8e637          	lui	a2,0x5b8e
     490:	000075b7          	lui	a1,0x7
     494:	80060613          	addi	a2,a2,-2048 # 5b8d800 <_data_lma+0x5b84a2c>
     498:	71458593          	addi	a1,a1,1812 # 7714 <_sbrk+0x13e>
     49c:	854e                	mv	a0,s3
     49e:	2e8050ef          	jal	ra,5786 <f_printf>
E:\Works\NSCAM\obj/../User/Main.c:140
            f_printf(&info, "Screen: %8dHz\n", NSCAM_FLCD);
     4a2:	02dc7bb7          	lui	s7,0x2dc7
     4a6:	000075b7          	lui	a1,0x7
     4aa:	c00b8613          	addi	a2,s7,-1024 # 2dc6c00 <_data_lma+0x2dbde2c>
     4ae:	72458593          	addi	a1,a1,1828 # 7724 <_sbrk+0x14e>
     4b2:	854e                	mv	a0,s3
     4b4:	2d2050ef          	jal	ra,5786 <f_printf>
E:\Works\NSCAM\obj/../User/Main.c:141
            f_printf(&info, "SDCard: %8dHz\n", NSCAM_FSDH);
     4b8:	000075b7          	lui	a1,0x7
     4bc:	c00b8613          	addi	a2,s7,-1024
     4c0:	73458593          	addi	a1,a1,1844 # 7734 <_sbrk+0x15e>
     4c4:	854e                	mv	a0,s3
     4c6:	2c0050ef          	jal	ra,5786 <f_printf>
E:\Works\NSCAM\obj/../User/Main.c:142
            f_printf(&info, "Sensor: %8dHz\n", NSCAM_FCMOSH);
     4ca:	016e3637          	lui	a2,0x16e3
     4ce:	000075b7          	lui	a1,0x7
     4d2:	60060613          	addi	a2,a2,1536 # 16e3600 <_data_lma+0x16da82c>
     4d6:	74458593          	addi	a1,a1,1860 # 7744 <_sbrk+0x16e>
     4da:	854e                	mv	a0,s3
     4dc:	2aa050ef          	jal	ra,5786 <f_printf>
E:\Works\NSCAM\obj/../User/Main.c:143
            f_close(&info);
     4e0:	854e                	mv	a0,s3
     4e2:	280050ef          	jal	ra,5762 <f_close>
E:\Works\NSCAM\obj/../User/Main.c:145

            if (DEBUG) {
     4e6:	00094783          	lbu	a5,0(s2)
     4ea:	c7d5                	beqz	a5,596 <main+0x42e>
E:\Works\NSCAM\obj/../User/Main.c:146
                lcd->printfa(lcd->p, "testing");
     4ec:	401c                	lw	a5,0(s0)
     4ee:	000075b7          	lui	a1,0x7
     4f2:	75458593          	addi	a1,a1,1876 # 7754 <_sbrk+0x17e>
     4f6:	57f8                	lw	a4,108(a5)
     4f8:	4388                	lw	a0,0(a5)
E:\Works\NSCAM\obj/../User/Main.c:151
                uint16_t buff[512] = { 0 }; UINT v;
                FIL test = { 0 };
                f_open(&test, "TEST.BIN", FA_WRITE | FA_CREATE_ALWAYS);
                for (int i = 0; i < 1024; i++) {
                    buff[0] = 0xAA55;
     4fa:	7bed                	lui	s7,0xffffb
E:\Works\NSCAM\obj/../User/Main.c:153
                    buff[511] = i;
                    k = f_write(&test, buff, 1024, &v);
     4fc:	7aca8a93          	addi	s5,s5,1964
E:\Works\NSCAM\obj/../User/Main.c:146
                lcd->printfa(lcd->p, "testing");
     500:	9702                	jalr	a4
E:\Works\NSCAM\obj/../User/Main.c:147
                uint16_t buff[512] = { 0 }; UINT v;
     502:	40000613          	li	a2,1024
     506:	4581                	li	a1,0
     508:	48010513          	addi	a0,sp,1152
     50c:	3e55                	jal	c0 <memset>
E:\Works\NSCAM\obj/../User/Main.c:148
                FIL test = { 0 };
     50e:	22800613          	li	a2,552
     512:	4581                	li	a1,0
     514:	0ca8                	addi	a0,sp,600
     516:	366d                	jal	c0 <memset>
E:\Works\NSCAM\obj/../User/Main.c:149
                f_open(&test, "TEST.BIN", FA_WRITE | FA_CREATE_ALWAYS);
     518:	000075b7          	lui	a1,0x7
     51c:	4629                	li	a2,10
     51e:	75c58593          	addi	a1,a1,1884 # 775c <_sbrk+0x186>
     522:	0ca8                	addi	a0,sp,600
     524:	329040ef          	jal	ra,504c <f_open>
E:\Works\NSCAM\obj/../User/Main.c:153
                    k = f_write(&test, buff, 1024, &v);
     528:	860c0793          	addi	a5,s8,-1952
     52c:	1018                	addi	a4,sp,32
     52e:	97ba                	add	a5,a5,a4
     530:	89da                	mv	s3,s6
E:\Works\NSCAM\obj/../User/Main.c:151
                    buff[0] = 0xAA55;
     532:	a55b8b93          	addi	s7,s7,-1451 # ffffaa55 <sensor_lcd_map+0xdffda055>
E:\Works\NSCAM\obj/../User/Main.c:153
                    k = f_write(&test, buff, 1024, &v);
     536:	9abe                	add	s5,s5,a5
E:\Works\NSCAM\obj/../User/Main.c:160
                    if (k != FR_OK) {
                        lcd->printfa(lcd->p, "\nerr: %d\n", k);
                        break;
                    }
                    if ((i % 64) == 0)
                        lcd->printfa(lcd->p, ".");
     538:	00007b37          	lui	s6,0x7
E:\Works\NSCAM\obj/../User/Main.c:152
                    buff[511] = i;
     53c:	6785                	lui	a5,0x1
     53e:	1018                	addi	a4,sp,32
     540:	85e78793          	addi	a5,a5,-1954 # 85e <__stack_size+0x5e>
     544:	97ba                	add	a5,a5,a4
E:\Works\NSCAM\obj/../User/Main.c:153
                    k = f_write(&test, buff, 1024, &v);
     546:	40000613          	li	a2,1024
     54a:	86d6                	mv	a3,s5
     54c:	48010593          	addi	a1,sp,1152
     550:	0ca8                	addi	a0,sp,600
E:\Works\NSCAM\obj/../User/Main.c:152
                    buff[511] = i;
     552:	01479023          	sh	s4,0(a5)
E:\Works\NSCAM\obj/../User/Main.c:151
                    buff[0] = 0xAA55;
     556:	49711023          	sh	s7,1152(sp)
E:\Works\NSCAM\obj/../User/Main.c:153
                    k = f_write(&test, buff, 1024, &v);
     55a:	6b5040ef          	jal	ra,540e <f_write>
     55e:	7aa9a423          	sw	a0,1960(s3)
E:\Works\NSCAM\obj/../User/Main.c:154
                    f_sync(&test);
     562:	0ca8                	addi	a0,sp,600
     564:	130050ef          	jal	ra,5694 <f_sync>
E:\Works\NSCAM\obj/../User/Main.c:155
                    if (k != FR_OK) {
     568:	7a89a603          	lw	a2,1960(s3)
     56c:	4a060363          	beqz	a2,a12 <__stack_size+0x212>
E:\Works\NSCAM\obj/../User/Main.c:156
                        lcd->printfa(lcd->p, "\nerr: %d\n", k);
     570:	401c                	lw	a5,0(s0)
     572:	000075b7          	lui	a1,0x7
     576:	76858593          	addi	a1,a1,1896 # 7768 <_sbrk+0x192>
     57a:	57f8                	lw	a4,108(a5)
     57c:	4388                	lw	a0,0(a5)
     57e:	9702                	jalr	a4
E:\Works\NSCAM\obj/../User/Main.c:162
                }
                f_close(&test);
     580:	0ca8                	addi	a0,sp,600
     582:	1e0050ef          	jal	ra,5762 <f_close>
E:\Works\NSCAM\obj/../User/Main.c:163
                lcd->printfa(lcd->p, "\n");
     586:	401c                	lw	a5,0(s0)
     588:	000075b7          	lui	a1,0x7
     58c:	6c058593          	addi	a1,a1,1728 # 76c0 <_sbrk+0xea>
     590:	57f8                	lw	a4,108(a5)
     592:	4388                	lw	a0,0(a5)
     594:	9702                	jalr	a4
E:\Works\NSCAM\obj/../User/Main.c:166
            }

            FIL count = { 0 };
     596:	22800613          	li	a2,552
     59a:	4581                	li	a1,0
     59c:	48010513          	addi	a0,sp,1152
     5a0:	3605                	jal	c0 <memset>
E:\Works\NSCAM\obj/../User/Main.c:167
            k = f_open(&count, "COUNT.BIN", FA_READ);
     5a2:	00007ab7          	lui	s5,0x7
     5a6:	4605                	li	a2,1
     5a8:	778a8593          	addi	a1,s5,1912 # 7778 <_sbrk+0x1a2>
     5ac:	48010513          	addi	a0,sp,1152
     5b0:	29d040ef          	jal	ra,504c <f_open>
     5b4:	d42a                	sw	a0,40(sp)
     5b6:	79fd                	lui	s3,0xfffff
E:\Works\NSCAM\obj/../User/Main.c:168
            if (k == FR_OK) {
     5b8:	46051c63          	bnez	a0,a30 <__stack_size+0x230>
E:\Works\NSCAM\obj/../User/Main.c:169
                f_read(&count, (void*) &snap_count, 4, &k);
     5bc:	6785                	lui	a5,0x1
     5be:	1018                	addi	a4,sp,32
     5c0:	86078793          	addi	a5,a5,-1952 # 860 <__stack_size+0x60>
     5c4:	97ba                	add	a5,a5,a4
     5c6:	7a898693          	addi	a3,s3,1960 # fffff7a8 <sensor_lcd_map+0xdffdeda8>
     5ca:	96be                	add	a3,a3,a5
     5cc:	4611                	li	a2,4
     5ce:	81818593          	addi	a1,gp,-2024 # 20000078 <snap_count>
     5d2:	48010513          	addi	a0,sp,1152
     5d6:	48f040ef          	jal	ra,5264 <f_read>
E:\Works\NSCAM\obj/../User/Main.c:170
                if (DEBUG) lcd->printfa(lcd->p, "we have %d snapshots.\n", snap_count);
     5da:	00094783          	lbu	a5,0(s2)
E:\Works\NSCAM\obj/../User/Main.c:169
                f_read(&count, (void*) &snap_count, 4, &k);
     5de:	81818993          	addi	s3,gp,-2024 # 20000078 <snap_count>
E:\Works\NSCAM\obj/../User/Main.c:170
                if (DEBUG) lcd->printfa(lcd->p, "we have %d snapshots.\n", snap_count);
     5e2:	cb99                	beqz	a5,5f8 <main+0x490>
E:\Works\NSCAM\obj/../User/Main.c:170 (discriminator 1)
     5e4:	401c                	lw	a5,0(s0)
     5e6:	0009d603          	lhu	a2,0(s3)
     5ea:	000075b7          	lui	a1,0x7
     5ee:	57f8                	lw	a4,108(a5)
     5f0:	4388                	lw	a0,0(a5)
     5f2:	78458593          	addi	a1,a1,1924 # 7784 <_sbrk+0x1ae>
     5f6:	9702                	jalr	a4
E:\Works\NSCAM\obj/../User/Main.c:175 (discriminator 1)
            } else {
                f_open(&count, "COUNT.BIN", FA_WRITE | FA_CREATE_ALWAYS);
                f_write(&count, (void*) &snap_count, 4, &k);
            }
            f_close(&count);
     5f8:	48010513          	addi	a0,sp,1152
     5fc:	166050ef          	jal	ra,5762 <f_close>
E:\Works\NSCAM\obj/../User/Main.c:179
        } else {
            if (DEBUG) lcd->printfa(lcd->p, "fs fail, res: %02X\n", k);
        }
        if (DEBUG) lcd->printfa(lcd->p, "\n");
     600:	00094783          	lbu	a5,0(s2)
     604:	c785                	beqz	a5,62c <main+0x4c4>
E:\Works\NSCAM\obj/../User/Main.c:179 (discriminator 1)
     606:	401c                	lw	a5,0(s0)
     608:	000075b7          	lui	a1,0x7
     60c:	6c058593          	addi	a1,a1,1728 # 76c0 <_sbrk+0xea>
     610:	57f8                	lw	a4,108(a5)
     612:	4388                	lw	a0,0(a5)
     614:	9702                	jalr	a4
E:\Works\NSCAM\obj/../User/Main.c:182
    }

    if (DEBUG) lcd->printfa(lcd->p, "init sensor...\n");
     616:	00094783          	lbu	a5,0(s2)
     61a:	cb89                	beqz	a5,62c <main+0x4c4>
E:\Works\NSCAM\obj/../User/Main.c:182 (discriminator 1)
     61c:	401c                	lw	a5,0(s0)
     61e:	000075b7          	lui	a1,0x7
     622:	7b058593          	addi	a1,a1,1968 # 77b0 <_sbrk+0x1da>
     626:	57f8                	lw	a4,108(a5)
     628:	4388                	lw	a0,0(a5)
     62a:	9702                	jalr	a4
E:\Works\NSCAM\obj/../User/Main.c:184
    float gain = 1, shutter = 0.025f;
    sensor_init();
     62c:	2bad                	jal	ba6 <sensor_init>
E:\Works\NSCAM\obj/../User/Main.c:185
    sensor_shutter(shutter);
     62e:	000077b7          	lui	a5,0x7
     632:	5f87aa03          	lw	s4,1528(a5) # 75f8 <_sbrk+0x22>
E:\Works\NSCAM\obj/../User/Main.c:186
    sensor_gain(gain);
     636:	00007b37          	lui	s6,0x7
E:\Works\NSCAM\obj/../User/Main.c:200
    uint8_t chg = 0, std = 0;
    uint8_t ku = 0, kd = 0, kl = 0, kr = 0;

    GPIOB_ModeCfg(GPIO_Pin_9, GPIO_ModeIN_Floating);
    oled->printf(oled->p, 4, 0, "G %-2d", (int16_t) gain);
    oled->printf(oled->p, 4, 2, "1/%-4d", (int16_t) (1 / shutter));
     63a:	000079b7          	lui	s3,0x7
E:\Works\NSCAM\obj/../User/Main.c:185
    sensor_shutter(shutter);
     63e:	8552                	mv	a0,s4
     640:	6a8000ef          	jal	ra,ce8 <sensor_shutter>
E:\Works\NSCAM\obj/../User/Main.c:186
    sensor_gain(gain);
     644:	5fcb2903          	lw	s2,1532(s6) # 75fc <_sbrk+0x26>
E:\Works\NSCAM\obj/../User/Main.c:204
    //oled->printf(oled->p, 100, 2, "%03d", snap_count);
    oled->printf(oled->p, 84, 2, "IR-TI");

    BOOL state = TRUE;
     648:	4c05                	li	s8,1
E:\Works\NSCAM\obj/../User/Main.c:196
    uint8_t ku = 0, kd = 0, kl = 0, kr = 0;
     64a:	4d81                	li	s11,0
E:\Works\NSCAM\obj/../User/Main.c:186
    sensor_gain(gain);
     64c:	854a                	mv	a0,s2
     64e:	71c000ef          	jal	ra,d6a <sensor_gain>
E:\Works\NSCAM\obj/../User/Main.c:188
    mDelaymS(1000);
     652:	3e800513          	li	a0,1000
     656:	143010ef          	jal	ra,1f98 <mDelaymS>
E:\Works\NSCAM\obj/../User/Main.c:190
    lcd->colorb(lcd->p, 0x000000);
     65a:	401c                	lw	a5,0(s0)
     65c:	4581                	li	a1,0
E:\Works\NSCAM\obj/../User/Main.c:196
    uint8_t ku = 0, kd = 0, kl = 0, kr = 0;
     65e:	4d01                	li	s10,0
E:\Works\NSCAM\obj/../User/Main.c:190
    lcd->colorb(lcd->p, 0x000000);
     660:	4bd8                	lw	a4,20(a5)
     662:	4388                	lw	a0,0(a5)
E:\Works\NSCAM\obj/../User/Main.c:196
    uint8_t ku = 0, kd = 0, kl = 0, kr = 0;
     664:	4c81                	li	s9,0
E:\Works\NSCAM\obj/../User/Main.c:195
    uint8_t chg = 0, std = 0;
     666:	4b81                	li	s7,0
E:\Works\NSCAM\obj/../User/Main.c:190
    lcd->colorb(lcd->p, 0x000000);
     668:	9702                	jalr	a4
E:\Works\NSCAM\obj/../User/Main.c:191
    lcd->colorf(lcd->p, 0xFFFFFF);
     66a:	401c                	lw	a5,0(s0)
     66c:	010005b7          	lui	a1,0x1000
     670:	15fd                	addi	a1,a1,-1
     672:	4f98                	lw	a4,24(a5)
     674:	4388                	lw	a0,0(a5)
E:\Works\NSCAM\obj/../User/Main.c:195
    uint8_t chg = 0, std = 0;
     676:	4a81                	li	s5,0
E:\Works\NSCAM\obj/../User/Main.c:191
    lcd->colorf(lcd->p, 0xFFFFFF);
     678:	9702                	jalr	a4
E:\Works\NSCAM\obj/../User/Main.c:192
    lcd->clear(lcd->p);
     67a:	401c                	lw	a5,0(s0)
     67c:	5398                	lw	a4,32(a5)
     67e:	4388                	lw	a0,0(a5)
     680:	9702                	jalr	a4
E:\Works\NSCAM\obj/../User/Main.c:193
    oled->clear(oled->p);
     682:	409c                	lw	a5,0(s1)
     684:	4b98                	lw	a4,16(a5)
     686:	4388                	lw	a0,0(a5)
     688:	9702                	jalr	a4
E:\Works\NSCAM\obj/../User/Main.c:198
    GPIOB_ModeCfg(GPIO_Pin_9, GPIO_ModeIN_Floating);
     68a:	4581                	li	a1,0
     68c:	20000513          	li	a0,512
     690:	600010ef          	jal	ra,1c90 <GPIOB_ModeCfg>
E:\Works\NSCAM\obj/../User/Main.c:199
    oled->printf(oled->p, 4, 0, "G %-2d", (int16_t) gain);
     694:	409c                	lw	a5,0(s1)
     696:	00007837          	lui	a6,0x7
     69a:	7c080693          	addi	a3,a6,1984 # 77c0 <_sbrk+0x1ea>
     69e:	0307a883          	lw	a7,48(a5)
     6a2:	4388                	lw	a0,0(a5)
     6a4:	4705                	li	a4,1
     6a6:	4601                	li	a2,0
     6a8:	4591                	li	a1,4
     6aa:	9882                	jalr	a7
E:\Works\NSCAM\obj/../User/Main.c:200
    oled->printf(oled->p, 4, 2, "1/%-4d", (int16_t) (1 / shutter));
     6ac:	409c                	lw	a5,0(s1)
     6ae:	7c898693          	addi	a3,s3,1992 # 77c8 <_sbrk+0x1f2>
     6b2:	02800713          	li	a4,40
     6b6:	0307a883          	lw	a7,48(a5)
     6ba:	4388                	lw	a0,0(a5)
     6bc:	4609                	li	a2,2
     6be:	4591                	li	a1,4
     6c0:	9882                	jalr	a7
E:\Works\NSCAM\obj/../User/Main.c:202
    oled->printf(oled->p, 84, 2, "IR-TI");
     6c2:	409c                	lw	a5,0(s1)
     6c4:	000076b7          	lui	a3,0x7
     6c8:	7d068693          	addi	a3,a3,2000 # 77d0 <_sbrk+0x1fa>
     6cc:	5b98                	lw	a4,48(a5)
     6ce:	4388                	lw	a0,0(a5)
     6d0:	4609                	li	a2,2
     6d2:	05400593          	li	a1,84
     6d6:	9702                	jalr	a4
E:\Works\NSCAM\obj/../User/Main.c:271
            kr = 1;

		if (GPIOB_ReadPortPin(GPIO_Pin_1) != 0 && ku == 1) {
		    ku = 0;
		    gain += 1;
            if (gain > 15)
     6d8:	000077b7          	lui	a5,0x7
     6dc:	6007a783          	lw	a5,1536(a5) # 7600 <_sbrk+0x2a>
     6e0:	00007837          	lui	a6,0x7
     6e4:	c84e                	sw	s3,16(sp)
     6e6:	ca3e                	sw	a5,20(sp)
E:\Works\NSCAM\obj/../User/Main.c:287
            oled->printf(oled->p, 4, 0, "G %-2d", (int16_t) gain);
        }
		if (GPIOB_ReadPortPin(GPIO_Pin_2) != 0 && kl == 1) {
            kl = 0;
            shutter *= 2;
            if (shutter > 0.1f)
     6e8:	000077b7          	lui	a5,0x7
     6ec:	6047a783          	lw	a5,1540(a5) # 7604 <_sbrk+0x2e>
E:\Works\NSCAM\obj/../User/Main.c:196
    uint8_t ku = 0, kd = 0, kl = 0, kr = 0;
     6f0:	c402                	sw	zero,8(sp)
     6f2:	c642                	sw	a6,12(sp)
E:\Works\NSCAM\obj/../User/Main.c:287
            if (shutter > 0.1f)
     6f4:	cc3e                	sw	a5,24(sp)
E:\Works\NSCAM\obj/../User/Main.c:295
            oled->printf(oled->p, 4, 2, "1/%-4d", (int16_t) (1 / shutter));
        }
        if (GPIOB_ReadPortPin(GPIO_Pin_3) != 0 && kr == 1) {
            kr = 0;
            shutter /= 2;
            if (shutter < 0.1f / 512)
     6f6:	000077b7          	lui	a5,0x7
     6fa:	6087a783          	lw	a5,1544(a5) # 7608 <_sbrk+0x32>
E:\Works\NSCAM\obj/../User/Main.c:216
        if (GPIOB_ReadPortPin(GPIO_Pin_0) == 0 && snapshot == 0) {
     6fe:	400019b7          	lui	s3,0x40001
E:\Works\NSCAM\obj/../User/Main.c:295
            if (shutter < 0.1f / 512)
     702:	ce3e                	sw	a5,28(sp)
E:\Works\NSCAM\obj/../User/Main.c:206
	    if (state) {
     704:	020c0963          	beqz	s8,736 <main+0x5ce>
E:\Works\NSCAM\obj/../User/Main.c:208
	        uint16_t* ptr = sensor_get_buf(&pos);
     708:	48010513          	addi	a0,sp,1152
E:\Works\NSCAM\obj/../User/Main.c:207
	        uint16_t pos = 0;
     70c:	48011023          	sh	zero,1152(sp)
E:\Works\NSCAM\obj/../User/Main.c:208
	        uint16_t* ptr = sensor_get_buf(&pos);
     710:	722000ef          	jal	ra,e32 <sensor_get_buf>
     714:	862a                	mv	a2,a0
E:\Works\NSCAM\obj/../User/Main.c:209
            if (ptr != NULL) {
     716:	c105                	beqz	a0,736 <main+0x5ce>
E:\Works\NSCAM\obj/../User/Main.c:210
                if (pos >= 8 && pos < 248)
     718:	48015583          	lhu	a1,1152(sp)
     71c:	0ef00793          	li	a5,239
     720:	15e1                	addi	a1,a1,-8
     722:	05c2                	slli	a1,a1,0x10
     724:	81c1                	srli	a1,a1,0x10
     726:	00b7e663          	bltu	a5,a1,732 <main+0x5ca>
E:\Works\NSCAM\obj/../User/Main.c:211
                    lcd->row(lcd->p, pos - 8, ptr);
     72a:	401c                	lw	a5,0(s0)
     72c:	5b98                	lw	a4,48(a5)
     72e:	4388                	lw	a0,0(a5)
     730:	9702                	jalr	a4
E:\Works\NSCAM\obj/../User/Main.c:212
                sensor_req_buf();
     732:	724000ef          	jal	ra,e56 <sensor_req_buf>
E:\Works\NSCAM\obj/../User/Main.c:216
        if (GPIOB_ReadPortPin(GPIO_Pin_0) == 0 && snapshot == 0) {
     736:	0649a783          	lw	a5,100(s3) # 40001064 <sensor_lcd_map+0x1ffe0664>
     73a:	8b85                	andi	a5,a5,1
     73c:	eb9d                	bnez	a5,772 <main+0x60a>
E:\Works\NSCAM\obj/../User/Main.c:216 (discriminator 1)
     73e:	81a18793          	addi	a5,gp,-2022 # 2000007a <snapshot>
     742:	0007c703          	lbu	a4,0(a5)
     746:	e715                	bnez	a4,772 <main+0x60a>
E:\Works\NSCAM\obj/../User/Main.c:217
            snapshot = 1;
     748:	4705                	li	a4,1
E:\Works\NSCAM\obj/../User/Main.c:219
            GPIOB_ModeCfg(GPIO_Pin_9, GPIO_ModeOut_OP_8mA);
     74a:	45a5                	li	a1,9
     74c:	20000513          	li	a0,512
E:\Works\NSCAM\obj/../User/Main.c:217
            snapshot = 1;
     750:	00e78023          	sb	a4,0(a5)
E:\Works\NSCAM\obj/../User/Main.c:219
            GPIOB_ModeCfg(GPIO_Pin_9, GPIO_ModeOut_OP_8mA);
     754:	53c010ef          	jal	ra,1c90 <GPIOB_ModeCfg>
E:\Works\NSCAM\obj/../User/Main.c:223
                lcd->light(lcd->p, 0);
     758:	401c                	lw	a5,0(s0)
E:\Works\NSCAM\obj/../User/Main.c:221
            if (state) {
     75a:	300c0e63          	beqz	s8,a76 <__stack_size+0x276>
E:\Works\NSCAM\obj/../User/Main.c:223
                lcd->light(lcd->p, 0);
     75e:	47d8                	lw	a4,12(a5)
     760:	4388                	lw	a0,0(a5)
     762:	4581                	li	a1,0
E:\Works\NSCAM\obj/../User/Main.c:222
                state = FALSE;
     764:	4c01                	li	s8,0
E:\Works\NSCAM\obj/../User/Main.c:223
                lcd->light(lcd->p, 0);
     766:	9702                	jalr	a4
E:\Works\NSCAM\obj/../User/Main.c:224
                lcd->ctrl(lcd->p, 0);
     768:	401c                	lw	a5,0(s0)
     76a:	4581                	li	a1,0
     76c:	4b98                	lw	a4,16(a5)
     76e:	4388                	lw	a0,0(a5)
     770:	9702                	jalr	a4
E:\Works\NSCAM\obj/../User/Main.c:232
        if (GPIOB_ReadPortPin(GPIO_Pin_0) != 0 && snapshot == 1) {
     772:	0649a783          	lw	a5,100(s3)
     776:	8b85                	andi	a5,a5,1
     778:	cf99                	beqz	a5,796 <main+0x62e>
E:\Works\NSCAM\obj/../User/Main.c:232 (discriminator 1)
     77a:	81a18793          	addi	a5,gp,-2022 # 2000007a <snapshot>
     77e:	0007c683          	lbu	a3,0(a5)
     782:	4705                	li	a4,1
     784:	00e69963          	bne	a3,a4,796 <main+0x62e>
E:\Works\NSCAM\obj/../User/Main.c:235
            GPIOB_ModeCfg(GPIO_Pin_9, GPIO_ModeIN_Floating);
     788:	4581                	li	a1,0
     78a:	20000513          	li	a0,512
E:\Works\NSCAM\obj/../User/Main.c:233
            snapshot = 0;
     78e:	00078023          	sb	zero,0(a5)
E:\Works\NSCAM\obj/../User/Main.c:235
            GPIOB_ModeCfg(GPIO_Pin_9, GPIO_ModeIN_Floating);
     792:	4fe010ef          	jal	ra,1c90 <GPIOB_ModeCfg>
E:\Works\NSCAM\obj/../User/Main.c:238
	    if (GPIOA_ReadPortPin(GPIO_Pin_16) == 0 && chg == 0)
     796:	0449a783          	lw	a5,68(s3)
     79a:	00f79713          	slli	a4,a5,0xf
     79e:	00074563          	bltz	a4,7a8 <main+0x640>
E:\Works\NSCAM\obj/../User/Main.c:238 (discriminator 1)
     7a2:	000a9363          	bnez	s5,7a8 <main+0x640>
E:\Works\NSCAM\obj/../User/Main.c:239
	        chg = 1;
     7a6:	4a85                	li	s5,1
E:\Works\NSCAM\obj/../User/Main.c:240
        if (GPIOB_ReadPortPin(GPIO_Pin_7) == 0 && std == 0)
     7a8:	0649a783          	lw	a5,100(s3)
     7ac:	0807f793          	andi	a5,a5,128
     7b0:	e399                	bnez	a5,7b6 <main+0x64e>
E:\Works\NSCAM\obj/../User/Main.c:240 (discriminator 1)
     7b2:	2c0b8d63          	beqz	s7,a8c <__stack_size+0x28c>
E:\Works\NSCAM\obj/../User/Main.c:242
        if (chg == 1) {
     7b6:	4785                	li	a5,1
     7b8:	02fa9063          	bne	s5,a5,7d8 <main+0x670>
     7bc:	8ade                	mv	s5,s7
E:\Works\NSCAM\obj/../User/Main.c:244
            oled->printf(oled->p, 100, 0, "CHG");
     7be:	409c                	lw	a5,0(s1)
     7c0:	000076b7          	lui	a3,0x7
     7c4:	7d868693          	addi	a3,a3,2008 # 77d8 <_sbrk+0x202>
     7c8:	5b98                	lw	a4,48(a5)
     7ca:	4388                	lw	a0,0(a5)
     7cc:	4601                	li	a2,0
     7ce:	06400593          	li	a1,100
     7d2:	8bd6                	mv	s7,s5
     7d4:	9702                	jalr	a4
E:\Works\NSCAM\obj/../User/Main.c:243
            chg = 2;
     7d6:	4a89                	li	s5,2
E:\Works\NSCAM\obj/../User/Main.c:246
        if (std == 1) {
     7d8:	4785                	li	a5,1
     7da:	00fb9e63          	bne	s7,a5,7f6 <main+0x68e>
E:\Works\NSCAM\obj/../User/Main.c:248
            oled->printf(oled->p, 100, 0, "STD");
     7de:	409c                	lw	a5,0(s1)
     7e0:	000076b7          	lui	a3,0x7
     7e4:	7dc68693          	addi	a3,a3,2012 # 77dc <_sbrk+0x206>
     7e8:	5b98                	lw	a4,48(a5)
     7ea:	4388                	lw	a0,0(a5)
     7ec:	4601                	li	a2,0
     7ee:	06400593          	li	a1,100
     7f2:	9702                	jalr	a4
E:\Works\NSCAM\obj/../User/Main.c:247
            std = 2;
     7f4:	4b89                	li	s7,2
E:\Works\NSCAM\obj/../User/Main.c:250
        if (GPIOA_ReadPortPin(GPIO_Pin_16) != 0 && chg == 2) {
     7f6:	0449a783          	lw	a5,68(s3)
     7fa:	00f79713          	slli	a4,a5,0xf
     7fe:	02075163          	bgez	a4,820 <__stack_size+0x20>
E:\Works\NSCAM\obj/../User/Main.c:250 (discriminator 1)
     802:	4789                	li	a5,2
     804:	00fa9e63          	bne	s5,a5,820 <__stack_size+0x20>
E:\Works\NSCAM\obj/../User/Main.c:252
            oled->printf(oled->p, 100, 0, "   ");
     808:	409c                	lw	a5,0(s1)
     80a:	000076b7          	lui	a3,0x7
     80e:	7e068693          	addi	a3,a3,2016 # 77e0 <_sbrk+0x20a>
     812:	5b98                	lw	a4,48(a5)
     814:	4388                	lw	a0,0(a5)
     816:	4601                	li	a2,0
     818:	06400593          	li	a1,100
     81c:	9702                	jalr	a4
E:\Works\NSCAM\obj/../User/Main.c:251
            chg = 0;
     81e:	4a81                	li	s5,0
E:\Works\NSCAM\obj/../User/Main.c:254
        if (GPIOB_ReadPortPin(GPIO_Pin_7) != 0 && std == 2) {
     820:	0649a783          	lw	a5,100(s3)
     824:	0807f793          	andi	a5,a5,128
     828:	c385                	beqz	a5,848 <__stack_size+0x48>
E:\Works\NSCAM\obj/../User/Main.c:254 (discriminator 1)
     82a:	4789                	li	a5,2
     82c:	00fb9e63          	bne	s7,a5,848 <__stack_size+0x48>
E:\Works\NSCAM\obj/../User/Main.c:256
            oled->printf(oled->p, 100, 0, "   ");
     830:	409c                	lw	a5,0(s1)
     832:	000076b7          	lui	a3,0x7
     836:	7e068693          	addi	a3,a3,2016 # 77e0 <_sbrk+0x20a>
     83a:	5b98                	lw	a4,48(a5)
     83c:	4388                	lw	a0,0(a5)
     83e:	4601                	li	a2,0
     840:	06400593          	li	a1,100
     844:	9702                	jalr	a4
E:\Works\NSCAM\obj/../User/Main.c:255
            std = 0;
     846:	4b81                	li	s7,0
E:\Works\NSCAM\obj/../User/Main.c:259
		if (GPIOB_ReadPortPin(GPIO_Pin_1) == 0 && ku == 0)
     848:	0649a783          	lw	a5,100(s3)
     84c:	8b89                	andi	a5,a5,2
     84e:	e391                	bnez	a5,852 <__stack_size+0x52>
E:\Works\NSCAM\obj/../User/Main.c:260
		    ku = 1;
     850:	4c85                	li	s9,1
E:\Works\NSCAM\obj/../User/Main.c:261
		if (GPIOA_ReadPortPin(GPIO_Pin_20) == 0 && kd == 0)
     852:	0449a783          	lw	a5,68(s3)
     856:	00b79713          	slli	a4,a5,0xb
     85a:	00074363          	bltz	a4,860 <__stack_size+0x60>
E:\Works\NSCAM\obj/../User/Main.c:262
            kd = 1;
     85e:	4d05                	li	s10,1
E:\Works\NSCAM\obj/../User/Main.c:263
		if (GPIOB_ReadPortPin(GPIO_Pin_2) == 0 && kl == 0)
     860:	0649a783          	lw	a5,100(s3)
     864:	8b91                	andi	a5,a5,4
     866:	e391                	bnez	a5,86a <__stack_size+0x6a>
E:\Works\NSCAM\obj/../User/Main.c:264
            kl = 1;
     868:	4d85                	li	s11,1
E:\Works\NSCAM\obj/../User/Main.c:265
        if (GPIOB_ReadPortPin(GPIO_Pin_3) == 0 && kr == 0)
     86a:	0649a783          	lw	a5,100(s3)
     86e:	8ba1                	andi	a5,a5,8
     870:	e399                	bnez	a5,876 <__stack_size+0x76>
E:\Works\NSCAM\obj/../User/Main.c:266
            kr = 1;
     872:	4785                	li	a5,1
     874:	c43e                	sw	a5,8(sp)
E:\Works\NSCAM\obj/../User/Main.c:268
		if (GPIOB_ReadPortPin(GPIO_Pin_1) != 0 && ku == 1) {
     876:	0649a783          	lw	a5,100(s3)
     87a:	8b89                	andi	a5,a5,2
     87c:	c7a1                	beqz	a5,8c4 <__stack_size+0xc4>
E:\Works\NSCAM\obj/../User/Main.c:268 (discriminator 1)
     87e:	040c8363          	beqz	s9,8c4 <__stack_size+0xc4>
E:\Works\NSCAM\obj/../User/Main.c:270
		    gain += 1;
     882:	5fcb2583          	lw	a1,1532(s6)
     886:	854a                	mv	a0,s2
     888:	1f8050ef          	jal	ra,5a80 <__addsf3>
E:\Works\NSCAM\obj/../User/Main.c:271
            if (gain > 15)
     88c:	45d2                	lw	a1,20(sp)
E:\Works\NSCAM\obj/../User/Main.c:270
		    gain += 1;
     88e:	892a                	mv	s2,a0
E:\Works\NSCAM\obj/../User/Main.c:271
            if (gain > 15)
     890:	069050ef          	jal	ra,60f8 <__gesf2>
     894:	00a05363          	blez	a0,89a <__stack_size+0x9a>
E:\Works\NSCAM\obj/../User/Main.c:272
                gain = 15;
     898:	4952                	lw	s2,20(sp)
E:\Works\NSCAM\obj/../User/Main.c:273
		    sensor_gain(gain);
     89a:	854a                	mv	a0,s2
     89c:	21f9                	jal	d6a <sensor_gain>
E:\Works\NSCAM\obj/../User/Main.c:274
		    oled->printf(oled->p, 4, 0, "G %-2d", (int16_t) gain);
     89e:	854a                	mv	a0,s2
     8a0:	0004ac83          	lw	s9,0(s1)
     8a4:	77f050ef          	jal	ra,6822 <__fixsfsi>
     8a8:	46b2                	lw	a3,12(sp)
     8aa:	030ca783          	lw	a5,48(s9)
     8ae:	01051713          	slli	a4,a0,0x10
     8b2:	000ca503          	lw	a0,0(s9)
     8b6:	8741                	srai	a4,a4,0x10
     8b8:	7c068693          	addi	a3,a3,1984
     8bc:	4601                	li	a2,0
     8be:	4591                	li	a1,4
     8c0:	9782                	jalr	a5
E:\Works\NSCAM\obj/../User/Main.c:269
		    ku = 0;
     8c2:	4c81                	li	s9,0
E:\Works\NSCAM\obj/../User/Main.c:276
		if (GPIOA_ReadPortPin(GPIO_Pin_20) != 0 && kd == 1) {
     8c4:	0449a783          	lw	a5,68(s3)
     8c8:	00b79713          	slli	a4,a5,0xb
     8cc:	04075a63          	bgez	a4,920 <__stack_size+0x120>
E:\Works\NSCAM\obj/../User/Main.c:276 (discriminator 1)
     8d0:	040d0863          	beqz	s10,920 <__stack_size+0x120>
E:\Works\NSCAM\obj/../User/Main.c:278
            gain -=1;
     8d4:	5fcb2583          	lw	a1,1532(s6)
     8d8:	854a                	mv	a0,s2
     8da:	3c1050ef          	jal	ra,649a <__subsf3>
E:\Works\NSCAM\obj/../User/Main.c:279
            if (gain < 1)
     8de:	000077b7          	lui	a5,0x7
     8e2:	5fc7a583          	lw	a1,1532(a5) # 75fc <_sbrk+0x26>
E:\Works\NSCAM\obj/../User/Main.c:278
            gain -=1;
     8e6:	892a                	mv	s2,a0
E:\Works\NSCAM\obj/../User/Main.c:279
            if (gain < 1)
     8e8:	8d3e                	mv	s10,a5
     8ea:	095050ef          	jal	ra,617e <__lesf2>
     8ee:	00055463          	bgez	a0,8f6 <__stack_size+0xf6>
E:\Works\NSCAM\obj/../User/Main.c:280
                gain = 1;
     8f2:	5fcd2903          	lw	s2,1532(s10)
E:\Works\NSCAM\obj/../User/Main.c:281
            sensor_gain(gain);
     8f6:	854a                	mv	a0,s2
     8f8:	298d                	jal	d6a <sensor_gain>
E:\Works\NSCAM\obj/../User/Main.c:282
            oled->printf(oled->p, 4, 0, "G %-2d", (int16_t) gain);
     8fa:	854a                	mv	a0,s2
     8fc:	0004ad03          	lw	s10,0(s1)
     900:	723050ef          	jal	ra,6822 <__fixsfsi>
     904:	46b2                	lw	a3,12(sp)
     906:	030d2783          	lw	a5,48(s10)
     90a:	01051713          	slli	a4,a0,0x10
     90e:	000d2503          	lw	a0,0(s10)
     912:	8741                	srai	a4,a4,0x10
     914:	7c068693          	addi	a3,a3,1984
     918:	4601                	li	a2,0
     91a:	4591                	li	a1,4
     91c:	9782                	jalr	a5
E:\Works\NSCAM\obj/../User/Main.c:277
            kd = 0;
     91e:	4d01                	li	s10,0
E:\Works\NSCAM\obj/../User/Main.c:284
		if (GPIOB_ReadPortPin(GPIO_Pin_2) != 0 && kl == 1) {
     920:	0649a783          	lw	a5,100(s3)
     924:	8b91                	andi	a5,a5,4
     926:	c7b9                	beqz	a5,974 <__stack_size+0x174>
E:\Works\NSCAM\obj/../User/Main.c:284 (discriminator 1)
     928:	040d8663          	beqz	s11,974 <__stack_size+0x174>
E:\Works\NSCAM\obj/../User/Main.c:286
            shutter *= 2;
     92c:	85d2                	mv	a1,s4
     92e:	8552                	mv	a0,s4
     930:	150050ef          	jal	ra,5a80 <__addsf3>
E:\Works\NSCAM\obj/../User/Main.c:287
            if (shutter > 0.1f)
     934:	45e2                	lw	a1,24(sp)
E:\Works\NSCAM\obj/../User/Main.c:286
            shutter *= 2;
     936:	8a2a                	mv	s4,a0
E:\Works\NSCAM\obj/../User/Main.c:287
            if (shutter > 0.1f)
     938:	7c0050ef          	jal	ra,60f8 <__gesf2>
     93c:	00a05363          	blez	a0,942 <__stack_size+0x142>
E:\Works\NSCAM\obj/../User/Main.c:288
                shutter = 0.1f;
     940:	4a62                	lw	s4,24(sp)
E:\Works\NSCAM\obj/../User/Main.c:289
            sensor_shutter(shutter);
     942:	8552                	mv	a0,s4
     944:	2655                	jal	ce8 <sensor_shutter>
E:\Works\NSCAM\obj/../User/Main.c:290
            oled->printf(oled->p, 4, 2, "1/%-4d", (int16_t) (1 / shutter));
     946:	5fcb2503          	lw	a0,1532(s6)
     94a:	85d2                	mv	a1,s4
     94c:	0004ad83          	lw	s11,0(s1)
     950:	49a050ef          	jal	ra,5dea <__divsf3>
     954:	6cf050ef          	jal	ra,6822 <__fixsfsi>
     958:	46c2                	lw	a3,16(sp)
     95a:	030da783          	lw	a5,48(s11)
     95e:	01051713          	slli	a4,a0,0x10
     962:	000da503          	lw	a0,0(s11)
     966:	8741                	srai	a4,a4,0x10
     968:	7c868693          	addi	a3,a3,1992
     96c:	4609                	li	a2,2
     96e:	4591                	li	a1,4
     970:	9782                	jalr	a5
E:\Works\NSCAM\obj/../User/Main.c:285
            kl = 0;
     972:	4d81                	li	s11,0
E:\Works\NSCAM\obj/../User/Main.c:292
        if (GPIOB_ReadPortPin(GPIO_Pin_3) != 0 && kr == 1) {
     974:	0649a783          	lw	a5,100(s3)
     978:	8ba1                	andi	a5,a5,8
     97a:	d80785e3          	beqz	a5,704 <main+0x59c>
E:\Works\NSCAM\obj/../User/Main.c:292 (discriminator 1)
     97e:	47a2                	lw	a5,8(sp)
     980:	d80782e3          	beqz	a5,704 <main+0x59c>
E:\Works\NSCAM\obj/../User/Main.c:294
            shutter /= 2;
     984:	000077b7          	lui	a5,0x7
     988:	60c7a583          	lw	a1,1548(a5) # 760c <_sbrk+0x36>
     98c:	8552                	mv	a0,s4
     98e:	07d050ef          	jal	ra,620a <__mulsf3>
E:\Works\NSCAM\obj/../User/Main.c:295
            if (shutter < 0.1f / 512)
     992:	45f2                	lw	a1,28(sp)
E:\Works\NSCAM\obj/../User/Main.c:294
            shutter /= 2;
     994:	8a2a                	mv	s4,a0
E:\Works\NSCAM\obj/../User/Main.c:295
            if (shutter < 0.1f / 512)
     996:	7e8050ef          	jal	ra,617e <__lesf2>
     99a:	00055363          	bgez	a0,9a0 <__stack_size+0x1a0>
E:\Works\NSCAM\obj/../User/Main.c:296
                shutter = 0.1f / 512;
     99e:	4a72                	lw	s4,28(sp)
E:\Works\NSCAM\obj/../User/Main.c:297
            sensor_shutter(shutter);
     9a0:	8552                	mv	a0,s4
     9a2:	2699                	jal	ce8 <sensor_shutter>
E:\Works\NSCAM\obj/../User/Main.c:298
            oled->printf(oled->p, 4, 2, "1/%-4d", (int16_t) (1 / shutter));
     9a4:	409c                	lw	a5,0(s1)
     9a6:	5fcb2503          	lw	a0,1532(s6)
     9aa:	85d2                	mv	a1,s4
     9ac:	c43e                	sw	a5,8(sp)
     9ae:	43c050ef          	jal	ra,5dea <__divsf3>
     9b2:	671050ef          	jal	ra,6822 <__fixsfsi>
     9b6:	47a2                	lw	a5,8(sp)
     9b8:	46c2                	lw	a3,16(sp)
     9ba:	01051713          	slli	a4,a0,0x10
     9be:	0307a803          	lw	a6,48(a5)
     9c2:	4388                	lw	a0,0(a5)
     9c4:	8741                	srai	a4,a4,0x10
     9c6:	7c868693          	addi	a3,a3,1992
     9ca:	4609                	li	a2,2
     9cc:	4591                	li	a1,4
     9ce:	9802                	jalr	a6
E:\Works\NSCAM\obj/../User/Main.c:293
            kr = 0;
     9d0:	c402                	sw	zero,8(sp)
     9d2:	bb0d                	j	704 <main+0x59c>
E:\Works\NSCAM\obj/../User/Main.c:112
    else lcd->bitmapsc(lcd->p, 160, 120, 152, 32, get_nyaops_logo());
     9d4:	401c                	lw	a5,0(s0)
     9d6:	0007aa03          	lw	s4,0(a5)
     9da:	0587a983          	lw	s3,88(a5)
     9de:	285d                	jal	a94 <get_nyaops_logo>
     9e0:	87aa                	mv	a5,a0
     9e2:	02000713          	li	a4,32
     9e6:	09800693          	li	a3,152
     9ea:	07800613          	li	a2,120
     9ee:	0a000593          	li	a1,160
     9f2:	8552                	mv	a0,s4
     9f4:	9982                	jalr	s3
     9f6:	b239                	j	304 <main+0x19c>
E:\Works\NSCAM\obj/../User/Main.c:124
        if (DEBUG) lcd->printfa(lcd->p, "where is my card?\n");
     9f8:	00094783          	lbu	a5,0(s2)
     9fc:	9a078be3          	beqz	a5,3b2 <main+0x24a>
E:\Works\NSCAM\obj/../User/Main.c:124 (discriminator 1)
     a00:	401c                	lw	a5,0(s0)
     a02:	000075b7          	lui	a1,0x7
     a06:	66c58593          	addi	a1,a1,1644 # 766c <_sbrk+0x96>
     a0a:	57f8                	lw	a4,108(a5)
     a0c:	4388                	lw	a0,0(a5)
     a0e:	9702                	jalr	a4
     a10:	b271                	j	39c <main+0x234>
E:\Works\NSCAM\obj/../User/Main.c:159
                    if ((i % 64) == 0)
     a12:	03fa7793          	andi	a5,s4,63
     a16:	e799                	bnez	a5,a24 <__stack_size+0x224>
E:\Works\NSCAM\obj/../User/Main.c:160
                        lcd->printfa(lcd->p, ".");
     a18:	401c                	lw	a5,0(s0)
     a1a:	774b0593          	addi	a1,s6,1908
     a1e:	57f8                	lw	a4,108(a5)
     a20:	4388                	lw	a0,0(a5)
     a22:	9702                	jalr	a4
E:\Works\NSCAM\obj/../User/Main.c:150 (discriminator 2)
                for (int i = 0; i < 1024; i++) {
     a24:	0a05                	addi	s4,s4,1
     a26:	40000793          	li	a5,1024
     a2a:	b0fa19e3          	bne	s4,a5,53c <main+0x3d4>
     a2e:	be89                	j	580 <main+0x418>
E:\Works\NSCAM\obj/../User/Main.c:172
                f_open(&count, "COUNT.BIN", FA_WRITE | FA_CREATE_ALWAYS);
     a30:	778a8593          	addi	a1,s5,1912
     a34:	4629                	li	a2,10
     a36:	48010513          	addi	a0,sp,1152
     a3a:	612040ef          	jal	ra,504c <f_open>
E:\Works\NSCAM\obj/../User/Main.c:173
                f_write(&count, (void*) &snap_count, 4, &k);
     a3e:	6785                	lui	a5,0x1
     a40:	1018                	addi	a4,sp,32
     a42:	86078793          	addi	a5,a5,-1952 # 860 <__stack_size+0x60>
     a46:	7a898693          	addi	a3,s3,1960
     a4a:	97ba                	add	a5,a5,a4
     a4c:	96be                	add	a3,a3,a5
     a4e:	4611                	li	a2,4
     a50:	81818593          	addi	a1,gp,-2024 # 20000078 <snap_count>
     a54:	48010513          	addi	a0,sp,1152
     a58:	1b7040ef          	jal	ra,540e <f_write>
     a5c:	be71                	j	5f8 <main+0x490>
E:\Works\NSCAM\obj/../User/Main.c:177
            if (DEBUG) lcd->printfa(lcd->p, "fs fail, res: %02X\n", k);
     a5e:	bc0787e3          	beqz	a5,62c <main+0x4c4>
E:\Works\NSCAM\obj/../User/Main.c:177 (discriminator 1)
     a62:	401c                	lw	a5,0(s0)
     a64:	862a                	mv	a2,a0
     a66:	000075b7          	lui	a1,0x7
     a6a:	57f8                	lw	a4,108(a5)
     a6c:	4388                	lw	a0,0(a5)
     a6e:	79c58593          	addi	a1,a1,1948 # 779c <_sbrk+0x1c6>
     a72:	9702                	jalr	a4
     a74:	b671                	j	600 <main+0x498>
E:\Works\NSCAM\obj/../User/Main.c:227
                lcd->ctrl(lcd->p, 1);
     a76:	4b98                	lw	a4,16(a5)
     a78:	4388                	lw	a0,0(a5)
     a7a:	4585                	li	a1,1
E:\Works\NSCAM\obj/../User/Main.c:226
                state = TRUE;
     a7c:	4c05                	li	s8,1
E:\Works\NSCAM\obj/../User/Main.c:227
                lcd->ctrl(lcd->p, 1);
     a7e:	9702                	jalr	a4
E:\Works\NSCAM\obj/../User/Main.c:228
                lcd->light(lcd->p, 1);
     a80:	401c                	lw	a5,0(s0)
     a82:	4585                	li	a1,1
     a84:	47d8                	lw	a4,12(a5)
     a86:	4388                	lw	a0,0(a5)
     a88:	9702                	jalr	a4
     a8a:	b1e5                	j	772 <main+0x60a>
E:\Works\NSCAM\obj/../User/Main.c:242
        if (chg == 1) {
     a8c:	4785                	li	a5,1
     a8e:	d4fa98e3          	bne	s5,a5,7de <main+0x676>
     a92:	b335                	j	7be <main+0x656>

00000a94 <get_nyaops_logo>:
get_nyaops_logo():
E:\Works\NSCAM\obj/../User/nyaops.c:279
        0X00,0X00,0X00,0X00,0X00,0X00,0X00,0X00,0X0F,0X0F,0X0F,0X0F,0X0F,0X0F,0X0F,0X0F,
        0X0F,0X0F,0X0F,0X0F,0X0F,0X0F,0X0F,0X0F,0X0F,0X0F,0X0F,0X0F,0X00,0X00,0X00,0X00,
};

unsigned char* get_nyaops_logo() {
    return (unsigned char*) &nyaops_logo[0];
     a94:	651d                	lui	a0,0x7
E:\Works\NSCAM\obj/../User/nyaops.c:280
}
     a96:	7e450513          	addi	a0,a0,2020 # 77e4 <nyaops_logo>
     a9a:	8082                	ret

00000a9c <NMI_Handler>:
NMI_Handler():
E:\Works\NSCAM\obj/../Startup/startup_CH56x.S:87
    .weak   SERDES_IRQHandler
    .weak   ETH_IRQHandler
    .weak   PMT_IRQHandler
    .weak   ECDC_IRQHandler

NMI_Handler:  1:  j 1b
     a9c:	a001                	j	a9c <NMI_Handler>

00000a9e <HardFault_Handler>:
HardFault_Handler():
E:\Works\NSCAM\obj/../Startup/startup_CH56x.S:88
HardFault_Handler:  1:  j 1b
     a9e:	a001                	j	a9e <HardFault_Handler>

00000aa0 <SysTick_Handler>:
SysTick_Handler():
E:\Works\NSCAM\obj/../Startup/startup_CH56x.S:89
SysTick_Handler:  1:  j 1b
     aa0:	a001                	j	aa0 <SysTick_Handler>

00000aa2 <SWI_Handler>:
SWI_Handler():
E:\Works\NSCAM\obj/../Startup/startup_CH56x.S:90
SWI_Handler:  1:  j 1b
     aa2:	a001                	j	aa2 <SWI_Handler>

00000aa4 <WDOG_IRQHandler>:
WDOG_IRQHandler():
E:\Works\NSCAM\obj/../Startup/startup_CH56x.S:91
WDOG_IRQHandler:  1:  j 1b
     aa4:	a001                	j	aa4 <WDOG_IRQHandler>

00000aa6 <TMR0_IRQHandler>:
TMR0_IRQHandler():
E:\Works\NSCAM\obj/../Startup/startup_CH56x.S:92
TMR0_IRQHandler:  1:  j 1b
     aa6:	a001                	j	aa6 <TMR0_IRQHandler>

00000aa8 <GPIO_IRQHandler>:
GPIO_IRQHandler():
E:\Works\NSCAM\obj/../Startup/startup_CH56x.S:93
GPIO_IRQHandler:  1:  j 1b
     aa8:	a001                	j	aa8 <GPIO_IRQHandler>

00000aaa <SPI0_IRQHandler>:
SPI0_IRQHandler():
E:\Works\NSCAM\obj/../Startup/startup_CH56x.S:94
SPI0_IRQHandler:  1:  j 1b
     aaa:	a001                	j	aaa <SPI0_IRQHandler>

00000aac <USBSS_IRQHandler>:
USBSS_IRQHandler():
E:\Works\NSCAM\obj/../Startup/startup_CH56x.S:95
USBSS_IRQHandler:  1:  j 1b
     aac:	a001                	j	aac <USBSS_IRQHandler>

00000aae <LINK_IRQHandler>:
LINK_IRQHandler():
E:\Works\NSCAM\obj/../Startup/startup_CH56x.S:96
LINK_IRQHandler:  1:  j 1b
     aae:	a001                	j	aae <LINK_IRQHandler>

00000ab0 <TMR1_IRQHandler>:
TMR1_IRQHandler():
E:\Works\NSCAM\obj/../Startup/startup_CH56x.S:97
TMR1_IRQHandler:  1:  j 1b
     ab0:	a001                	j	ab0 <TMR1_IRQHandler>

00000ab2 <TMR2_IRQHandler>:
TMR2_IRQHandler():
E:\Works\NSCAM\obj/../Startup/startup_CH56x.S:98
TMR2_IRQHandler:  1:  j 1b
     ab2:	a001                	j	ab2 <TMR2_IRQHandler>

00000ab4 <UART0_IRQHandler>:
UART0_IRQHandler():
E:\Works\NSCAM\obj/../Startup/startup_CH56x.S:99
UART0_IRQHandler:  1:  j 1b
     ab4:	a001                	j	ab4 <UART0_IRQHandler>

00000ab6 <USBHS_IRQHandler>:
USBHS_IRQHandler():
E:\Works\NSCAM\obj/../Startup/startup_CH56x.S:100
USBHS_IRQHandler:  1:  j 1b
     ab6:	a001                	j	ab6 <USBHS_IRQHandler>

00000ab8 <EMMC_IRQHandler>:
EMMC_IRQHandler():
E:\Works\NSCAM\obj/../Startup/startup_CH56x.S:101
EMMC_IRQHandler:  1:  j 1b
     ab8:	a001                	j	ab8 <EMMC_IRQHandler>
E:\Works\NSCAM\obj/../Startup/startup_CH56x.S:102
DVP_IRQHandler:  1:  j 1b
     aba:	a001                	j	aba <EMMC_IRQHandler+0x2>

00000abc <HSPI_IRQHandler>:
HSPI_IRQHandler():
E:\Works\NSCAM\obj/../Startup/startup_CH56x.S:103
HSPI_IRQHandler:  1:  j 1b
     abc:	a001                	j	abc <HSPI_IRQHandler>

00000abe <SPI1_IRQHandler>:
SPI1_IRQHandler():
E:\Works\NSCAM\obj/../Startup/startup_CH56x.S:104
SPI1_IRQHandler:  1:  j 1b
     abe:	a001                	j	abe <SPI1_IRQHandler>

00000ac0 <UART1_IRQHandler>:
UART1_IRQHandler():
E:\Works\NSCAM\obj/../Startup/startup_CH56x.S:105
UART1_IRQHandler:  1:  j 1b
     ac0:	a001                	j	ac0 <UART1_IRQHandler>

00000ac2 <UART2_IRQHandler>:
UART2_IRQHandler():
E:\Works\NSCAM\obj/../Startup/startup_CH56x.S:106
UART2_IRQHandler:  1:  j 1b
     ac2:	a001                	j	ac2 <UART2_IRQHandler>

00000ac4 <UART3_IRQHandler>:
UART3_IRQHandler():
E:\Works\NSCAM\obj/../Startup/startup_CH56x.S:107
UART3_IRQHandler:  1:  j 1b
     ac4:	a001                	j	ac4 <UART3_IRQHandler>

00000ac6 <SERDES_IRQHandler>:
SERDES_IRQHandler():
E:\Works\NSCAM\obj/../Startup/startup_CH56x.S:108
SERDES_IRQHandler:  1:  j 1b
     ac6:	a001                	j	ac6 <SERDES_IRQHandler>

00000ac8 <ETH_IRQHandler>:
ETH_IRQHandler():
E:\Works\NSCAM\obj/../Startup/startup_CH56x.S:109
ETH_IRQHandler:  1:  j 1b
     ac8:	a001                	j	ac8 <ETH_IRQHandler>

00000aca <PMT_IRQHandler>:
PMT_IRQHandler():
E:\Works\NSCAM\obj/../Startup/startup_CH56x.S:110
PMT_IRQHandler:  1:  j 1b
     aca:	a001                	j	aca <PMT_IRQHandler>

00000acc <ECDC_IRQHandler>:
ECDC_IRQHandler():
E:\Works\NSCAM\obj/../Startup/startup_CH56x.S:111
ECDC_IRQHandler:  1:  j 1b
     acc:	a001                	j	acc <ECDC_IRQHandler>

00000ace <handle_reset>:
handle_reset():
E:\Works\NSCAM\obj/../Startup/startup_CH56x.S:119
	.weak	handle_reset
	.align	1
handle_reset:
.option push 
.option	norelax 
	la gp, __global_pointer$
     ace:	20000197          	auipc	gp,0x20000
     ad2:	d9218193          	addi	gp,gp,-622 # 20000860 <__global_pointer$>
E:\Works\NSCAM\obj/../Startup/startup_CH56x.S:122
.option	pop 
1:
	la sp, _eusrstack 
     ad6:	20003117          	auipc	sp,0x20003
     ada:	52a10113          	addi	sp,sp,1322 # 20004000 <_eusrstack>
E:\Works\NSCAM\obj/../Startup/startup_CH56x.S:126

/* Load data section from flash to RAM */
2:	
	la a0, _data_lma
     ade:	00008517          	auipc	a0,0x8
     ae2:	2f650513          	addi	a0,a0,758 # 8dd4 <_data_lma>
E:\Works\NSCAM\obj/../Startup/startup_CH56x.S:127
	la a1, _data_vma
     ae6:	1ffff597          	auipc	a1,0x1ffff
     aea:	51a58593          	addi	a1,a1,1306 # 20000000 <_data_vma>
E:\Works\NSCAM\obj/../Startup/startup_CH56x.S:128
	la a2, _edata
     aee:	80818613          	addi	a2,gp,-2040 # 20000068 <_edata>
E:\Works\NSCAM\obj/../Startup/startup_CH56x.S:129
	bgeu a1, a2, 2f
     af2:	00c5fa63          	bgeu	a1,a2,b06 <handle_reset+0x38>
E:\Works\NSCAM\obj/../Startup/startup_CH56x.S:131
1:
	lw t0, (a0)
     af6:	00052283          	lw	t0,0(a0)
E:\Works\NSCAM\obj/../Startup/startup_CH56x.S:132
	sw t0, (a1)
     afa:	0055a023          	sw	t0,0(a1)
E:\Works\NSCAM\obj/../Startup/startup_CH56x.S:133
	addi a0, a0, 4
     afe:	0511                	addi	a0,a0,4
E:\Works\NSCAM\obj/../Startup/startup_CH56x.S:134
	addi a1, a1, 4
     b00:	0591                	addi	a1,a1,4
E:\Works\NSCAM\obj/../Startup/startup_CH56x.S:135
	bltu a1, a2, 1b
     b02:	fec5eae3          	bltu	a1,a2,af6 <handle_reset+0x28>
E:\Works\NSCAM\obj/../Startup/startup_CH56x.S:138
2:
	/* clear bss section */
	la a0, _sbss
     b06:	80818513          	addi	a0,gp,-2040 # 20000068 <_edata>
E:\Works\NSCAM\obj/../Startup/startup_CH56x.S:139
	la a1, _ebss
     b0a:	dec18593          	addi	a1,gp,-532 # 2000064c <_ebss>
E:\Works\NSCAM\obj/../Startup/startup_CH56x.S:140
	bgeu a0, a1, 2f
     b0e:	00b57763          	bgeu	a0,a1,b1c <handle_reset+0x4e>
E:\Works\NSCAM\obj/../Startup/startup_CH56x.S:142
1:
	sw zero, (a0)
     b12:	00052023          	sw	zero,0(a0)
E:\Works\NSCAM\obj/../Startup/startup_CH56x.S:143
	addi a0, a0, 4
     b16:	0511                	addi	a0,a0,4
E:\Works\NSCAM\obj/../Startup/startup_CH56x.S:144
	bltu a0, a1, 1b
     b18:	feb56de3          	bltu	a0,a1,b12 <handle_reset+0x44>
E:\Works\NSCAM\obj/../Startup/startup_CH56x.S:149

/* clear dmadata section */

2:
    la a0, _dmadata_start
     b1c:	2001f517          	auipc	a0,0x2001f
     b20:	4e450513          	addi	a0,a0,1252 # 20020000 <sensor_buf_0>
E:\Works\NSCAM\obj/../Startup/startup_CH56x.S:150
    la a1, _dmadata_end
     b24:	2001f597          	auipc	a1,0x2001f
     b28:	4dc58593          	addi	a1,a1,1244 # 20020000 <sensor_buf_0>
E:\Works\NSCAM\obj/../Startup/startup_CH56x.S:151
    bgeu a0, a1, 2f
     b2c:	00b57763          	bgeu	a0,a1,b3a <handle_reset+0x6c>
E:\Works\NSCAM\obj/../Startup/startup_CH56x.S:153
1:
    sw zero, (a0)
     b30:	00052023          	sw	zero,0(a0)
E:\Works\NSCAM\obj/../Startup/startup_CH56x.S:154
    addi a0, a0, 4
     b34:	0511                	addi	a0,a0,4
E:\Works\NSCAM\obj/../Startup/startup_CH56x.S:155
    bltu a0, a1, 1b
     b36:	feb56de3          	bltu	a0,a1,b30 <handle_reset+0x62>
E:\Works\NSCAM\obj/../Startup/startup_CH56x.S:159
/**/
2:
	/* enable all interrupt */
    li t0, 0x88
     b3a:	08800293          	li	t0,136
E:\Works\NSCAM\obj/../Startup/startup_CH56x.S:160
    csrs mstatus, t0
     b3e:	3002a073          	csrs	mstatus,t0
E:\Works\NSCAM\obj/../Startup/startup_CH56x.S:161
	la t0, _vector_base
     b42:	fffff297          	auipc	t0,0xfffff
     b46:	4c228293          	addi	t0,t0,1218 # 4 <_einit>
E:\Works\NSCAM\obj/../Startup/startup_CH56x.S:162
    ori t0, t0, 1
     b4a:	0012e293          	ori	t0,t0,1
E:\Works\NSCAM\obj/../Startup/startup_CH56x.S:163
	csrw mtvec, t0
     b4e:	30529073          	csrw	mtvec,t0
E:\Works\NSCAM\obj/../Startup/startup_CH56x.S:164
	la t0, main
     b52:	fffff297          	auipc	t0,0xfffff
     b56:	61628293          	addi	t0,t0,1558 # 168 <main>
E:\Works\NSCAM\obj/../Startup/startup_CH56x.S:165
	csrw mepc, t0
     b5a:	34129073          	csrw	mepc,t0
E:\Works\NSCAM\obj/../Startup/startup_CH56x.S:168

	
	mret
     b5e:	30200073          	mret

00000b62 <sensor_clock>:
sensor_clock():
E:\Works\NSCAM\obj/../Sensor/mt9m001.c:26
volatile uint16_t sensor_buf_1[MT9M001_COLS / 2] __attribute__ ((section(".DMADATA")));
volatile uint16_t lcd_row_buf[320] = { 0 };
volatile uint16_t row_count = 0;
volatile uint16_t curr_ypos = 0;

void sensor_clock(uint32_t clk) {
     b62:	1141                	addi	sp,sp,-16
     b64:	c422                	sw	s0,8(sp)
     b66:	c226                	sw	s1,4(sp)
     b68:	c606                	sw	ra,12(sp)
     b6a:	842a                	mv	s0,a0
E:\Works\NSCAM\obj/../Sensor/mt9m001.c:27
    FMOS = clk;
     b6c:	635050ef          	jal	ra,69a0 <__floatunsisf>
     b70:	200004b7          	lui	s1,0x20000
E:\Works\NSCAM\obj/../Sensor/mt9m001.c:28
    TMR1_PWMCycleCfg(FREQ_SYS / clk);
     b74:	05b8e7b7          	lui	a5,0x5b8e
E:\Works\NSCAM\obj/../Sensor/mt9m001.c:27
    FMOS = clk;
     b78:	06a4a023          	sw	a0,96(s1) # 20000060 <FMOS>
E:\Works\NSCAM\obj/../Sensor/mt9m001.c:28
    TMR1_PWMCycleCfg(FREQ_SYS / clk);
     b7c:	80078793          	addi	a5,a5,-2048 # 5b8d800 <_data_lma+0x5b84a2c>
E:\Works\NSCAM\obj/../Sensor/mt9m001.c:29
    TMR1_PWMActDataWidth(FREQ_SYS / clk / 2);
     b80:	02dc7537          	lui	a0,0x2dc7
E:\Works\NSCAM\obj/../Sensor/mt9m001.c:28
    TMR1_PWMCycleCfg(FREQ_SYS / clk);
     b84:	0287d7b3          	divu	a5,a5,s0
E:\Works\NSCAM\obj/../Sensor/mt9m001.c:29
    TMR1_PWMActDataWidth(FREQ_SYS / clk / 2);
     b88:	c0050513          	addi	a0,a0,-1024 # 2dc6c00 <_data_lma+0x2dbde2c>
E:\Works\NSCAM\obj/../Sensor/mt9m001.c:28
    TMR1_PWMCycleCfg(FREQ_SYS / clk);
     b8c:	40002737          	lui	a4,0x40002
E:\Works\NSCAM\obj/../Sensor/mt9m001.c:30
}
     b90:	40b2                	lw	ra,12(sp)
     b92:	4492                	lw	s1,4(sp)
E:\Works\NSCAM\obj/../Sensor/mt9m001.c:29
    TMR1_PWMActDataWidth(FREQ_SYS / clk / 2);
     b94:	02855533          	divu	a0,a0,s0
E:\Works\NSCAM\obj/../Sensor/mt9m001.c:30
}
     b98:	4422                	lw	s0,8(sp)
E:\Works\NSCAM\obj/../Sensor/mt9m001.c:28
    TMR1_PWMCycleCfg(FREQ_SYS / clk);
     b9a:	40f72623          	sw	a5,1036(a4) # 4000240c <sensor_lcd_map+0x1ffe1a0c>
E:\Works\NSCAM\obj/../Sensor/mt9m001.c:29
    TMR1_PWMActDataWidth(FREQ_SYS / clk / 2);
     b9e:	40a72823          	sw	a0,1040(a4)
E:\Works\NSCAM\obj/../Sensor/mt9m001.c:30
}
     ba2:	0141                	addi	sp,sp,16
     ba4:	8082                	ret

00000ba6 <sensor_init>:
sensor_init():
E:\Works\NSCAM\obj/../Sensor/mt9m001.c:36

void sensor_init() {
    /*
     * TMR1 PB15
     * */
    GPIOB_ResetBits(GPIO_Pin_15);
     ba6:	40001737          	lui	a4,0x40001
     baa:	577c                	lw	a5,108(a4)
E:\Works\NSCAM\obj/../Sensor/mt9m001.c:32
void sensor_init() {
     bac:	1141                	addi	sp,sp,-16
E:\Works\NSCAM\obj/../Sensor/mt9m001.c:36
    GPIOB_ResetBits(GPIO_Pin_15);
     bae:	66a1                	lui	a3,0x8
     bb0:	8fd5                	or	a5,a5,a3
E:\Works\NSCAM\obj/../Sensor/mt9m001.c:32
void sensor_init() {
     bb2:	c606                	sw	ra,12(sp)
     bb4:	c422                	sw	s0,8(sp)
E:\Works\NSCAM\obj/../Sensor/mt9m001.c:36
    GPIOB_ResetBits(GPIO_Pin_15);
     bb6:	d77c                	sw	a5,108(a4)
E:\Works\NSCAM\obj/../Sensor/mt9m001.c:37
    GPIOB_ModeCfg(GPIO_Pin_15, GPIO_Highspeed_PP_8mA);
     bb8:	459d                	li	a1,7
     bba:	6521                	lui	a0,0x8
     bbc:	0d4010ef          	jal	ra,1c90 <GPIOB_ModeCfg>
E:\Works\NSCAM\obj/../Sensor/mt9m001.c:38
    TMR1_PWMInit(high_on_low, PWM_Times_1);
     bc0:	4581                	li	a1,0
     bc2:	4501                	li	a0,0
     bc4:	3fe010ef          	jal	ra,1fc2 <TMR1_PWMInit>
E:\Works\NSCAM\obj/../Sensor/mt9m001.c:39
    sensor_clock(NSCAM_FCMOSH);
     bc8:	016e3537          	lui	a0,0x16e3
     bcc:	60050513          	addi	a0,a0,1536 # 16e3600 <_data_lma+0x16da82c>
     bd0:	3f49                	jal	b62 <sensor_clock>
E:\Works\NSCAM\obj/../Sensor/mt9m001.c:40
    mDelaymS(100);
     bd2:	06400513          	li	a0,100
     bd6:	3c2010ef          	jal	ra,1f98 <mDelaymS>
gen_sensor_lcd_map():
E:\Works\NSCAM\obj/../Sensor/mt9m001.c:14
    for (uint16_t i = 0; i < SEN_LCD_MAP_SIZ; i++) {
     bda:	67a1                	lui	a5,0x8
E:\Works\NSCAM\obj/../Sensor/mt9m001.c:15
        sensor_lcd_map[i] = __color_map[i];
     bdc:	20021637          	lui	a2,0x20021
     be0:	a4478793          	addi	a5,a5,-1468 # 7a44 <__color_map>
sensor_init():
E:\Works\NSCAM\obj/../Sensor/mt9m001.c:40
    mDelaymS(100);
     be4:	4701                	li	a4,0
gen_sensor_lcd_map():
E:\Works\NSCAM\obj/../Sensor/mt9m001.c:15
        sensor_lcd_map[i] = __color_map[i];
     be6:	a0060613          	addi	a2,a2,-1536 # 20020a00 <sensor_lcd_map>
E:\Works\NSCAM\obj/../Sensor/mt9m001.c:14
    for (uint16_t i = 0; i < SEN_LCD_MAP_SIZ; i++) {
     bea:	40000593          	li	a1,1024
E:\Works\NSCAM\obj/../Sensor/mt9m001.c:15
        sensor_lcd_map[i] = __color_map[i];
     bee:	0007d503          	lhu	a0,0(a5)
     bf2:	00171693          	slli	a3,a4,0x1
     bf6:	96b2                	add	a3,a3,a2
     bf8:	00a69023          	sh	a0,0(a3) # 8000 <__color_map+0x5bc>
     bfc:	0705                	addi	a4,a4,1
     bfe:	0789                	addi	a5,a5,2
E:\Works\NSCAM\obj/../Sensor/mt9m001.c:14
    for (uint16_t i = 0; i < SEN_LCD_MAP_SIZ; i++) {
     c00:	feb717e3          	bne	a4,a1,bee <sensor_init+0x48>
sensor_init():
E:\Works\NSCAM\obj/../Sensor/mt9m001.c:44

    gen_sensor_lcd_map();

    R8_DVP_CR0 |= (RB_DVP_V_POLAR | RB_DVP_D10_MOD);
     c04:	4000e437          	lui	s0,0x4000e
     c08:	00044783          	lbu	a5,0(s0) # 4000e000 <sensor_lcd_map+0x1ffed600>
     c0c:	0127e793          	ori	a5,a5,18
     c10:	00f40023          	sb	a5,0(s0)
E:\Works\NSCAM\obj/../Sensor/mt9m001.c:45
    R8_DVP_CR1 &= ~(RB_DVP_ALL_CLR | RB_DVP_RCV_CLR);
     c14:	00144783          	lbu	a5,1(s0)
     c18:	0f97f793          	andi	a5,a5,249
     c1c:	00f400a3          	sb	a5,1(s0)
E:\Works\NSCAM\obj/../Sensor/mt9m001.c:46
    R16_DVP_COL_NUM = MT9M001_COLS / 2;
     c20:	28000793          	li	a5,640
     c24:	00f41323          	sh	a5,6(s0)
E:\Works\NSCAM\obj/../Sensor/mt9m001.c:47
    R16_DVP_ROW_NUM = MT9M001_ROWS / 2;
     c28:	20000793          	li	a5,512
     c2c:	00f41223          	sh	a5,4(s0)
E:\Works\NSCAM\obj/../Sensor/mt9m001.c:48
    R32_DVP_DMA_BUF0 = (uint32_t) &sensor_buf_0;
     c30:	200207b7          	lui	a5,0x20020
     c34:	00078793          	mv	a5,a5
     c38:	c41c                	sw	a5,8(s0)
E:\Works\NSCAM\obj/../Sensor/mt9m001.c:49
    R32_DVP_DMA_BUF1 = (uint32_t) &sensor_buf_1;
     c3a:	50078793          	addi	a5,a5,1280 # 20020500 <sensor_buf_1>
     c3e:	c45c                	sw	a5,12(s0)
E:\Works\NSCAM\obj/../Sensor/mt9m001.c:50
    R8_DVP_INT_EN |= (RB_DVP_IE_ROW_DONE | RB_DVP_IE_FRM_DONE | RB_DVP_IE_STR_FRM | RB_DVP_IE_STP_FRM | RB_DVP_IE_FIFO_OV);
     c40:	00244783          	lbu	a5,2(s0)
     c44:	01f7e793          	ori	a5,a5,31
     c48:	00f40123          	sb	a5,2(s0)
E:\Works\NSCAM\obj/../Sensor/mt9m001.c:52

    sccb_init();
     c4c:	29b9                	jal	10aa <sccb_init>
E:\Works\NSCAM\obj/../Sensor/mt9m001.c:54

    sccb_write(0x0D, 0x0001);               //Reset
     c4e:	4585                	li	a1,1
     c50:	4535                	li	a0,13
     c52:	21bd                	jal	10c0 <sccb_write>
E:\Works\NSCAM\obj/../Sensor/mt9m001.c:55
    sccb_write(0x0D, 0x0000);
     c54:	4581                	li	a1,0
     c56:	4535                	li	a0,13
     c58:	21a5                	jal	10c0 <sccb_write>
E:\Works\NSCAM\obj/../Sensor/mt9m001.c:56
    mDelaymS(100);
     c5a:	06400513          	li	a0,100
     c5e:	33a010ef          	jal	ra,1f98 <mDelaymS>
E:\Works\NSCAM\obj/../Sensor/mt9m001.c:58

    sccb_write(0x01, 12);                   //Row Start,        Default 0x000C, 12+(1024-720)/2=164
     c62:	45b1                	li	a1,12
     c64:	4505                	li	a0,1
     c66:	29a9                	jal	10c0 <sccb_write>
E:\Works\NSCAM\obj/../Sensor/mt9m001.c:59
    sccb_write(0x02, 20);                   //Column Start,     Default 0x0014
     c68:	45d1                	li	a1,20
     c6a:	4509                	li	a0,2
     c6c:	2991                	jal	10c0 <sccb_write>
E:\Works\NSCAM\obj/../Sensor/mt9m001.c:60
    sccb_write(0x03, MT9M001_ROWS - 1);     //Row Width,        Default 0x03FF, 0x02CF = 720  - 1
     c6e:	3ff00593          	li	a1,1023
     c72:	450d                	li	a0,3
     c74:	21b1                	jal	10c0 <sccb_write>
E:\Works\NSCAM\obj/../Sensor/mt9m001.c:61
    sccb_write(0x04, MT9M001_COLS - 1);     //Column Width,     Default 0x04FF, 0x3FFF = 1280 - 1
     c76:	4ff00593          	li	a1,1279
     c7a:	4511                	li	a0,4
     c7c:	2191                	jal	10c0 <sccb_write>
E:\Works\NSCAM\obj/../Sensor/mt9m001.c:62
    sccb_write(0x05, HBLK);                 //Hor Blanking,     Default 0x0009, 0x0009 = 9
     c7e:	7ff00593          	li	a1,2047
     c82:	4515                	li	a0,5
     c84:	2935                	jal	10c0 <sccb_write>
E:\Works\NSCAM\obj/../Sensor/mt9m001.c:63
    sccb_write(0x06, 0x0019);               //Ver Blanking,     Default 0x0019, 26 rows
     c86:	45e5                	li	a1,25
     c88:	4519                	li	a0,6
     c8a:	291d                	jal	10c0 <sccb_write>
E:\Works\NSCAM\obj/../Sensor/mt9m001.c:65

    sccb_write(0x09, 0x0419);               //Shutter Width L,  Default 0x0419 = 1049
     c8c:	41900593          	li	a1,1049
     c90:	4525                	li	a0,9
     c92:	213d                	jal	10c0 <sccb_write>
E:\Works\NSCAM\obj/../Sensor/mt9m001.c:66
    sccb_write(0x0C, 0);                    //Shutter Delay,    Default 0x0000
     c94:	4581                	li	a1,0
     c96:	4531                	li	a0,12
     c98:	2125                	jal	10c0 <sccb_write>
E:\Works\NSCAM\obj/../Sensor/mt9m001.c:72
    /*
     * 0x1E=0x800C, 0x20=0x9104, FCMOS=12MHz, 320x256160x128
     * 0x1E=0x8000, 0x20=0x911C, FCMOS=24MHz, 640x512320x256
     * 
     * */
    sccb_write(0x1E, 0x8000);               //Read Mode 1
     c9a:	65a1                	lui	a1,0x8
     c9c:	4579                	li	a0,30
     c9e:	210d                	jal	10c0 <sccb_write>
E:\Works\NSCAM\obj/../Sensor/mt9m001.c:73
    sccb_write(0x20, 0x911C);               //Read Mode 2
     ca0:	65a5                	lui	a1,0x9
     ca2:	11c58593          	addi	a1,a1,284 # 911c <_data_lma+0x348>
     ca6:	02000513          	li	a0,32
     caa:	2919                	jal	10c0 <sccb_write>
E:\Works\NSCAM\obj/../Sensor/mt9m001.c:74
    sccb_write(0x35, 0x0008);               //Global Gain,      Default 0x0008; 0x08-0x20:1-4;0x51-0x60:4.25-8;0x61-0x67:9-15
     cac:	45a1                	li	a1,8
     cae:	03500513          	li	a0,53
     cb2:	2139                	jal	10c0 <sccb_write>
E:\Works\NSCAM\obj/../Sensor/mt9m001.c:75
    mDelaymS(100);
     cb4:	06400513          	li	a0,100
     cb8:	2e0010ef          	jal	ra,1f98 <mDelaymS>
PFIC_EnableIRQ():
E:\Works\NSCAM\RVMSIS/core_riscv.h:90
* Description    : Enable Interrupt
* Input          : IRQn: Interrupt Numbers
* Return         : None
*******************************************************************************/
RV_STATIC_INLINE void PFIC_EnableIRQ(IRQn_Type IRQn){
    PFIC->IENR[((UINT32)(IRQn) >> 5)] = (1 << ((UINT32)(IRQn) & 0x1F));
     cbc:	e000e7b7          	lui	a5,0xe000e
     cc0:	08000737          	lui	a4,0x8000
     cc4:	10e7a023          	sw	a4,256(a5) # e000e100 <sensor_lcd_map+0xbffed700>
sensor_init():
E:\Works\NSCAM\obj/../Sensor/mt9m001.c:78

    PFIC_EnableIRQ(DVP_IRQn);
    R8_DVP_CR1 |= RB_DVP_DMA_EN;
     cc8:	00144783          	lbu	a5,1(s0)
     ccc:	0017e793          	ori	a5,a5,1
     cd0:	00f400a3          	sb	a5,1(s0)
E:\Works\NSCAM\obj/../Sensor/mt9m001.c:79
    R8_DVP_CR0 |= RB_DVP_ENABLE;
     cd4:	00044783          	lbu	a5,0(s0)
     cd8:	0017e793          	ori	a5,a5,1
     cdc:	00f40023          	sb	a5,0(s0)
E:\Works\NSCAM\obj/../Sensor/mt9m001.c:80
}
     ce0:	40b2                	lw	ra,12(sp)
     ce2:	4422                	lw	s0,8(sp)
     ce4:	0141                	addi	sp,sp,16
     ce6:	8082                	ret

00000ce8 <sensor_shutter>:
sensor_shutter():
E:\Works\NSCAM\obj/../Sensor/mt9m001.c:82

void sensor_shutter(float width) {
     ce8:	1141                	addi	sp,sp,-16
E:\Works\NSCAM\obj/../Sensor/mt9m001.c:83
    if (width < 0) width = -width;
     cea:	00000593          	li	a1,0
E:\Works\NSCAM\obj/../Sensor/mt9m001.c:82
void sensor_shutter(float width) {
     cee:	c422                	sw	s0,8(sp)
     cf0:	c606                	sw	ra,12(sp)
     cf2:	c226                	sw	s1,4(sp)
     cf4:	842a                	mv	s0,a0
E:\Works\NSCAM\obj/../Sensor/mt9m001.c:83
    if (width < 0) width = -width;
     cf6:	488050ef          	jal	ra,617e <__lesf2>
     cfa:	00055563          	bgez	a0,d04 <sensor_shutter+0x1c>
E:\Works\NSCAM\obj/../Sensor/mt9m001.c:83 (discriminator 1)
     cfe:	800007b7          	lui	a5,0x80000
     d02:	8c3d                	xor	s0,s0,a5
E:\Works\NSCAM\obj/../Sensor/mt9m001.c:84
    if (width == 0) width = 1;
     d04:	00000593          	li	a1,0
     d08:	8522                	mv	a0,s0
     d0a:	392050ef          	jal	ra,609c <__eqsf2>
     d0e:	e509                	bnez	a0,d18 <sensor_shutter+0x30>
     d10:	000077b7          	lui	a5,0x7
     d14:	5fc7a403          	lw	s0,1532(a5) # 75fc <_sbrk+0x26>
E:\Works\NSCAM\obj/../Sensor/mt9m001.c:85
    int value = (int) (width / TROW);
     d18:	200007b7          	lui	a5,0x20000
     d1c:	000084b7          	lui	s1,0x8
     d20:	2504a583          	lw	a1,592(s1) # 8250 <__color_map+0x80c>
     d24:	0607a503          	lw	a0,96(a5) # 20000060 <FMOS>
     d28:	0c2050ef          	jal	ra,5dea <__divsf3>
     d2c:	000087b7          	lui	a5,0x8
     d30:	85aa                	mv	a1,a0
     d32:	2547a503          	lw	a0,596(a5) # 8254 <__color_map+0x810>
     d36:	0b4050ef          	jal	ra,5dea <__divsf3>
     d3a:	2504a583          	lw	a1,592(s1)
     d3e:	0ac050ef          	jal	ra,5dea <__divsf3>
     d42:	85aa                	mv	a1,a0
     d44:	8522                	mv	a0,s0
     d46:	0a4050ef          	jal	ra,5dea <__divsf3>
     d4a:	2d9050ef          	jal	ra,6822 <__fixsfsi>
E:\Works\NSCAM\obj/../Sensor/mt9m001.c:87
    if (value > 0xFFFF) value = 0xFFFF;
    sccb_write(0x09, ((uint32_t) value) & 0xFFFF);
     d4e:	67c1                	lui	a5,0x10
     d50:	00f54463          	blt	a0,a5,d58 <sensor_shutter+0x70>
     d54:	fff78513          	addi	a0,a5,-1 # ffff <_data_lma+0x722b>
E:\Works\NSCAM\obj/../Sensor/mt9m001.c:88
}
     d58:	4422                	lw	s0,8(sp)
     d5a:	40b2                	lw	ra,12(sp)
     d5c:	4492                	lw	s1,4(sp)
E:\Works\NSCAM\obj/../Sensor/mt9m001.c:87
    sccb_write(0x09, ((uint32_t) value) & 0xFFFF);
     d5e:	01051593          	slli	a1,a0,0x10
     d62:	81c1                	srli	a1,a1,0x10
     d64:	4525                	li	a0,9
E:\Works\NSCAM\obj/../Sensor/mt9m001.c:88
}
     d66:	0141                	addi	sp,sp,16
E:\Works\NSCAM\obj/../Sensor/mt9m001.c:87
    sccb_write(0x09, ((uint32_t) value) & 0xFFFF);
     d68:	aea1                	j	10c0 <sccb_write>

00000d6a <sensor_gain>:
sensor_gain():
E:\Works\NSCAM\obj/../Sensor/mt9m001.c:90

void sensor_gain(float g) {
     d6a:	1141                	addi	sp,sp,-16
E:\Works\NSCAM\obj/../Sensor/mt9m001.c:92
    uint16_t dat = 0x0008;
    if (g < 0) g = 1;
     d6c:	00000593          	li	a1,0
E:\Works\NSCAM\obj/../Sensor/mt9m001.c:90
void sensor_gain(float g) {
     d70:	c422                	sw	s0,8(sp)
     d72:	c226                	sw	s1,4(sp)
     d74:	c606                	sw	ra,12(sp)
     d76:	842a                	mv	s0,a0
E:\Works\NSCAM\obj/../Sensor/mt9m001.c:92
    if (g < 0) g = 1;
     d78:	406050ef          	jal	ra,617e <__lesf2>
     d7c:	000084b7          	lui	s1,0x8
     d80:	02054c63          	bltz	a0,db8 <sensor_gain+0x4e>
E:\Works\NSCAM\obj/../Sensor/mt9m001.c:93
    if (g <= 4)
     d84:	000087b7          	lui	a5,0x8
     d88:	2447a583          	lw	a1,580(a5) # 8244 <__color_map+0x800>
     d8c:	8522                	mv	a0,s0
     d8e:	3f0050ef          	jal	ra,617e <__lesf2>
     d92:	02a04863          	bgtz	a0,dc2 <sensor_gain+0x58>
E:\Works\NSCAM\obj/../Sensor/mt9m001.c:94
        dat = (uint16_t) (g / 0.125f);
     d96:	2484a583          	lw	a1,584(s1) # 8248 <__color_map+0x804>
     d9a:	8522                	mv	a0,s0
     d9c:	46e050ef          	jal	ra,620a <__mulsf3>
     da0:	2e5050ef          	jal	ra,6884 <__fixunssfsi>
     da4:	01051593          	slli	a1,a0,0x10
     da8:	81c1                	srli	a1,a1,0x10
E:\Works\NSCAM\obj/../Sensor/mt9m001.c:104
        float gd = g / 8;
        dat = ((uint16_t)((gd - 1) * 8) & 0x7F) << 8;
        dat |= 0x7F;
    }
    sccb_write(0x35, dat);
}
     daa:	4422                	lw	s0,8(sp)
     dac:	40b2                	lw	ra,12(sp)
     dae:	4492                	lw	s1,4(sp)
E:\Works\NSCAM\obj/../Sensor/mt9m001.c:103
    sccb_write(0x35, dat);
     db0:	03500513          	li	a0,53
E:\Works\NSCAM\obj/../Sensor/mt9m001.c:104
}
     db4:	0141                	addi	sp,sp,16
E:\Works\NSCAM\obj/../Sensor/mt9m001.c:103
    sccb_write(0x35, dat);
     db6:	a629                	j	10c0 <sccb_write>
E:\Works\NSCAM\obj/../Sensor/mt9m001.c:92
    if (g < 0) g = 1;
     db8:	000077b7          	lui	a5,0x7
     dbc:	5fc7a403          	lw	s0,1532(a5) # 75fc <_sbrk+0x26>
     dc0:	bfd9                	j	d96 <sensor_gain+0x2c>
E:\Works\NSCAM\obj/../Sensor/mt9m001.c:95
    else if (g <= 8) {
     dc2:	2484a483          	lw	s1,584(s1)
     dc6:	8522                	mv	a0,s0
     dc8:	85a6                	mv	a1,s1
     dca:	3b4050ef          	jal	ra,617e <__lesf2>
     dce:	02a04363          	bgtz	a0,df4 <sensor_gain+0x8a>
E:\Works\NSCAM\obj/../Sensor/mt9m001.c:96
        dat = (uint16_t) (g / 2 / 0.125f);
     dd2:	000077b7          	lui	a5,0x7
     dd6:	60c7a583          	lw	a1,1548(a5) # 760c <_sbrk+0x36>
     dda:	8522                	mv	a0,s0
     ddc:	42e050ef          	jal	ra,620a <__mulsf3>
     de0:	85a6                	mv	a1,s1
     de2:	428050ef          	jal	ra,620a <__mulsf3>
     de6:	29f050ef          	jal	ra,6884 <__fixunssfsi>
     dea:	0542                	slli	a0,a0,0x10
     dec:	8141                	srli	a0,a0,0x10
E:\Works\NSCAM\obj/../Sensor/mt9m001.c:97
        dat |= 0x40;
     dee:	04056593          	ori	a1,a0,64
     df2:	bf65                	j	daa <sensor_gain+0x40>
E:\Works\NSCAM\obj/../Sensor/mt9m001.c:99
        float gd = g / 8;
     df4:	000087b7          	lui	a5,0x8
     df8:	24c7a583          	lw	a1,588(a5) # 824c <__color_map+0x808>
     dfc:	8522                	mv	a0,s0
     dfe:	40c050ef          	jal	ra,620a <__mulsf3>
E:\Works\NSCAM\obj/../Sensor/mt9m001.c:100
        dat = ((uint16_t)((gd - 1) * 8) & 0x7F) << 8;
     e02:	000077b7          	lui	a5,0x7
     e06:	5fc7a583          	lw	a1,1532(a5) # 75fc <_sbrk+0x26>
     e0a:	690050ef          	jal	ra,649a <__subsf3>
     e0e:	85a6                	mv	a1,s1
     e10:	3fa050ef          	jal	ra,620a <__mulsf3>
     e14:	271050ef          	jal	ra,6884 <__fixunssfsi>
     e18:	01051593          	slli	a1,a0,0x10
     e1c:	81c1                	srli	a1,a1,0x10
     e1e:	6521                	lui	a0,0x8
     e20:	05a2                	slli	a1,a1,0x8
     e22:	f0050513          	addi	a0,a0,-256 # 7f00 <__color_map+0x4bc>
     e26:	8de9                	and	a1,a1,a0
     e28:	05c2                	slli	a1,a1,0x10
     e2a:	81c1                	srli	a1,a1,0x10
E:\Works\NSCAM\obj/../Sensor/mt9m001.c:101
        dat |= 0x7F;
     e2c:	07f5e593          	ori	a1,a1,127
     e30:	bfad                	j	daa <sensor_gain+0x40>

00000e32 <sensor_get_buf>:
sensor_get_buf():
E:\Works\NSCAM\obj/../Sensor/mt9m001.c:117
    sensor_clock(NSCAM_FCMOSL);
    sccb_write(0x1E, 0x8100);
}

uint16_t* sensor_get_buf(uint16_t* ypos) {
    if (curr_ypos != 0xAAAA) {
     e32:	81c18793          	addi	a5,gp,-2020 # 2000007c <curr_ypos>
     e36:	0007d683          	lhu	a3,0(a5)
     e3a:	672d                	lui	a4,0xb
     e3c:	aaa70713          	addi	a4,a4,-1366 # aaaa <_data_lma+0x1cd6>
     e40:	00d70963          	beq	a4,a3,e52 <sensor_get_buf+0x20>
E:\Works\NSCAM\obj/../Sensor/mt9m001.c:118
        *ypos = curr_ypos;
     e44:	0007d783          	lhu	a5,0(a5)
     e48:	00f51023          	sh	a5,0(a0)
E:\Works\NSCAM\obj/../Sensor/mt9m001.c:119
        return (uint16_t*) &lcd_row_buf[0];
     e4c:	a6818513          	addi	a0,gp,-1432 # 200002c8 <lcd_row_buf>
     e50:	8082                	ret
E:\Works\NSCAM\obj/../Sensor/mt9m001.c:121
    }
    return NULL;
     e52:	4501                	li	a0,0
E:\Works\NSCAM\obj/../Sensor/mt9m001.c:122
}
     e54:	8082                	ret

00000e56 <sensor_req_buf>:
sensor_req_buf():
E:\Works\NSCAM\obj/../Sensor/mt9m001.c:125

void sensor_req_buf() {
    curr_ypos = 0xAAAA;
     e56:	77ed                	lui	a5,0xffffb
     e58:	aaa78793          	addi	a5,a5,-1366 # ffffaaaa <sensor_lcd_map+0xdffda0aa>
     e5c:	80f19e23          	sh	a5,-2020(gp) # 2000007c <curr_ypos>
E:\Works\NSCAM\obj/../Sensor/mt9m001.c:126
}
     e60:	8082                	ret

00000e62 <DVP_IRQHandler>:
DVP_IRQHandler():
E:\Works\NSCAM\obj/../Sensor/mt9m001.c:129

void DVP_IRQHandler() {
    if (R8_DVP_INT_FLAG & RB_DVP_IF_ROW_DONE) {
     e62:	4000e737          	lui	a4,0x4000e
     e66:	01074783          	lbu	a5,16(a4) # 4000e010 <sensor_lcd_map+0x1ffed610>
     e6a:	8b89                	andi	a5,a5,2
     e6c:	c3dd                	beqz	a5,f12 <DVP_IRQHandler+0xb0>
E:\Works\NSCAM\obj/../Sensor/mt9m001.c:130
        R8_DVP_INT_FLAG = RB_DVP_IF_ROW_DONE;
     e6e:	4789                	li	a5,2
     e70:	00f70823          	sb	a5,16(a4)
E:\Works\NSCAM\obj/../Sensor/mt9m001.c:132

        uint16_t* ptr = (uint16_t*) (((row_count & 0x0001) != 0) ? sensor_buf_1 : sensor_buf_0);
     e74:	81e18793          	addi	a5,gp,-2018 # 2000007e <row_count>
     e78:	0007d783          	lhu	a5,0(a5)
     e7c:	200206b7          	lui	a3,0x20020
     e80:	00068893          	mv	a7,a3
     e84:	8b85                	andi	a5,a5,1
     e86:	81e18713          	addi	a4,gp,-2018 # 2000007e <row_count>
     e8a:	50088893          	addi	a7,a7,1280
     e8e:	e399                	bnez	a5,e94 <DVP_IRQHandler+0x32>
     e90:	00068893          	mv	a7,a3
E:\Works\NSCAM\obj/../Sensor/mt9m001.c:134 (discriminator 4)

        if (curr_ypos == 0xAAAA && (row_count & 0x0001) != 0) {
     e94:	81c18793          	addi	a5,gp,-2020 # 2000007c <curr_ypos>
     e98:	0007d603          	lhu	a2,0(a5)
     e9c:	67ad                	lui	a5,0xb
     e9e:	aaa78793          	addi	a5,a5,-1366 # aaaa <_data_lma+0x1cd6>
     ea2:	81c18813          	addi	a6,gp,-2020 # 2000007c <curr_ypos>
     ea6:	04c79f63          	bne	a5,a2,f04 <DVP_IRQHandler+0xa2>
E:\Works\NSCAM\obj/../Sensor/mt9m001.c:134 (discriminator 1)
     eaa:	00075783          	lhu	a5,0(a4)
     eae:	8b85                	andi	a5,a5,1
     eb0:	cbb1                	beqz	a5,f04 <DVP_IRQHandler+0xa2>
E:\Works\NSCAM\obj/../Sensor/mt9m001.c:139
            uint16_t k;
            for (uint16_t i = 0; i < 320; i++) {
                k = 640 - 1 - (i << 1);
                k = ptr[k] & 0x3FF;
                lcd_row_buf[i] = sensor_lcd_map[k];
     eb2:	20021537          	lui	a0,0x20021
     eb6:	4681                	li	a3,0
E:\Works\NSCAM\obj/../Sensor/mt9m001.c:138
                k = ptr[k] & 0x3FF;
     eb8:	5e79                	li	t3,-2
E:\Works\NSCAM\obj/../Sensor/mt9m001.c:139
                lcd_row_buf[i] = sensor_lcd_map[k];
     eba:	a0050513          	addi	a0,a0,-1536 # 20020a00 <sensor_lcd_map>
     ebe:	a6818593          	addi	a1,gp,-1432 # 200002c8 <lcd_row_buf>
E:\Works\NSCAM\obj/../Sensor/mt9m001.c:136
            for (uint16_t i = 0; i < 320; i++) {
     ec2:	14000313          	li	t1,320
E:\Works\NSCAM\obj/../Sensor/mt9m001.c:138 (discriminator 3)
                k = ptr[k] & 0x3FF;
     ec6:	03c687b3          	mul	a5,a3,t3
     eca:	27f78793          	addi	a5,a5,639
     ece:	07c2                	slli	a5,a5,0x10
     ed0:	83c1                	srli	a5,a5,0x10
     ed2:	0786                	slli	a5,a5,0x1
     ed4:	97c6                	add	a5,a5,a7
     ed6:	0007d783          	lhu	a5,0(a5)
E:\Works\NSCAM\obj/../Sensor/mt9m001.c:139 (discriminator 3)
                lcd_row_buf[i] = sensor_lcd_map[k];
     eda:	3ff7f793          	andi	a5,a5,1023
     ede:	0786                	slli	a5,a5,0x1
     ee0:	97aa                	add	a5,a5,a0
     ee2:	0007d603          	lhu	a2,0(a5)
     ee6:	00169793          	slli	a5,a3,0x1
     eea:	97ae                	add	a5,a5,a1
     eec:	0642                	slli	a2,a2,0x10
     eee:	8241                	srli	a2,a2,0x10
     ef0:	00c79023          	sh	a2,0(a5)
     ef4:	0685                	addi	a3,a3,1
E:\Works\NSCAM\obj/../Sensor/mt9m001.c:136 (discriminator 3)
            for (uint16_t i = 0; i < 320; i++) {
     ef6:	fc6698e3          	bne	a3,t1,ec6 <DVP_IRQHandler+0x64>
E:\Works\NSCAM\obj/../Sensor/mt9m001.c:142
            }

            curr_ypos = row_count >> 1;
     efa:	00075783          	lhu	a5,0(a4)
     efe:	8385                	srli	a5,a5,0x1
     f00:	00f81023          	sh	a5,0(a6) # 7000 <_svfiprintf_r+0xd2>
E:\Works\NSCAM\obj/../Sensor/mt9m001.c:145
        }

        row_count += 1;
     f04:	00075783          	lhu	a5,0(a4)
     f08:	0785                	addi	a5,a5,1
     f0a:	07c2                	slli	a5,a5,0x10
     f0c:	83c1                	srli	a5,a5,0x10
     f0e:	00f71023          	sh	a5,0(a4)
E:\Works\NSCAM\obj/../Sensor/mt9m001.c:148
    }

    if (R8_DVP_INT_FLAG & RB_DVP_IF_FRM_DONE) {
     f12:	4000e737          	lui	a4,0x4000e
     f16:	01074783          	lbu	a5,16(a4) # 4000e010 <sensor_lcd_map+0x1ffed610>
     f1a:	8b91                	andi	a5,a5,4
     f1c:	c781                	beqz	a5,f24 <DVP_IRQHandler+0xc2>
E:\Works\NSCAM\obj/../Sensor/mt9m001.c:149
        R8_DVP_INT_FLAG = RB_DVP_IF_FRM_DONE;
     f1e:	4791                	li	a5,4
     f20:	00f70823          	sb	a5,16(a4)
E:\Works\NSCAM\obj/../Sensor/mt9m001.c:153

    }

    if (R8_DVP_INT_FLAG & RB_DVP_IF_STR_FRM) {
     f24:	4000e737          	lui	a4,0x4000e
     f28:	01074783          	lbu	a5,16(a4) # 4000e010 <sensor_lcd_map+0x1ffed610>
     f2c:	8b85                	andi	a5,a5,1
     f2e:	c791                	beqz	a5,f3a <DVP_IRQHandler+0xd8>
E:\Works\NSCAM\obj/../Sensor/mt9m001.c:154
        R8_DVP_INT_FLAG = RB_DVP_IF_STR_FRM;
     f30:	4785                	li	a5,1
     f32:	00f70823          	sb	a5,16(a4)
E:\Works\NSCAM\obj/../Sensor/mt9m001.c:156

        row_count = 0;
     f36:	80019f23          	sh	zero,-2018(gp) # 2000007e <row_count>
E:\Works\NSCAM\obj/../Sensor/mt9m001.c:159
    }

    if (R8_DVP_INT_FLAG & RB_DVP_IF_STP_FRM) {
     f3a:	4000e737          	lui	a4,0x4000e
     f3e:	01074783          	lbu	a5,16(a4) # 4000e010 <sensor_lcd_map+0x1ffed610>
     f42:	8bc1                	andi	a5,a5,16
     f44:	c781                	beqz	a5,f4c <DVP_IRQHandler+0xea>
E:\Works\NSCAM\obj/../Sensor/mt9m001.c:160
        R8_DVP_INT_FLAG = RB_DVP_IF_STP_FRM;
     f46:	47c1                	li	a5,16
     f48:	00f70823          	sb	a5,16(a4)
E:\Works\NSCAM\obj/../Sensor/mt9m001.c:164

    }

    if (R8_DVP_INT_FLAG & RB_DVP_IF_FIFO_OV) {
     f4c:	4000e737          	lui	a4,0x4000e
     f50:	01074783          	lbu	a5,16(a4) # 4000e010 <sensor_lcd_map+0x1ffed610>
     f54:	8ba1                	andi	a5,a5,8
     f56:	c781                	beqz	a5,f5e <DVP_IRQHandler+0xfc>
E:\Works\NSCAM\obj/../Sensor/mt9m001.c:165
        R8_DVP_INT_FLAG = RB_DVP_IF_FIFO_OV;
     f58:	47a1                	li	a5,8
     f5a:	00f70823          	sb	a5,16(a4)
E:\Works\NSCAM\obj/../Sensor/mt9m001.c:168

    }
}
     f5e:	30200073          	mret

00000f62 <__sccb_start>:
__sccb_start():
E:\Works\NSCAM\obj/../Sensor/sccb.c:5
#include "sccb.h"

#define SCCB_DELAY() mDelayuS(5)

void __sccb_start() {
     f62:	1141                	addi	sp,sp,-16
     f64:	c422                	sw	s0,8(sp)
E:\Works\NSCAM\obj/../Sensor/sccb.c:6
    SCCB_DAT_SET();
     f66:	40001437          	lui	s0,0x40001
     f6a:	443c                	lw	a5,72(s0)
E:\Works\NSCAM\obj/../Sensor/sccb.c:5
void __sccb_start() {
     f6c:	c606                	sw	ra,12(sp)
E:\Works\NSCAM\obj/../Sensor/sccb.c:7
    SCCB_CLK_SET(); SCCB_DELAY();
     f6e:	4515                	li	a0,5
E:\Works\NSCAM\obj/../Sensor/sccb.c:6
    SCCB_DAT_SET();
     f70:	0807e793          	ori	a5,a5,128
     f74:	c43c                	sw	a5,72(s0)
E:\Works\NSCAM\obj/../Sensor/sccb.c:7
    SCCB_CLK_SET(); SCCB_DELAY();
     f76:	443c                	lw	a5,72(s0)
     f78:	1007e793          	ori	a5,a5,256
     f7c:	c43c                	sw	a5,72(s0)
     f7e:	7f1000ef          	jal	ra,1f6e <mDelayuS>
E:\Works\NSCAM\obj/../Sensor/sccb.c:8
    SCCB_DAT_CLR(); SCCB_DELAY();
     f82:	447c                	lw	a5,76(s0)
E:\Works\NSCAM\obj/../Sensor/sccb.c:9
}
     f84:	40b2                	lw	ra,12(sp)
E:\Works\NSCAM\obj/../Sensor/sccb.c:8
    SCCB_DAT_CLR(); SCCB_DELAY();
     f86:	4515                	li	a0,5
     f88:	0807e793          	ori	a5,a5,128
     f8c:	c47c                	sw	a5,76(s0)
E:\Works\NSCAM\obj/../Sensor/sccb.c:9
}
     f8e:	4422                	lw	s0,8(sp)
     f90:	0141                	addi	sp,sp,16
E:\Works\NSCAM\obj/../Sensor/sccb.c:8
    SCCB_DAT_CLR(); SCCB_DELAY();
     f92:	7dd0006f          	j	1f6e <mDelayuS>

00000f96 <__sccb_stop>:
__sccb_stop():
E:\Works\NSCAM\obj/../Sensor/sccb.c:11

void __sccb_stop() {
     f96:	1141                	addi	sp,sp,-16
     f98:	c422                	sw	s0,8(sp)
E:\Works\NSCAM\obj/../Sensor/sccb.c:12
    SCCB_DAT_CLR();
     f9a:	40001437          	lui	s0,0x40001
     f9e:	447c                	lw	a5,76(s0)
E:\Works\NSCAM\obj/../Sensor/sccb.c:11
void __sccb_stop() {
     fa0:	c606                	sw	ra,12(sp)
E:\Works\NSCAM\obj/../Sensor/sccb.c:13
    SCCB_CLK_SET(); SCCB_DELAY();
     fa2:	4515                	li	a0,5
E:\Works\NSCAM\obj/../Sensor/sccb.c:12
    SCCB_DAT_CLR();
     fa4:	0807e793          	ori	a5,a5,128
     fa8:	c47c                	sw	a5,76(s0)
E:\Works\NSCAM\obj/../Sensor/sccb.c:13
    SCCB_CLK_SET(); SCCB_DELAY();
     faa:	443c                	lw	a5,72(s0)
     fac:	1007e793          	ori	a5,a5,256
     fb0:	c43c                	sw	a5,72(s0)
     fb2:	7bd000ef          	jal	ra,1f6e <mDelayuS>
E:\Works\NSCAM\obj/../Sensor/sccb.c:14
    SCCB_DAT_SET(); SCCB_DELAY();
     fb6:	443c                	lw	a5,72(s0)
E:\Works\NSCAM\obj/../Sensor/sccb.c:15
}
     fb8:	40b2                	lw	ra,12(sp)
E:\Works\NSCAM\obj/../Sensor/sccb.c:14
    SCCB_DAT_SET(); SCCB_DELAY();
     fba:	4515                	li	a0,5
     fbc:	0807e793          	ori	a5,a5,128
     fc0:	c43c                	sw	a5,72(s0)
E:\Works\NSCAM\obj/../Sensor/sccb.c:15
}
     fc2:	4422                	lw	s0,8(sp)
     fc4:	0141                	addi	sp,sp,16
E:\Works\NSCAM\obj/../Sensor/sccb.c:14
    SCCB_DAT_SET(); SCCB_DELAY();
     fc6:	7a90006f          	j	1f6e <mDelayuS>

00000fca <__sccb_ack>:
__sccb_ack():
E:\Works\NSCAM\obj/../Sensor/sccb.c:18

void __sccb_ack() {
    SCCB_CLK_CLR();
     fca:	400017b7          	lui	a5,0x40001
     fce:	47f8                	lw	a4,76(a5)
E:\Works\NSCAM\obj/../Sensor/sccb.c:17
void __sccb_ack() {
     fd0:	1141                	addi	sp,sp,-16
     fd2:	c422                	sw	s0,8(sp)
     fd4:	c226                	sw	s1,4(sp)
     fd6:	c606                	sw	ra,12(sp)
E:\Works\NSCAM\obj/../Sensor/sccb.c:18
    SCCB_CLK_CLR();
     fd8:	10076713          	ori	a4,a4,256
     fdc:	c7f8                	sw	a4,76(a5)
E:\Works\NSCAM\obj/../Sensor/sccb.c:19
    SCCB_DAT_SET();
     fde:	47b8                	lw	a4,72(a5)
E:\Works\NSCAM\obj/../Sensor/sccb.c:20
    SCCB_CLK_SET(); SCCB_DELAY();
     fe0:	4515                	li	a0,5
     fe2:	0ff00413          	li	s0,255
E:\Works\NSCAM\obj/../Sensor/sccb.c:19
    SCCB_DAT_SET();
     fe6:	08076713          	ori	a4,a4,128
     fea:	c7b8                	sw	a4,72(a5)
E:\Works\NSCAM\obj/../Sensor/sccb.c:20
    SCCB_CLK_SET(); SCCB_DELAY();
     fec:	47b8                	lw	a4,72(a5)
E:\Works\NSCAM\obj/../Sensor/sccb.c:22
    for (uint8_t i = 0; i < 0xFF; i++) {
        if (SCCB_DAT_GET() == 0)
     fee:	400014b7          	lui	s1,0x40001
E:\Works\NSCAM\obj/../Sensor/sccb.c:20
    SCCB_CLK_SET(); SCCB_DELAY();
     ff2:	10076713          	ori	a4,a4,256
     ff6:	c7b8                	sw	a4,72(a5)
     ff8:	777000ef          	jal	ra,1f6e <mDelayuS>
E:\Works\NSCAM\obj/../Sensor/sccb.c:22
        if (SCCB_DAT_GET() == 0)
     ffc:	40fc                	lw	a5,68(s1)
     ffe:	0807f793          	andi	a5,a5,128
    1002:	cb81                	beqz	a5,1012 <__sccb_ack+0x48>
E:\Works\NSCAM\obj/../Sensor/sccb.c:24 (discriminator 2)
            break;
        SCCB_DELAY();
    1004:	147d                	addi	s0,s0,-1
    1006:	4515                	li	a0,5
    1008:	0ff47413          	andi	s0,s0,255
    100c:	763000ef          	jal	ra,1f6e <mDelayuS>
E:\Works\NSCAM\obj/../Sensor/sccb.c:21 (discriminator 2)
    for (uint8_t i = 0; i < 0xFF; i++) {
    1010:	f475                	bnez	s0,ffc <__sccb_ack+0x32>
E:\Works\NSCAM\obj/../Sensor/sccb.c:26
    }
    SCCB_CLK_CLR(); SCCB_DELAY();
    1012:	40001737          	lui	a4,0x40001
    1016:	477c                	lw	a5,76(a4)
E:\Works\NSCAM\obj/../Sensor/sccb.c:27
}
    1018:	4422                	lw	s0,8(sp)
    101a:	40b2                	lw	ra,12(sp)
    101c:	4492                	lw	s1,4(sp)
E:\Works\NSCAM\obj/../Sensor/sccb.c:26
    SCCB_CLK_CLR(); SCCB_DELAY();
    101e:	1007e793          	ori	a5,a5,256
    1022:	c77c                	sw	a5,76(a4)
    1024:	4515                	li	a0,5
E:\Works\NSCAM\obj/../Sensor/sccb.c:27
}
    1026:	0141                	addi	sp,sp,16
E:\Works\NSCAM\obj/../Sensor/sccb.c:26
    SCCB_CLK_CLR(); SCCB_DELAY();
    1028:	7470006f          	j	1f6e <mDelayuS>

0000102c <__sccb_wr>:
__sccb_wr():
E:\Works\NSCAM\obj/../Sensor/sccb.c:36
    SCCB_DAT_SET();
    SCCB_CLK_SET(); SCCB_DELAY();
    SCCB_CLK_CLR(); SCCB_DELAY();
}

void __sccb_wr(uint8_t data) {
    102c:	1101                	addi	sp,sp,-32
    102e:	cc22                	sw	s0,24(sp)
    1030:	ca26                	sw	s1,20(sp)
    1032:	c84a                	sw	s2,16(sp)
    1034:	c64e                	sw	s3,12(sp)
    1036:	ce06                	sw	ra,28(sp)
    1038:	c452                	sw	s4,8(sp)
    103a:	89aa                	mv	s3,a0
    103c:	449d                	li	s1,7
E:\Works\NSCAM\obj/../Sensor/sccb.c:38
    for (uint8_t i = 0; i < 8; i++) {
        SCCB_CLK_CLR(); SCCB_DELAY();
    103e:	40001437          	lui	s0,0x40001
E:\Works\NSCAM\obj/../Sensor/sccb.c:37
    for (uint8_t i = 0; i < 8; i++) {
    1042:	597d                	li	s2,-1
E:\Works\NSCAM\obj/../Sensor/sccb.c:38
        SCCB_CLK_CLR(); SCCB_DELAY();
    1044:	447c                	lw	a5,76(s0)
    1046:	4515                	li	a0,5
    1048:	1007e793          	ori	a5,a5,256
    104c:	c47c                	sw	a5,76(s0)
    104e:	721000ef          	jal	ra,1f6e <mDelayuS>
E:\Works\NSCAM\obj/../Sensor/sccb.c:39
        if (data & (1 << (7 - i)))
    1052:	4099d7b3          	sra	a5,s3,s1
    1056:	8b85                	andi	a5,a5,1
    1058:	c7a1                	beqz	a5,10a0 <__sccb_wr+0x74>
E:\Works\NSCAM\obj/../Sensor/sccb.c:40
            SCCB_DAT_SET();
    105a:	443c                	lw	a5,72(s0)
    105c:	0807e793          	ori	a5,a5,128
    1060:	c43c                	sw	a5,72(s0)
E:\Works\NSCAM\obj/../Sensor/sccb.c:43 (discriminator 2)
        else
            SCCB_DAT_CLR();
        SCCB_DELAY();
    1062:	4515                	li	a0,5
    1064:	70b000ef          	jal	ra,1f6e <mDelayuS>
E:\Works\NSCAM\obj/../Sensor/sccb.c:44 (discriminator 2)
        SCCB_CLK_SET(); SCCB_DELAY();
    1068:	443c                	lw	a5,72(s0)
    106a:	4515                	li	a0,5
    106c:	14fd                	addi	s1,s1,-1
    106e:	1007e793          	ori	a5,a5,256
    1072:	c43c                	sw	a5,72(s0)
    1074:	6fb000ef          	jal	ra,1f6e <mDelayuS>
E:\Works\NSCAM\obj/../Sensor/sccb.c:37 (discriminator 2)
    for (uint8_t i = 0; i < 8; i++) {
    1078:	fd2496e3          	bne	s1,s2,1044 <__sccb_wr+0x18>
E:\Works\NSCAM\obj/../Sensor/sccb.c:46
    }
    SCCB_CLK_CLR();
    107c:	447c                	lw	a5,76(s0)
E:\Works\NSCAM\obj/../Sensor/sccb.c:49
    SCCB_DAT_SET();
    SCCB_DELAY();
}
    107e:	40f2                	lw	ra,28(sp)
    1080:	44d2                	lw	s1,20(sp)
E:\Works\NSCAM\obj/../Sensor/sccb.c:46
    SCCB_CLK_CLR();
    1082:	1007e793          	ori	a5,a5,256
    1086:	c47c                	sw	a5,76(s0)
E:\Works\NSCAM\obj/../Sensor/sccb.c:47
    SCCB_DAT_SET();
    1088:	443c                	lw	a5,72(s0)
E:\Works\NSCAM\obj/../Sensor/sccb.c:49
}
    108a:	4942                	lw	s2,16(sp)
    108c:	49b2                	lw	s3,12(sp)
E:\Works\NSCAM\obj/../Sensor/sccb.c:47
    SCCB_DAT_SET();
    108e:	0807e793          	ori	a5,a5,128
    1092:	c43c                	sw	a5,72(s0)
E:\Works\NSCAM\obj/../Sensor/sccb.c:49
}
    1094:	4462                	lw	s0,24(sp)
    1096:	4a22                	lw	s4,8(sp)
E:\Works\NSCAM\obj/../Sensor/sccb.c:48
    SCCB_DELAY();
    1098:	4515                	li	a0,5
E:\Works\NSCAM\obj/../Sensor/sccb.c:49
}
    109a:	6105                	addi	sp,sp,32
E:\Works\NSCAM\obj/../Sensor/sccb.c:48
    SCCB_DELAY();
    109c:	6d30006f          	j	1f6e <mDelayuS>
E:\Works\NSCAM\obj/../Sensor/sccb.c:42
            SCCB_DAT_CLR();
    10a0:	447c                	lw	a5,76(s0)
    10a2:	0807e793          	ori	a5,a5,128
    10a6:	c47c                	sw	a5,76(s0)
    10a8:	bf6d                	j	1062 <__sccb_wr+0x36>

000010aa <sccb_init>:
sccb_init():
E:\Works\NSCAM\obj/../Sensor/sccb.c:73
    /*
     * CLK PA8
     * DAT PA7
     * */
    uint32_t pins = GPIO_Pin_7 | GPIO_Pin_8;
    GPIOA_SetBits(pins);
    10aa:	40001737          	lui	a4,0x40001
    10ae:	473c                	lw	a5,72(a4)
E:\Works\NSCAM\obj/../Sensor/sccb.c:74
    GPIOA_ModeCfg(pins, GPIO_ModeOut_OP_8mA);
    10b0:	45a5                	li	a1,9
    10b2:	18000513          	li	a0,384
E:\Works\NSCAM\obj/../Sensor/sccb.c:73
    GPIOA_SetBits(pins);
    10b6:	1807e793          	ori	a5,a5,384
    10ba:	c73c                	sw	a5,72(a4)
E:\Works\NSCAM\obj/../Sensor/sccb.c:74
    GPIOA_ModeCfg(pins, GPIO_ModeOut_OP_8mA);
    10bc:	2c10006f          	j	1b7c <GPIOA_ModeCfg>

000010c0 <sccb_write>:
sccb_write():
E:\Works\NSCAM\obj/../Sensor/sccb.c:77
}

void sccb_write(uint8_t addr, uint16_t data) {
    10c0:	1141                	addi	sp,sp,-16
    10c2:	c606                	sw	ra,12(sp)
    10c4:	c422                	sw	s0,8(sp)
    10c6:	c226                	sw	s1,4(sp)
    10c8:	842e                	mv	s0,a1
    10ca:	84aa                	mv	s1,a0
E:\Works\NSCAM\obj/../Sensor/sccb.c:78
    __sccb_start();
    10cc:	3d59                	jal	f62 <__sccb_start>
E:\Works\NSCAM\obj/../Sensor/sccb.c:79
    __sccb_wr(SCCB_ADDR & 0xFE);
    10ce:	0ba00513          	li	a0,186
    10d2:	3fa9                	jal	102c <__sccb_wr>
E:\Works\NSCAM\obj/../Sensor/sccb.c:80
    __sccb_ack();
    10d4:	3ddd                	jal	fca <__sccb_ack>
E:\Works\NSCAM\obj/../Sensor/sccb.c:81
    __sccb_wr(addr);
    10d6:	8526                	mv	a0,s1
    10d8:	3f91                	jal	102c <__sccb_wr>
E:\Works\NSCAM\obj/../Sensor/sccb.c:82
    __sccb_ack();
    10da:	3dc5                	jal	fca <__sccb_ack>
E:\Works\NSCAM\obj/../Sensor/sccb.c:83
    __sccb_wr(data >> 8);
    10dc:	00845513          	srli	a0,s0,0x8
    10e0:	37b1                	jal	102c <__sccb_wr>
E:\Works\NSCAM\obj/../Sensor/sccb.c:84
    __sccb_ack();
    10e2:	35e5                	jal	fca <__sccb_ack>
E:\Works\NSCAM\obj/../Sensor/sccb.c:85
    __sccb_wr(data & 0xFF);
    10e4:	0ff47513          	andi	a0,s0,255
    10e8:	3791                	jal	102c <__sccb_wr>
E:\Works\NSCAM\obj/../Sensor/sccb.c:86
    __sccb_ack();
    10ea:	35c5                	jal	fca <__sccb_ack>
E:\Works\NSCAM\obj/../Sensor/sccb.c:88
    __sccb_stop();
}
    10ec:	4422                	lw	s0,8(sp)
    10ee:	40b2                	lw	ra,12(sp)
    10f0:	4492                	lw	s1,4(sp)
    10f2:	0141                	addi	sp,sp,16
E:\Works\NSCAM\obj/../Sensor/sccb.c:87
    __sccb_stop();
    10f4:	b54d                	j	f96 <__sccb_stop>

000010f6 <_sd_avail>:
_sd_avail():
E:\Works\NSCAM\obj/../SD/sd.c:20
void _sd_deselect(pSD* p) {
    GPIOA_SetBits(GPIO_Pin_12);
}

uint8_t _sd_avail(pSD* p) {
    return (GPIOB_ReadPortPin(GPIO_Pin_8) == 0) ? 1 : 0;
    10f6:	400017b7          	lui	a5,0x40001
    10fa:	53e8                	lw	a0,100(a5)
    10fc:	8121                	srli	a0,a0,0x8
    10fe:	00154513          	xori	a0,a0,1
E:\Works\NSCAM\obj/../SD/sd.c:21
}
    1102:	8905                	andi	a0,a0,1
    1104:	8082                	ret

00001106 <_sd_select.constprop.5>:
_sd_select():
E:\Works\NSCAM\obj/../SD/sd.c:12
	GPIOA_ResetBits(GPIO_Pin_12);
    1106:	40001737          	lui	a4,0x40001
    110a:	477c                	lw	a5,76(a4)
    110c:	6685                	lui	a3,0x1
    110e:	8fd5                	or	a5,a5,a3
    1110:	c77c                	sw	a5,76(a4)
E:\Works\NSCAM\obj/../SD/sd.c:13
}
    1112:	8082                	ret

00001114 <_sd_transfer.constprop.6>:
_sd_transfer():
E:\Works\NSCAM\obj/../SD/sd.c:24

uint8_t _sd_transfer(pSD* p, uint8_t x) {
    R8_SPI0_CTRL_MOD &= ~RB_SPI_FIFO_DIR;
    1114:	400047b7          	lui	a5,0x40004
    1118:	0007c703          	lbu	a4,0(a5) # 40004000 <sensor_lcd_map+0x1ffe3600>
    111c:	0ef77713          	andi	a4,a4,239
    1120:	00e78023          	sb	a4,0(a5)
E:\Works\NSCAM\obj/../SD/sd.c:25
    R8_SPI0_BUFFER = x;
    1124:	00a78223          	sb	a0,4(a5)
E:\Works\NSCAM\obj/../SD/sd.c:26
    while (!(R8_SPI0_INT_FLAG & RB_SPI_FREE));
    1128:	40004737          	lui	a4,0x40004
    112c:	00674783          	lbu	a5,6(a4) # 40004006 <sensor_lcd_map+0x1ffe3606>
    1130:	0407f793          	andi	a5,a5,64
    1134:	dfe5                	beqz	a5,112c <_sd_transfer.constprop.6+0x18>
E:\Works\NSCAM\obj/../SD/sd.c:27
    return R8_SPI0_BUFFER;
    1136:	00474503          	lbu	a0,4(a4)
E:\Works\NSCAM\obj/../SD/sd.c:28
}
    113a:	8082                	ret

0000113c <_sd_deselect.constprop.7>:
_sd_deselect():
E:\Works\NSCAM\obj/../SD/sd.c:16
    GPIOA_SetBits(GPIO_Pin_12);
    113c:	40001737          	lui	a4,0x40001
    1140:	473c                	lw	a5,72(a4)
    1142:	6685                	lui	a3,0x1
    1144:	8fd5                	or	a5,a5,a3
    1146:	c73c                	sw	a5,72(a4)
E:\Works\NSCAM\obj/../SD/sd.c:17
}
    1148:	8082                	ret

0000114a <_sd_blk_transfer>:
_sd_blk_transfer():
E:\Works\NSCAM\obj/../SD/sd.c:31

void _sd_blk_transfer(uint8_t* dat, uint16_t len) {
    R8_SPI0_CTRL_MOD &= ~RB_SPI_FIFO_DIR;
    114a:	400047b7          	lui	a5,0x40004
    114e:	0007c703          	lbu	a4,0(a5) # 40004000 <sensor_lcd_map+0x1ffe3600>
E:\Works\NSCAM\obj/../SD/sd.c:35
    R16_SPI0_TOTAL_CNT = len;
    R8_SPI0_INT_FLAG = RB_SPI_IF_CNT_END;
    while (len != 0) {
       if (R8_SPI0_FIFO_COUNT < SPI_FIFO_SIZE) {
    1152:	400046b7          	lui	a3,0x40004
E:\Works\NSCAM\obj/../SD/sd.c:31
    R8_SPI0_CTRL_MOD &= ~RB_SPI_FIFO_DIR;
    1156:	0ef77713          	andi	a4,a4,239
    115a:	00e78023          	sb	a4,0(a5)
E:\Works\NSCAM\obj/../SD/sd.c:32
    R16_SPI0_TOTAL_CNT = len;
    115e:	00b79623          	sh	a1,12(a5)
E:\Works\NSCAM\obj/../SD/sd.c:33
    R8_SPI0_INT_FLAG = RB_SPI_IF_CNT_END;
    1162:	4705                	li	a4,1
    1164:	00e78323          	sb	a4,6(a5)
E:\Works\NSCAM\obj/../SD/sd.c:35
       if (R8_SPI0_FIFO_COUNT < SPI_FIFO_SIZE) {
    1168:	471d                	li	a4,7
E:\Works\NSCAM\obj/../SD/sd.c:34
    while (len != 0) {
    116a:	e989                	bnez	a1,117c <_sd_blk_transfer+0x32>
E:\Works\NSCAM\obj/../SD/sd.c:41
           R8_SPI0_FIFO = *dat;
           dat++;
           len--;
       }
    }
    while (R8_SPI0_FIFO_COUNT != 0);
    116c:	40004737          	lui	a4,0x40004
    1170:	00774783          	lbu	a5,7(a4) # 40004007 <sensor_lcd_map+0x1ffe3607>
    1174:	0ff7f793          	andi	a5,a5,255
    1178:	ffe5                	bnez	a5,1170 <_sd_blk_transfer+0x26>
E:\Works\NSCAM\obj/../SD/sd.c:42
}
    117a:	8082                	ret
E:\Works\NSCAM\obj/../SD/sd.c:35
       if (R8_SPI0_FIFO_COUNT < SPI_FIFO_SIZE) {
    117c:	0077c603          	lbu	a2,7(a5)
    1180:	fec765e3          	bltu	a4,a2,116a <_sd_blk_transfer+0x20>
E:\Works\NSCAM\obj/../SD/sd.c:36
           R8_SPI0_FIFO = *dat;
    1184:	00054603          	lbu	a2,0(a0)
E:\Works\NSCAM\obj/../SD/sd.c:38
           len--;
    1188:	15fd                	addi	a1,a1,-1
    118a:	05c2                	slli	a1,a1,0x10
E:\Works\NSCAM\obj/../SD/sd.c:36
           R8_SPI0_FIFO = *dat;
    118c:	00c68823          	sb	a2,16(a3) # 40004010 <sensor_lcd_map+0x1ffe3610>
E:\Works\NSCAM\obj/../SD/sd.c:37
           dat++;
    1190:	0505                	addi	a0,a0,1
E:\Works\NSCAM\obj/../SD/sd.c:38
           len--;
    1192:	81c1                	srli	a1,a1,0x10
    1194:	bfd9                	j	116a <_sd_blk_transfer+0x20>

00001196 <_sd_wait_ack_>:
_sd_wait_ack_():
E:\Works\NSCAM\obj/../SD/sd.c:44

uint8_t _sd_wait_ack_(pSD* p) {
    1196:	1141                	addi	sp,sp,-16
    1198:	c422                	sw	s0,8(sp)
    119a:	c606                	sw	ra,12(sp)
    119c:	c226                	sw	s1,4(sp)
    119e:	20000413          	li	s0,512
E:\Works\NSCAM\obj/../SD/sd.c:47
    uint8_t response = 0; uint16_t retry = 0;
    do {
        response = _sd_transfer(p, 0xFF);
    11a2:	0ff00513          	li	a0,255
    11a6:	147d                	addi	s0,s0,-1
    11a8:	37b5                	jal	1114 <_sd_transfer.constprop.6>
    11aa:	0442                	slli	s0,s0,0x10
    11ac:	84aa                	mv	s1,a0
E:\Works\NSCAM\obj/../SD/sd.c:49
        retry += 1;
        mDelayuS(1);
    11ae:	8041                	srli	s0,s0,0x10
    11b0:	4505                	li	a0,1
    11b2:	5bd000ef          	jal	ra,1f6e <mDelayuS>
E:\Works\NSCAM\obj/../SD/sd.c:50
        if (retry > 0x01FF) return 0xFF;
    11b6:	cc01                	beqz	s0,11ce <_sd_wait_ack_+0x38>
E:\Works\NSCAM\obj/../SD/sd.c:51
    }  while ((response & 0x80) != 0);
    11b8:	01849793          	slli	a5,s1,0x18
    11bc:	87e1                	srai	a5,a5,0x18
    11be:	fe07c2e3          	bltz	a5,11a2 <_sd_wait_ack_+0xc>
E:\Works\NSCAM\obj/../SD/sd.c:53
    return response;
}
    11c2:	40b2                	lw	ra,12(sp)
    11c4:	4422                	lw	s0,8(sp)
    11c6:	8526                	mv	a0,s1
    11c8:	4492                	lw	s1,4(sp)
    11ca:	0141                	addi	sp,sp,16
    11cc:	8082                	ret
E:\Works\NSCAM\obj/../SD/sd.c:50
        if (retry > 0x01FF) return 0xFF;
    11ce:	0ff00493          	li	s1,255
    11d2:	bfc5                	j	11c2 <_sd_wait_ack_+0x2c>

000011d4 <_sd_cmd>:
_sd_cmd():
E:\Works\NSCAM\obj/../SD/sd.c:66
        if (retry > 0xFFFE) return 1;
    }  while (response != 0xFF);
    return 0;
}

uint8_t _sd_cmd(pSD* p, uint8_t cmd, uint32_t arg) {
    11d4:	1141                	addi	sp,sp,-16
    11d6:	c04a                	sw	s2,0(sp)
    11d8:	892a                	mv	s2,a0
E:\Works\NSCAM\obj/../SD/sd.c:69
    uint8_t response = 0;

    _sd_transfer(p, 0xFF);
    11da:	0ff00513          	li	a0,255
E:\Works\NSCAM\obj/../SD/sd.c:66
uint8_t _sd_cmd(pSD* p, uint8_t cmd, uint32_t arg) {
    11de:	c606                	sw	ra,12(sp)
    11e0:	c422                	sw	s0,8(sp)
    11e2:	c226                	sw	s1,4(sp)
    11e4:	8432                	mv	s0,a2
    11e6:	84ae                	mv	s1,a1
E:\Works\NSCAM\obj/../SD/sd.c:69
    _sd_transfer(p, 0xFF);
    11e8:	3735                	jal	1114 <_sd_transfer.constprop.6>
E:\Works\NSCAM\obj/../SD/sd.c:70
    _sd_select(p);
    11ea:	3f31                	jal	1106 <_sd_select.constprop.5>
E:\Works\NSCAM\obj/../SD/sd.c:72

    _sd_transfer(p, cmd | 0x40);
    11ec:	0404e513          	ori	a0,s1,64
    11f0:	3715                	jal	1114 <_sd_transfer.constprop.6>
E:\Works\NSCAM\obj/../SD/sd.c:73
    _sd_transfer(p, arg >> 24);
    11f2:	01845513          	srli	a0,s0,0x18
    11f6:	3f39                	jal	1114 <_sd_transfer.constprop.6>
E:\Works\NSCAM\obj/../SD/sd.c:74
    _sd_transfer(p, arg >> 16);
    11f8:	01045513          	srli	a0,s0,0x10
    11fc:	0ff57513          	andi	a0,a0,255
    1200:	3f11                	jal	1114 <_sd_transfer.constprop.6>
E:\Works\NSCAM\obj/../SD/sd.c:75
    _sd_transfer(p, arg >> 8);
    1202:	00845513          	srli	a0,s0,0x8
    1206:	0ff57513          	andi	a0,a0,255
    120a:	3729                	jal	1114 <_sd_transfer.constprop.6>
E:\Works\NSCAM\obj/../SD/sd.c:76
    _sd_transfer(p, arg);
    120c:	0ff47513          	andi	a0,s0,255
    1210:	3711                	jal	1114 <_sd_transfer.constprop.6>
E:\Works\NSCAM\obj/../SD/sd.c:78
    uint8_t crc = 0xFF;
    if (cmd == CMD_RESET) crc = 0x95;
    1212:	09500513          	li	a0,149
    1216:	c099                	beqz	s1,121c <_sd_cmd+0x48>
E:\Works\NSCAM\obj/../SD/sd.c:77
    uint8_t crc = 0xFF;
    1218:	0ff00513          	li	a0,255
E:\Works\NSCAM\obj/../SD/sd.c:79
    _sd_transfer(p, crc);
    121c:	3de5                	jal	1114 <_sd_transfer.constprop.6>
E:\Works\NSCAM\obj/../SD/sd.c:81

    response = _sd_wait_ack_(p);
    121e:	854a                	mv	a0,s2
    1220:	3f9d                	jal	1196 <_sd_wait_ack_>
    1222:	842a                	mv	s0,a0
E:\Works\NSCAM\obj/../SD/sd.c:83

    _sd_deselect(p);
    1224:	3f21                	jal	113c <_sd_deselect.constprop.7>
E:\Works\NSCAM\obj/../SD/sd.c:84
    _sd_transfer(p, 0xFF);
    1226:	0ff00513          	li	a0,255
    122a:	35ed                	jal	1114 <_sd_transfer.constprop.6>
E:\Works\NSCAM\obj/../SD/sd.c:86
    return response;
}
    122c:	8522                	mv	a0,s0
    122e:	40b2                	lw	ra,12(sp)
    1230:	4422                	lw	s0,8(sp)
    1232:	4492                	lw	s1,4(sp)
    1234:	4902                	lw	s2,0(sp)
    1236:	0141                	addi	sp,sp,16
    1238:	8082                	ret

0000123a <_sd_wait_ready_>:
_sd_wait_ready_():
E:\Works\NSCAM\obj/../SD/sd.c:55
uint8_t _sd_wait_ready_(pSD* p) {
    123a:	1141                	addi	sp,sp,-16
    123c:	c422                	sw	s0,8(sp)
    123e:	6441                	lui	s0,0x10
    1240:	c606                	sw	ra,12(sp)
    1242:	c226                	sw	s1,4(sp)
    1244:	147d                	addi	s0,s0,-1
E:\Works\NSCAM\obj/../SD/sd.c:58
        response = _sd_transfer(p, 0xFF);
    1246:	0ff00513          	li	a0,255
    124a:	147d                	addi	s0,s0,-1
    124c:	35e1                	jal	1114 <_sd_transfer.constprop.6>
    124e:	0442                	slli	s0,s0,0x10
    1250:	84aa                	mv	s1,a0
E:\Works\NSCAM\obj/../SD/sd.c:60
        mDelayuS(1);
    1252:	8041                	srli	s0,s0,0x10
    1254:	4505                	li	a0,1
    1256:	519000ef          	jal	ra,1f6e <mDelayuS>
E:\Works\NSCAM\obj/../SD/sd.c:61
        if (retry > 0xFFFE) return 1;
    125a:	c819                	beqz	s0,1270 <_sd_wait_ready_+0x36>
E:\Works\NSCAM\obj/../SD/sd.c:62
    }  while (response != 0xFF);
    125c:	0ff00793          	li	a5,255
    1260:	fef493e3          	bne	s1,a5,1246 <_sd_wait_ready_+0xc>
E:\Works\NSCAM\obj/../SD/sd.c:63
    return 0;
    1264:	4501                	li	a0,0
E:\Works\NSCAM\obj/../SD/sd.c:64
}
    1266:	40b2                	lw	ra,12(sp)
    1268:	4422                	lw	s0,8(sp)
    126a:	4492                	lw	s1,4(sp)
    126c:	0141                	addi	sp,sp,16
    126e:	8082                	ret
E:\Works\NSCAM\obj/../SD/sd.c:61
        if (retry > 0xFFFE) return 1;
    1270:	4505                	li	a0,1
    1272:	bfd5                	j	1266 <_sd_wait_ready_+0x2c>

00001274 <_sd_cmd_ncs_>:
_sd_cmd_ncs_():
E:\Works\NSCAM\obj/../SD/sd.c:88

uint8_t _sd_cmd_ncs_(pSD* p, uint8_t cmd, uint32_t arg, uint8_t crc) {
    1274:	1101                	addi	sp,sp,-32
    1276:	ca26                	sw	s1,20(sp)
    1278:	84aa                	mv	s1,a0
E:\Works\NSCAM\obj/../SD/sd.c:91
    uint8_t response = 0;

    _sd_transfer(p, cmd | 0x40);
    127a:	0405e513          	ori	a0,a1,64
E:\Works\NSCAM\obj/../SD/sd.c:88
uint8_t _sd_cmd_ncs_(pSD* p, uint8_t cmd, uint32_t arg, uint8_t crc) {
    127e:	ce06                	sw	ra,28(sp)
    1280:	cc22                	sw	s0,24(sp)
    1282:	c636                	sw	a3,12(sp)
    1284:	8432                	mv	s0,a2
E:\Works\NSCAM\obj/../SD/sd.c:91
    _sd_transfer(p, cmd | 0x40);
    1286:	3579                	jal	1114 <_sd_transfer.constprop.6>
E:\Works\NSCAM\obj/../SD/sd.c:92
    _sd_transfer(p, arg >> 24);
    1288:	01845513          	srli	a0,s0,0x18
    128c:	3561                	jal	1114 <_sd_transfer.constprop.6>
E:\Works\NSCAM\obj/../SD/sd.c:93
    _sd_transfer(p, arg >> 16);
    128e:	01045513          	srli	a0,s0,0x10
    1292:	0ff57513          	andi	a0,a0,255
    1296:	3dbd                	jal	1114 <_sd_transfer.constprop.6>
E:\Works\NSCAM\obj/../SD/sd.c:94
    _sd_transfer(p, arg >> 8);
    1298:	00845513          	srli	a0,s0,0x8
    129c:	0ff57513          	andi	a0,a0,255
    12a0:	3d95                	jal	1114 <_sd_transfer.constprop.6>
E:\Works\NSCAM\obj/../SD/sd.c:95
    _sd_transfer(p, arg);
    12a2:	0ff47513          	andi	a0,s0,255
    12a6:	35bd                	jal	1114 <_sd_transfer.constprop.6>
E:\Works\NSCAM\obj/../SD/sd.c:96
    _sd_transfer(p, crc);
    12a8:	46b2                	lw	a3,12(sp)
    12aa:	8536                	mv	a0,a3
    12ac:	35a5                	jal	1114 <_sd_transfer.constprop.6>
E:\Works\NSCAM\obj/../SD/sd.c:100

    response = _sd_wait_ack_(p);
    return response;
}
    12ae:	4462                	lw	s0,24(sp)
    12b0:	40f2                	lw	ra,28(sp)
E:\Works\NSCAM\obj/../SD/sd.c:98
    response = _sd_wait_ack_(p);
    12b2:	8526                	mv	a0,s1
E:\Works\NSCAM\obj/../SD/sd.c:100
}
    12b4:	44d2                	lw	s1,20(sp)
    12b6:	6105                	addi	sp,sp,32
E:\Works\NSCAM\obj/../SD/sd.c:98
    response = _sd_wait_ack_(p);
    12b8:	bdf9                	j	1196 <_sd_wait_ack_>

000012ba <_sd_write>:
_sd_write():
E:\Works\NSCAM\obj/../SD/sd.c:380
}

uint8_t _sd_write(pSD* p, uint32_t sector, uint8_t* buf) {
    uint8_t response = 0; uint16_t retry = 0;

    if (p->type != TYPE_V2_SDHC) sector = sector << 9;
    12ba:	4118                	lw	a4,0(a0)
E:\Works\NSCAM\obj/../SD/sd.c:377
uint8_t _sd_write(pSD* p, uint32_t sector, uint8_t* buf) {
    12bc:	1101                	addi	sp,sp,-32
    12be:	cc22                	sw	s0,24(sp)
    12c0:	c84a                	sw	s2,16(sp)
    12c2:	ce06                	sw	ra,28(sp)
    12c4:	ca26                	sw	s1,20(sp)
E:\Works\NSCAM\obj/../SD/sd.c:380
    if (p->type != TYPE_V2_SDHC) sector = sector << 9;
    12c6:	4791                	li	a5,4
E:\Works\NSCAM\obj/../SD/sd.c:377
uint8_t _sd_write(pSD* p, uint32_t sector, uint8_t* buf) {
    12c8:	842a                	mv	s0,a0
    12ca:	8932                	mv	s2,a2
E:\Works\NSCAM\obj/../SD/sd.c:380
    if (p->type != TYPE_V2_SDHC) sector = sector << 9;
    12cc:	00f70363          	beq	a4,a5,12d2 <_sd_write+0x18>
E:\Works\NSCAM\obj/../SD/sd.c:380 (discriminator 1)
    12d0:	05a6                	slli	a1,a1,0x9
E:\Works\NSCAM\obj/../SD/sd.c:382

    _sd_transfer(p, 0xFF);
    12d2:	0ff00513          	li	a0,255
    12d6:	c62e                	sw	a1,12(sp)
    12d8:	3d35                	jal	1114 <_sd_transfer.constprop.6>
E:\Works\NSCAM\obj/../SD/sd.c:383
    _sd_select(p);
    12da:	3535                	jal	1106 <_sd_select.constprop.5>
E:\Works\NSCAM\obj/../SD/sd.c:384
    response = _sd_cmd_ncs_(p, CMD_WRITE, sector, 0);
    12dc:	45b2                	lw	a1,12(sp)
    12de:	4681                	li	a3,0
    12e0:	8522                	mv	a0,s0
    12e2:	862e                	mv	a2,a1
    12e4:	45e1                	li	a1,24
    12e6:	3779                	jal	1274 <_sd_cmd_ncs_>
    12e8:	84aa                	mv	s1,a0
E:\Works\NSCAM\obj/../SD/sd.c:385
    _sd_deselect(p);
    12ea:	3d89                	jal	113c <_sd_deselect.constprop.7>
E:\Works\NSCAM\obj/../SD/sd.c:386
    if (response != STATE_READY) {
    12ec:	cc81                	beqz	s1,1304 <_sd_write+0x4a>
E:\Works\NSCAM\obj/../SD/sd.c:387
        _sd_transfer(p, 0xFF);
    12ee:	0ff00513          	li	a0,255
    12f2:	350d                	jal	1114 <_sd_transfer.constprop.6>
E:\Works\NSCAM\obj/../SD/sd.c:388
        return 3;
    12f4:	448d                	li	s1,3
E:\Works\NSCAM\obj/../SD/sd.c:422
        }
    }
    _sd_deselect(p);
    _sd_transfer(p, 0xFF);
    return 0;
}
    12f6:	40f2                	lw	ra,28(sp)
    12f8:	4462                	lw	s0,24(sp)
    12fa:	8526                	mv	a0,s1
    12fc:	4942                	lw	s2,16(sp)
    12fe:	44d2                	lw	s1,20(sp)
    1300:	6105                	addi	sp,sp,32
    1302:	8082                	ret
E:\Works\NSCAM\obj/../SD/sd.c:391
    _sd_select(p);
    1304:	3509                	jal	1106 <_sd_select.constprop.5>
E:\Works\NSCAM\obj/../SD/sd.c:392
    _sd_transfer(p, 0xFF);
    1306:	0ff00513          	li	a0,255
    130a:	3529                	jal	1114 <_sd_transfer.constprop.6>
E:\Works\NSCAM\obj/../SD/sd.c:393
    _sd_transfer(p, 0xFF);
    130c:	0ff00513          	li	a0,255
    1310:	3511                	jal	1114 <_sd_transfer.constprop.6>
E:\Works\NSCAM\obj/../SD/sd.c:394
    _sd_transfer(p, 0xFF);
    1312:	0ff00513          	li	a0,255
    1316:	3bfd                	jal	1114 <_sd_transfer.constprop.6>
E:\Works\NSCAM\obj/../SD/sd.c:395
    _sd_transfer(p, 0xFE);
    1318:	0fe00513          	li	a0,254
    131c:	3be5                	jal	1114 <_sd_transfer.constprop.6>
E:\Works\NSCAM\obj/../SD/sd.c:396
    _sd_blk_transfer(buf, 512);
    131e:	20000593          	li	a1,512
    1322:	854a                	mv	a0,s2
    1324:	351d                	jal	114a <_sd_blk_transfer>
E:\Works\NSCAM\obj/../SD/sd.c:397
    _sd_transfer(p, 0xFF); //CRC1
    1326:	0ff00513          	li	a0,255
    132a:	33ed                	jal	1114 <_sd_transfer.constprop.6>
E:\Works\NSCAM\obj/../SD/sd.c:398
    _sd_transfer(p, 0xFF); //CRC2
    132c:	0ff00513          	li	a0,255
E:\Works\NSCAM\obj/../SD/sd.c:401
    while ((_sd_transfer(p, 0xFF) & 0x1F) != 0x05) {
    1330:	6441                	lui	s0,0x10
E:\Works\NSCAM\obj/../SD/sd.c:398
    _sd_transfer(p, 0xFF); //CRC2
    1332:	33cd                	jal	1114 <_sd_transfer.constprop.6>
E:\Works\NSCAM\obj/../SD/sd.c:401
    while ((_sd_transfer(p, 0xFF) & 0x1F) != 0x05) {
    1334:	147d                	addi	s0,s0,-1
    1336:	4915                	li	s2,5
    1338:	0ff00513          	li	a0,255
    133c:	3be1                	jal	1114 <_sd_transfer.constprop.6>
    133e:	897d                	andi	a0,a0,31
    1340:	01251d63          	bne	a0,s2,135a <_sd_write+0xa0>
    1344:	6441                	lui	s0,0x10
    1346:	147d                	addi	s0,s0,-1
E:\Works\NSCAM\obj/../SD/sd.c:411
    while (!_sd_transfer(p, 0xFF)) {
    1348:	0ff00513          	li	a0,255
    134c:	33e1                	jal	1114 <_sd_transfer.constprop.6>
    134e:	c11d                	beqz	a0,1374 <_sd_write+0xba>
E:\Works\NSCAM\obj/../SD/sd.c:419
    _sd_deselect(p);
    1350:	33f5                	jal	113c <_sd_deselect.constprop.7>
E:\Works\NSCAM\obj/../SD/sd.c:420
    _sd_transfer(p, 0xFF);
    1352:	0ff00513          	li	a0,255
    1356:	3b7d                	jal	1114 <_sd_transfer.constprop.6>
E:\Works\NSCAM\obj/../SD/sd.c:421
    return 0;
    1358:	bf79                	j	12f6 <_sd_write+0x3c>
E:\Works\NSCAM\obj/../SD/sd.c:402
        mDelayuS(1);
    135a:	147d                	addi	s0,s0,-1
    135c:	0442                	slli	s0,s0,0x10
    135e:	4505                	li	a0,1
    1360:	8041                	srli	s0,s0,0x10
    1362:	40d000ef          	jal	ra,1f6e <mDelayuS>
E:\Works\NSCAM\obj/../SD/sd.c:403
        if (++retry > 0xFFFE) {
    1366:	f869                	bnez	s0,1338 <_sd_write+0x7e>
E:\Works\NSCAM\obj/../SD/sd.c:404
            _sd_deselect(p);
    1368:	3bd1                	jal	113c <_sd_deselect.constprop.7>
E:\Works\NSCAM\obj/../SD/sd.c:405
            _sd_transfer(p, 0xFF);
    136a:	0ff00513          	li	a0,255
    136e:	335d                	jal	1114 <_sd_transfer.constprop.6>
E:\Works\NSCAM\obj/../SD/sd.c:406
            return 2;
    1370:	4489                	li	s1,2
    1372:	b751                	j	12f6 <_sd_write+0x3c>
E:\Works\NSCAM\obj/../SD/sd.c:412
        mDelayuS(1);
    1374:	147d                	addi	s0,s0,-1
    1376:	0442                	slli	s0,s0,0x10
    1378:	4505                	li	a0,1
    137a:	8041                	srli	s0,s0,0x10
    137c:	3f3000ef          	jal	ra,1f6e <mDelayuS>
E:\Works\NSCAM\obj/../SD/sd.c:413
        if (++retry > 0xFFFE) {
    1380:	f461                	bnez	s0,1348 <_sd_write+0x8e>
E:\Works\NSCAM\obj/../SD/sd.c:414
            _sd_deselect(p);
    1382:	3b6d                	jal	113c <_sd_deselect.constprop.7>
E:\Works\NSCAM\obj/../SD/sd.c:415
            _sd_transfer(p, 0xFF);
    1384:	0ff00513          	li	a0,255
    1388:	3371                	jal	1114 <_sd_transfer.constprop.6>
E:\Works\NSCAM\obj/../SD/sd.c:416
            return 1;
    138a:	4485                	li	s1,1
    138c:	b7ad                	j	12f6 <_sd_write+0x3c>

0000138e <_sd_writes>:
_sd_writes():
E:\Works\NSCAM\obj/../SD/sd.c:453
    _sd_deselect(p);
    _sd_transfer(p, 0xFF);
    return 0;
}

uint8_t _sd_writes(pSD* p, uint32_t sector, uint8_t* buf, uint16_t count) {
    138e:	7179                	addi	sp,sp,-48
    1390:	d422                	sw	s0,40(sp)
    1392:	842a                	mv	s0,a0
E:\Works\NSCAM\obj/../SD/sd.c:456
    uint8_t response = 0;

    _sd_transfer(p, 0xFF);
    1394:	0ff00513          	li	a0,255
E:\Works\NSCAM\obj/../SD/sd.c:453
uint8_t _sd_writes(pSD* p, uint32_t sector, uint8_t* buf, uint16_t count) {
    1398:	d226                	sw	s1,36(sp)
    139a:	ce4e                	sw	s3,28(sp)
    139c:	ca56                	sw	s5,20(sp)
    139e:	d606                	sw	ra,44(sp)
    13a0:	d04a                	sw	s2,32(sp)
    13a2:	cc52                	sw	s4,24(sp)
    13a4:	c85a                	sw	s6,16(sp)
    13a6:	84ae                	mv	s1,a1
    13a8:	89b2                	mv	s3,a2
    13aa:	8ab6                	mv	s5,a3
E:\Works\NSCAM\obj/../SD/sd.c:456
    _sd_transfer(p, 0xFF);
    13ac:	33a5                	jal	1114 <_sd_transfer.constprop.6>
E:\Works\NSCAM\obj/../SD/sd.c:457
    if (p->type != TYPE_V2_SDHC) sector = sector << 9;
    13ae:	401c                	lw	a5,0(s0)
    13b0:	4711                	li	a4,4
    13b2:	00e78463          	beq	a5,a4,13ba <_sd_writes+0x2c>
E:\Works\NSCAM\obj/../SD/sd.c:457 (discriminator 1)
    13b6:	04a6                	slli	s1,s1,0x9
E:\Works\NSCAM\obj/../SD/sd.c:459 (discriminator 1)

    if (p->type != TYPE_MMC) {
    13b8:	cb81                	beqz	a5,13c8 <_sd_writes+0x3a>
E:\Works\NSCAM\obj/../SD/sd.c:460
        _sd_select(p);
    13ba:	33b1                	jal	1106 <_sd_select.constprop.5>
E:\Works\NSCAM\obj/../SD/sd.c:461
        _sd_cmd_ncs_(p, CMD_APE, count, 0);
    13bc:	4681                	li	a3,0
    13be:	8656                	mv	a2,s5
    13c0:	45dd                	li	a1,23
    13c2:	8522                	mv	a0,s0
    13c4:	3d45                	jal	1274 <_sd_cmd_ncs_>
E:\Works\NSCAM\obj/../SD/sd.c:462
        _sd_deselect(p);
    13c6:	3b9d                	jal	113c <_sd_deselect.constprop.7>
E:\Works\NSCAM\obj/../SD/sd.c:465
    }

    _sd_select(p);
    13c8:	3b3d                	jal	1106 <_sd_select.constprop.5>
E:\Works\NSCAM\obj/../SD/sd.c:466
    response = _sd_cmd_ncs_(p, CMD_WRITES, sector, 0);
    13ca:	4681                	li	a3,0
    13cc:	8626                	mv	a2,s1
    13ce:	45e5                	li	a1,25
    13d0:	8522                	mv	a0,s0
    13d2:	354d                	jal	1274 <_sd_cmd_ncs_>
    13d4:	c62a                	sw	a0,12(sp)
E:\Works\NSCAM\obj/../SD/sd.c:467
    _sd_deselect(p);
    13d6:	339d                	jal	113c <_sd_deselect.constprop.7>
E:\Works\NSCAM\obj/../SD/sd.c:468
    if (response != STATE_READY) {
    13d8:	4532                	lw	a0,12(sp)
    13da:	c105                	beqz	a0,13fa <_sd_writes+0x6c>
E:\Works\NSCAM\obj/../SD/sd.c:469
        _sd_transfer(p, 0xFF);
    13dc:	0ff00513          	li	a0,255
    13e0:	3b15                	jal	1114 <_sd_transfer.constprop.6>
E:\Works\NSCAM\obj/../SD/sd.c:470
        return 4;
    13e2:	4411                	li	s0,4
E:\Works\NSCAM\obj/../SD/sd.c:513
    }

    _sd_deselect(p);
    _sd_transfer(p, 0xFF);
    return 0;
}
    13e4:	8522                	mv	a0,s0
    13e6:	50b2                	lw	ra,44(sp)
    13e8:	5422                	lw	s0,40(sp)
    13ea:	5492                	lw	s1,36(sp)
    13ec:	5902                	lw	s2,32(sp)
    13ee:	49f2                	lw	s3,28(sp)
    13f0:	4a62                	lw	s4,24(sp)
    13f2:	4ad2                	lw	s5,20(sp)
    13f4:	4b42                	lw	s6,16(sp)
    13f6:	6145                	addi	sp,sp,48
    13f8:	8082                	ret
E:\Works\NSCAM\obj/../SD/sd.c:473
    _sd_select(p);
    13fa:	3331                	jal	1106 <_sd_select.constprop.5>
E:\Works\NSCAM\obj/../SD/sd.c:474
    _sd_transfer(p, 0xFF);
    13fc:	0ff00513          	li	a0,255
    1400:	3b11                	jal	1114 <_sd_transfer.constprop.6>
E:\Works\NSCAM\obj/../SD/sd.c:475
    _sd_transfer(p, 0xFF);
    1402:	0ff00513          	li	a0,255
E:\Works\NSCAM\obj/../SD/sd.c:485
        while ((_sd_transfer(p, 0xFF) & 0x1F) != 0x05) {
    1406:	6a41                	lui	s4,0x10
E:\Works\NSCAM\obj/../SD/sd.c:475
    _sd_transfer(p, 0xFF);
    1408:	3331                	jal	1114 <_sd_transfer.constprop.6>
E:\Works\NSCAM\obj/../SD/sd.c:476
    for (uint16_t i = 0; i < count; i++) {
    140a:	4481                	li	s1,0
E:\Works\NSCAM\obj/../SD/sd.c:485
        while ((_sd_transfer(p, 0xFF) & 0x1F) != 0x05) {
    140c:	1a7d                	addi	s4,s4,-1
    140e:	4b15                	li	s6,5
E:\Works\NSCAM\obj/../SD/sd.c:476 (discriminator 1)
    for (uint16_t i = 0; i < count; i++) {
    1410:	03549063          	bne	s1,s5,1430 <_sd_writes+0xa2>
E:\Works\NSCAM\obj/../SD/sd.c:501
    response = _sd_transfer(p, 0xFD);
    1414:	0fd00513          	li	a0,253
    1418:	39f5                	jal	1114 <_sd_transfer.constprop.6>
E:\Works\NSCAM\obj/../SD/sd.c:504
    if (_sd_wait_ready_(p) == 1) {
    141a:	8522                	mv	a0,s0
    141c:	3d39                	jal	123a <_sd_wait_ready_>
    141e:	4785                	li	a5,1
    1420:	842a                	mv	s0,a0
    1422:	06f51b63          	bne	a0,a5,1498 <_sd_writes+0x10a>
E:\Works\NSCAM\obj/../SD/sd.c:505
        _sd_deselect(p);
    1426:	3b19                	jal	113c <_sd_deselect.constprop.7>
E:\Works\NSCAM\obj/../SD/sd.c:506
        _sd_transfer(p, 0xFF);
    1428:	0ff00513          	li	a0,255
    142c:	31e5                	jal	1114 <_sd_transfer.constprop.6>
E:\Works\NSCAM\obj/../SD/sd.c:507
        return 1;
    142e:	bf5d                	j	13e4 <_sd_writes+0x56>
E:\Works\NSCAM\obj/../SD/sd.c:477
        _sd_transfer(p, 0xFC);
    1430:	0fc00513          	li	a0,252
    1434:	31c5                	jal	1114 <_sd_transfer.constprop.6>
E:\Works\NSCAM\obj/../SD/sd.c:479
        _sd_blk_transfer(buf, 512);
    1436:	20000593          	li	a1,512
    143a:	854e                	mv	a0,s3
    143c:	3339                	jal	114a <_sd_blk_transfer>
E:\Works\NSCAM\obj/../SD/sd.c:481
        _sd_transfer(p, 0xFF); //CRC1
    143e:	0ff00513          	li	a0,255
    1442:	39c9                	jal	1114 <_sd_transfer.constprop.6>
E:\Works\NSCAM\obj/../SD/sd.c:482
        _sd_transfer(p, 0xFF); //CRC2
    1444:	0ff00513          	li	a0,255
E:\Works\NSCAM\obj/../SD/sd.c:480
        buf += 512;
    1448:	20098993          	addi	s3,s3,512
E:\Works\NSCAM\obj/../SD/sd.c:482
        _sd_transfer(p, 0xFF); //CRC2
    144c:	31e1                	jal	1114 <_sd_transfer.constprop.6>
E:\Works\NSCAM\obj/../SD/sd.c:485
        while ((_sd_transfer(p, 0xFF) & 0x1F) != 0x05) {
    144e:	8952                	mv	s2,s4
    1450:	0ff00513          	li	a0,255
    1454:	31c1                	jal	1114 <_sd_transfer.constprop.6>
    1456:	897d                	andi	a0,a0,31
    1458:	01651d63          	bne	a0,s6,1472 <_sd_writes+0xe4>
E:\Works\NSCAM\obj/../SD/sd.c:494
        if (_sd_wait_ready_(p) == 1) {
    145c:	8522                	mv	a0,s0
    145e:	3bf1                	jal	123a <_sd_wait_ready_>
    1460:	4785                	li	a5,1
    1462:	02f51763          	bne	a0,a5,1490 <_sd_writes+0x102>
E:\Works\NSCAM\obj/../SD/sd.c:495
            _sd_deselect(p);
    1466:	39d9                	jal	113c <_sd_deselect.constprop.7>
E:\Works\NSCAM\obj/../SD/sd.c:496
            _sd_transfer(p, 0xFF);
    1468:	0ff00513          	li	a0,255
    146c:	3165                	jal	1114 <_sd_transfer.constprop.6>
E:\Works\NSCAM\obj/../SD/sd.c:497
            return 2;
    146e:	4409                	li	s0,2
    1470:	bf95                	j	13e4 <_sd_writes+0x56>
E:\Works\NSCAM\obj/../SD/sd.c:486
            mDelayuS(1);
    1472:	197d                	addi	s2,s2,-1
    1474:	0942                	slli	s2,s2,0x10
    1476:	4505                	li	a0,1
    1478:	01095913          	srli	s2,s2,0x10
    147c:	2f3000ef          	jal	ra,1f6e <mDelayuS>
E:\Works\NSCAM\obj/../SD/sd.c:487
            if (++retry > 0xFFFE) {
    1480:	fc0918e3          	bnez	s2,1450 <_sd_writes+0xc2>
E:\Works\NSCAM\obj/../SD/sd.c:488
                _sd_deselect(p);
    1484:	3965                	jal	113c <_sd_deselect.constprop.7>
E:\Works\NSCAM\obj/../SD/sd.c:489
                _sd_transfer(p, 0xFF);
    1486:	0ff00513          	li	a0,255
    148a:	3169                	jal	1114 <_sd_transfer.constprop.6>
E:\Works\NSCAM\obj/../SD/sd.c:490
                return 3;
    148c:	440d                	li	s0,3
    148e:	bf99                	j	13e4 <_sd_writes+0x56>
E:\Works\NSCAM\obj/../SD/sd.c:476 (discriminator 2)
    for (uint16_t i = 0; i < count; i++) {
    1490:	0485                	addi	s1,s1,1
    1492:	04c2                	slli	s1,s1,0x10
    1494:	80c1                	srli	s1,s1,0x10
    1496:	bfad                	j	1410 <_sd_writes+0x82>
E:\Works\NSCAM\obj/../SD/sd.c:510
    _sd_deselect(p);
    1498:	3155                	jal	113c <_sd_deselect.constprop.7>
E:\Works\NSCAM\obj/../SD/sd.c:511
    _sd_transfer(p, 0xFF);
    149a:	0ff00513          	li	a0,255
    149e:	399d                	jal	1114 <_sd_transfer.constprop.6>
E:\Works\NSCAM\obj/../SD/sd.c:512
    return 0;
    14a0:	4401                	li	s0,0
    14a2:	b789                	j	13e4 <_sd_writes+0x56>

000014a4 <spiInit>:
spiInit():
E:\Works\NSCAM\obj/../SD/sd.c:104
        R8_SPI0_CLOCK_DIV = FREQ_SYS / NSCAM_FSDH;
    14a4:	400047b7          	lui	a5,0x40004
    14a8:	4709                	li	a4,2
E:\Works\NSCAM\obj/../SD/sd.c:103
    if (v != 0)
    14aa:	e111                	bnez	a0,14ae <spiInit+0xa>
E:\Works\NSCAM\obj/../SD/sd.c:106
        R8_SPI0_CLOCK_DIV = FREQ_SYS / NSCAM_FSDL;
    14ac:	5741                	li	a4,-16
    14ae:	00e781a3          	sb	a4,3(a5) # 40004003 <sensor_lcd_map+0x1ffe3603>
E:\Works\NSCAM\obj/../SD/sd.c:107
    mDelaymS(10);
    14b2:	4529                	li	a0,10
    14b4:	2e50006f          	j	1f98 <mDelaymS>

000014b8 <_sd_init>:
_sd_init():
E:\Works\NSCAM\obj/../SD/sd.c:112
    GPIOA_SetBits(GPIO_Pin_12);
    14b8:	40001737          	lui	a4,0x40001
    14bc:	473c                	lw	a5,72(a4)
E:\Works\NSCAM\obj/../SD/sd.c:110
uint8_t _sd_init(pSD* p) {
    14be:	7179                	addi	sp,sp,-48
E:\Works\NSCAM\obj/../SD/sd.c:112
    GPIOA_SetBits(GPIO_Pin_12);
    14c0:	6685                	lui	a3,0x1
E:\Works\NSCAM\obj/../SD/sd.c:110
uint8_t _sd_init(pSD* p) {
    14c2:	d606                	sw	ra,44(sp)
E:\Works\NSCAM\obj/../SD/sd.c:112
    GPIOA_SetBits(GPIO_Pin_12);
    14c4:	8fd5                	or	a5,a5,a3
E:\Works\NSCAM\obj/../SD/sd.c:110
uint8_t _sd_init(pSD* p) {
    14c6:	d422                	sw	s0,40(sp)
    14c8:	d226                	sw	s1,36(sp)
    14ca:	d04a                	sw	s2,32(sp)
    14cc:	ce4e                	sw	s3,28(sp)
    14ce:	cc52                	sw	s4,24(sp)
    14d0:	ca56                	sw	s5,20(sp)
E:\Works\NSCAM\obj/../SD/sd.c:112
    GPIOA_SetBits(GPIO_Pin_12);
    14d2:	c73c                	sw	a5,72(a4)
E:\Works\NSCAM\obj/../SD/sd.c:113
    GPIOA_ModeCfg(GPIO_Pin_12 | GPIO_Pin_13 | GPIO_Pin_14, GPIO_Highspeed_PP_8mA);
    14d4:	459d                	li	a1,7
E:\Works\NSCAM\obj/../SD/sd.c:110
uint8_t _sd_init(pSD* p) {
    14d6:	842a                	mv	s0,a0
E:\Works\NSCAM\obj/../SD/sd.c:113
    GPIOA_ModeCfg(GPIO_Pin_12 | GPIO_Pin_13 | GPIO_Pin_14, GPIO_Highspeed_PP_8mA);
    14d8:	651d                	lui	a0,0x7
    14da:	6a2000ef          	jal	ra,1b7c <GPIOA_ModeCfg>
E:\Works\NSCAM\obj/../SD/sd.c:114
    GPIOA_ModeCfg(GPIO_Pin_15, GPIO_ModeIN_Floating);
    14de:	4581                	li	a1,0
    14e0:	6521                	lui	a0,0x8
    14e2:	69a000ef          	jal	ra,1b7c <GPIOA_ModeCfg>
E:\Works\NSCAM\obj/../SD/sd.c:115
    SPI0_MasterDefInit();
    14e6:	0bf000ef          	jal	ra,1da4 <SPI0_MasterDefInit>
E:\Works\NSCAM\obj/../SD/sd.c:116
    SPI0_DataMode(Mode0_HighBitINFront);
    14ea:	4505                	li	a0,1
    14ec:	0eb000ef          	jal	ra,1dd6 <SPI0_DataMode>
E:\Works\NSCAM\obj/../SD/sd.c:119
    GPIOB_ModeCfg(GPIO_Pin_8, GPIO_ModeIN_Floating);
    14f0:	4581                	li	a1,0
    14f2:	10000513          	li	a0,256
    14f6:	79a000ef          	jal	ra,1c90 <GPIOB_ModeCfg>
E:\Works\NSCAM\obj/../SD/sd.c:121
    spiInit(0);
    14fa:	4501                	li	a0,0
    14fc:	3765                	jal	14a4 <spiInit>
E:\Works\NSCAM\obj/../SD/sd.c:123
    _sd_deselect(p);
    14fe:	44a9                	li	s1,10
    1500:	c3dff0ef          	jal	ra,113c <_sd_deselect.constprop.7>
E:\Works\NSCAM\obj/../SD/sd.c:125 (discriminator 3)
        _sd_transfer(p, 0xFF);
    1504:	14fd                	addi	s1,s1,-1
    1506:	0ff00513          	li	a0,255
    150a:	0ff4f493          	andi	s1,s1,255
    150e:	c07ff0ef          	jal	ra,1114 <_sd_transfer.constprop.6>
E:\Works\NSCAM\obj/../SD/sd.c:124 (discriminator 3)
    for (uint8_t i = 0; i < 10; i++) {
    1512:	f8ed                	bnez	s1,1504 <_sd_init+0x4c>
    1514:	20000493          	li	s1,512
E:\Works\NSCAM\obj/../SD/sd.c:133
        if (response == STATE_IDLE) break;
    1518:	4905                	li	s2,1
E:\Works\NSCAM\obj/../SD/sd.c:132
        response = _sd_cmd(p, CMD_RESET, 0);
    151a:	4601                	li	a2,0
    151c:	4581                	li	a1,0
    151e:	8522                	mv	a0,s0
    1520:	3955                	jal	11d4 <_sd_cmd>
E:\Works\NSCAM\obj/../SD/sd.c:133
        if (response == STATE_IDLE) break;
    1522:	01250863          	beq	a0,s2,1532 <_sd_init+0x7a>
E:\Works\NSCAM\obj/../SD/sd.c:134
        if (i == 0x01FF) {
    1526:	14fd                	addi	s1,s1,-1
    1528:	04c2                	slli	s1,s1,0x10
    152a:	80c1                	srli	s1,s1,0x10
    152c:	f4fd                	bnez	s1,151a <_sd_init+0x62>
E:\Works\NSCAM\obj/../SD/sd.c:135
            return 7;
    152e:	449d                	li	s1,7
    1530:	a869                	j	15ca <_sd_init+0x112>
E:\Works\NSCAM\obj/../SD/sd.c:139
    _sd_select(p);
    1532:	bd5ff0ef          	jal	ra,1106 <_sd_select.constprop.5>
E:\Works\NSCAM\obj/../SD/sd.c:140
    response = _sd_cmd_ncs_(p, CMD_VER, 0x1AA, 0x87);
    1536:	08700693          	li	a3,135
    153a:	1aa00613          	li	a2,426
    153e:	45a1                	li	a1,8
    1540:	8522                	mv	a0,s0
    1542:	3b0d                	jal	1274 <_sd_cmd_ncs_>
E:\Works\NSCAM\obj/../SD/sd.c:142
    if (response == VER_1) {
    1544:	4795                	li	a5,5
E:\Works\NSCAM\obj/../SD/sd.c:140
    response = _sd_cmd_ncs_(p, CMD_VER, 0x1AA, 0x87);
    1546:	84aa                	mv	s1,a0
E:\Works\NSCAM\obj/../SD/sd.c:142
    if (response == VER_1) {
    1548:	0cf51163          	bne	a0,a5,160a <_sd_init+0x152>
E:\Works\NSCAM\obj/../SD/sd.c:143
        p->type = TYPE_V1;
    154c:	01242023          	sw	s2,0(s0) # 10000 <_data_lma+0x722c>
E:\Works\NSCAM\obj/../SD/sd.c:145
        _sd_deselect(p);
    1550:	bedff0ef          	jal	ra,113c <_sd_deselect.constprop.7>
E:\Works\NSCAM\obj/../SD/sd.c:146
        _sd_transfer(p, 0xFF);
    1554:	0ff00513          	li	a0,255
    1558:	bbdff0ef          	jal	ra,1114 <_sd_transfer.constprop.6>
E:\Works\NSCAM\obj/../SD/sd.c:148
        for (uint16_t i = 0; ; i++) {
    155c:	4901                	li	s2,0
E:\Works\NSCAM\obj/../SD/sd.c:150
            if (i < 0x01FF) {
    155e:	1fe00993          	li	s3,510
E:\Works\NSCAM\obj/../SD/sd.c:162
            } else if (i < 0x03FF) {
    1562:	3fe00a13          	li	s4,1022
E:\Works\NSCAM\obj/../SD/sd.c:149
            mDelaymS(5);
    1566:	4515                	li	a0,5
    1568:	231000ef          	jal	ra,1f98 <mDelaymS>
E:\Works\NSCAM\obj/../SD/sd.c:150
            if (i < 0x01FF) {
    156c:	0729e963          	bltu	s3,s2,15de <_sd_init+0x126>
E:\Works\NSCAM\obj/../SD/sd.c:151
                _sd_select(p);
    1570:	b97ff0ef          	jal	ra,1106 <_sd_select.constprop.5>
E:\Works\NSCAM\obj/../SD/sd.c:152
                response = _sd_cmd_ncs_(p, CMD_ACMD, 0, 0);
    1574:	4681                	li	a3,0
    1576:	4601                	li	a2,0
    1578:	03700593          	li	a1,55
    157c:	8522                	mv	a0,s0
    157e:	39dd                	jal	1274 <_sd_cmd_ncs_>
    1580:	c62a                	sw	a0,12(sp)
E:\Works\NSCAM\obj/../SD/sd.c:153
                _sd_deselect(p);
    1582:	bbbff0ef          	jal	ra,113c <_sd_deselect.constprop.7>
E:\Works\NSCAM\obj/../SD/sd.c:154
                if (response == STATE_IDLE) {
    1586:	4532                	lw	a0,12(sp)
    1588:	4785                	li	a5,1
    158a:	18f51163          	bne	a0,a5,170c <_sd_init+0x254>
E:\Works\NSCAM\obj/../SD/sd.c:155
                    _sd_select(p);
    158e:	b79ff0ef          	jal	ra,1106 <_sd_select.constprop.5>
E:\Works\NSCAM\obj/../SD/sd.c:156
                    response = _sd_cmd_ncs_(p, CMD_AINIT, 0, 0);
    1592:	4681                	li	a3,0
    1594:	4601                	li	a2,0
    1596:	02900593          	li	a1,41
    159a:	8522                	mv	a0,s0
    159c:	39e1                	jal	1274 <_sd_cmd_ncs_>
    159e:	c62a                	sw	a0,12(sp)
E:\Works\NSCAM\obj/../SD/sd.c:157
                    _sd_deselect(p);
    15a0:	b9dff0ef          	jal	ra,113c <_sd_deselect.constprop.7>
E:\Works\NSCAM\obj/../SD/sd.c:158
                    if (response == STATE_READY) break;
    15a4:	4532                	lw	a0,12(sp)
    15a6:	ed29                	bnez	a0,1600 <_sd_init+0x148>
E:\Works\NSCAM\obj/../SD/sd.c:174
        _sd_deselect(p);
    15a8:	b95ff0ef          	jal	ra,113c <_sd_deselect.constprop.7>
E:\Works\NSCAM\obj/../SD/sd.c:176
        spiInit(1);
    15ac:	4505                	li	a0,1
    15ae:	3ddd                	jal	14a4 <spiInit>
E:\Works\NSCAM\obj/../SD/sd.c:177
        _sd_transfer(p, 0xFF);
    15b0:	0ff00513          	li	a0,255
    15b4:	b61ff0ef          	jal	ra,1114 <_sd_transfer.constprop.6>
E:\Works\NSCAM\obj/../SD/sd.c:179
        response = _sd_cmd(p, CMD_SECTOR, 512);
    15b8:	20000613          	li	a2,512
    15bc:	45c1                	li	a1,16
    15be:	8522                	mv	a0,s0
    15c0:	c15ff0ef          	jal	ra,11d4 <_sd_cmd>
E:\Works\NSCAM\obj/../SD/sd.c:182
            return 4;
    15c4:	4491                	li	s1,4
E:\Works\NSCAM\obj/../SD/sd.c:181
        if (response != STATE_READY) {
    15c6:	12050f63          	beqz	a0,1704 <_sd_init+0x24c>
E:\Works\NSCAM\obj/../SD/sd.c:241
}
    15ca:	50b2                	lw	ra,44(sp)
    15cc:	5422                	lw	s0,40(sp)
    15ce:	8526                	mv	a0,s1
    15d0:	5902                	lw	s2,32(sp)
    15d2:	5492                	lw	s1,36(sp)
    15d4:	49f2                	lw	s3,28(sp)
    15d6:	4a62                	lw	s4,24(sp)
    15d8:	4ad2                	lw	s5,20(sp)
    15da:	6145                	addi	sp,sp,48
    15dc:	8082                	ret
E:\Works\NSCAM\obj/../SD/sd.c:162
            } else if (i < 0x03FF) {
    15de:	ff2a66e3          	bltu	s4,s2,15ca <_sd_init+0x112>
E:\Works\NSCAM\obj/../SD/sd.c:163
                _sd_select(p);
    15e2:	b25ff0ef          	jal	ra,1106 <_sd_select.constprop.5>
E:\Works\NSCAM\obj/../SD/sd.c:164
                response = _sd_cmd_ncs_(p, CMD_INIT, 0, 0);
    15e6:	4681                	li	a3,0
    15e8:	4601                	li	a2,0
    15ea:	4585                	li	a1,1
    15ec:	8522                	mv	a0,s0
    15ee:	3159                	jal	1274 <_sd_cmd_ncs_>
    15f0:	c62a                	sw	a0,12(sp)
E:\Works\NSCAM\obj/../SD/sd.c:165
                _sd_deselect(p);
    15f2:	b4bff0ef          	jal	ra,113c <_sd_deselect.constprop.7>
E:\Works\NSCAM\obj/../SD/sd.c:166
                if (response == STATE_READY) {
    15f6:	4532                	lw	a0,12(sp)
    15f8:	e501                	bnez	a0,1600 <_sd_init+0x148>
E:\Works\NSCAM\obj/../SD/sd.c:167
                    p->type = TYPE_MMC;
    15fa:	00042023          	sw	zero,0(s0)
E:\Works\NSCAM\obj/../SD/sd.c:168
                    break;
    15fe:	b76d                	j	15a8 <_sd_init+0xf0>
E:\Works\NSCAM\obj/../SD/sd.c:148
        for (uint16_t i = 0; ; i++) {
    1600:	0905                	addi	s2,s2,1
    1602:	0942                	slli	s2,s2,0x10
    1604:	01095913          	srli	s2,s2,0x10
E:\Works\NSCAM\obj/../SD/sd.c:149
            mDelaymS(5);
    1608:	bfb9                	j	1566 <_sd_init+0xae>
E:\Works\NSCAM\obj/../SD/sd.c:184
    } else if (response == VER_2) {
    160a:	0f251d63          	bne	a0,s2,1704 <_sd_init+0x24c>
E:\Works\NSCAM\obj/../SD/sd.c:185
        buf[0] = _sd_transfer(p, 0xFF);
    160e:	0ff00513          	li	a0,255
    1612:	b03ff0ef          	jal	ra,1114 <_sd_transfer.constprop.6>
E:\Works\NSCAM\obj/../SD/sd.c:186
        buf[1] = _sd_transfer(p, 0xFF);
    1616:	0ff00513          	li	a0,255
    161a:	afbff0ef          	jal	ra,1114 <_sd_transfer.constprop.6>
E:\Works\NSCAM\obj/../SD/sd.c:187
        buf[2] = _sd_transfer(p, 0xFF);
    161e:	0ff00513          	li	a0,255
    1622:	af3ff0ef          	jal	ra,1114 <_sd_transfer.constprop.6>
    1626:	89aa                	mv	s3,a0
E:\Works\NSCAM\obj/../SD/sd.c:188
        buf[3] = _sd_transfer(p, 0xFF);
    1628:	0ff00513          	li	a0,255
    162c:	ae9ff0ef          	jal	ra,1114 <_sd_transfer.constprop.6>
    1630:	84aa                	mv	s1,a0
E:\Works\NSCAM\obj/../SD/sd.c:190
        _sd_deselect(p);
    1632:	b0bff0ef          	jal	ra,113c <_sd_deselect.constprop.7>
E:\Works\NSCAM\obj/../SD/sd.c:191
        _sd_transfer(p, 0xFF);
    1636:	0ff00513          	li	a0,255
    163a:	adbff0ef          	jal	ra,1114 <_sd_transfer.constprop.6>
E:\Works\NSCAM\obj/../SD/sd.c:193
        if (buf[2] == 0x01 && buf[3] == 0xAA) {
    163e:	0d299363          	bne	s3,s2,1704 <_sd_init+0x24c>
E:\Works\NSCAM\obj/../SD/sd.c:193 (discriminator 1)
    1642:	0aa00793          	li	a5,170
    1646:	0af49f63          	bne	s1,a5,1704 <_sd_init+0x24c>
    164a:	20000993          	li	s3,512
E:\Works\NSCAM\obj/../SD/sd.c:194
            uint8_t retry = 0;
    164e:	4901                	li	s2,0
E:\Works\NSCAM\obj/../SD/sd.c:201
                    if (response == STATE_IDLE) {
    1650:	4a05                	li	s4,1
E:\Works\NSCAM\obj/../SD/sd.c:207
                        if (retry < 10) {
    1652:	4aa5                	li	s5,9
E:\Works\NSCAM\obj/../SD/sd.c:196
                mDelaymS(5);
    1654:	19fd                	addi	s3,s3,-1
    1656:	09c2                	slli	s3,s3,0x10
    1658:	4515                	li	a0,5
    165a:	0109d993          	srli	s3,s3,0x10
    165e:	13b000ef          	jal	ra,1f98 <mDelaymS>
E:\Works\NSCAM\obj/../SD/sd.c:197
                if (i < 0x01FF) {
    1662:	0a098763          	beqz	s3,1710 <_sd_init+0x258>
E:\Works\NSCAM\obj/../SD/sd.c:198
                    _sd_select(p);
    1666:	aa1ff0ef          	jal	ra,1106 <_sd_select.constprop.5>
E:\Works\NSCAM\obj/../SD/sd.c:199
                    response = _sd_cmd_ncs_(p, CMD_ACMD, 0, 0);
    166a:	4681                	li	a3,0
    166c:	4601                	li	a2,0
    166e:	03700593          	li	a1,55
    1672:	8522                	mv	a0,s0
    1674:	c01ff0ef          	jal	ra,1274 <_sd_cmd_ncs_>
    1678:	84aa                	mv	s1,a0
E:\Works\NSCAM\obj/../SD/sd.c:200
                    _sd_deselect(p);
    167a:	ac3ff0ef          	jal	ra,113c <_sd_deselect.constprop.7>
E:\Works\NSCAM\obj/../SD/sd.c:201
                    if (response == STATE_IDLE) {
    167e:	03449e63          	bne	s1,s4,16ba <_sd_init+0x202>
E:\Works\NSCAM\obj/../SD/sd.c:202
                        _sd_select(p);
    1682:	a85ff0ef          	jal	ra,1106 <_sd_select.constprop.5>
E:\Works\NSCAM\obj/../SD/sd.c:203
                        response = _sd_cmd_ncs_(p, CMD_AINIT, 0x40000000, 0);
    1686:	4681                	li	a3,0
    1688:	40000637          	lui	a2,0x40000
    168c:	02900593          	li	a1,41
    1690:	8522                	mv	a0,s0
    1692:	be3ff0ef          	jal	ra,1274 <_sd_cmd_ncs_>
    1696:	c62a                	sw	a0,12(sp)
E:\Works\NSCAM\obj/../SD/sd.c:204
                        _sd_deselect(p);
    1698:	aa5ff0ef          	jal	ra,113c <_sd_deselect.constprop.7>
E:\Works\NSCAM\obj/../SD/sd.c:205
                        if (response == STATE_READY) break;
    169c:	4532                	lw	a0,12(sp)
    169e:	f95d                	bnez	a0,1654 <_sd_init+0x19c>
E:\Works\NSCAM\obj/../SD/sd.c:218
            _sd_select(p);
    16a0:	a67ff0ef          	jal	ra,1106 <_sd_select.constprop.5>
E:\Works\NSCAM\obj/../SD/sd.c:219
            response = _sd_cmd_ncs_(p, CMD_OCR, 0, 0);
    16a4:	4681                	li	a3,0
    16a6:	4601                	li	a2,0
    16a8:	03a00593          	li	a1,58
    16ac:	8522                	mv	a0,s0
    16ae:	bc7ff0ef          	jal	ra,1274 <_sd_cmd_ncs_>
E:\Works\NSCAM\obj/../SD/sd.c:220
            if (response != STATE_READY) {
    16b2:	c911                	beqz	a0,16c6 <_sd_init+0x20e>
E:\Works\NSCAM\obj/../SD/sd.c:221
                _sd_deselect(p);
    16b4:	a89ff0ef          	jal	ra,113c <_sd_deselect.constprop.7>
E:\Works\NSCAM\obj/../SD/sd.c:222
                return 1;
    16b8:	bf09                	j	15ca <_sd_init+0x112>
E:\Works\NSCAM\obj/../SD/sd.c:207
                        if (retry < 10) {
    16ba:	052aed63          	bltu	s5,s2,1714 <_sd_init+0x25c>
E:\Works\NSCAM\obj/../SD/sd.c:208
                            retry += 1;
    16be:	0905                	addi	s2,s2,1
    16c0:	0ff97913          	andi	s2,s2,255
E:\Works\NSCAM\obj/../SD/sd.c:196
                mDelaymS(5);
    16c4:	bf41                	j	1654 <_sd_init+0x19c>
E:\Works\NSCAM\obj/../SD/sd.c:224
            buf[0] = _sd_transfer(p, 0xFF);
    16c6:	0ff00513          	li	a0,255
    16ca:	a4bff0ef          	jal	ra,1114 <_sd_transfer.constprop.6>
    16ce:	84aa                	mv	s1,a0
E:\Works\NSCAM\obj/../SD/sd.c:225
            buf[1] = _sd_transfer(p, 0xFF);
    16d0:	0ff00513          	li	a0,255
    16d4:	a41ff0ef          	jal	ra,1114 <_sd_transfer.constprop.6>
E:\Works\NSCAM\obj/../SD/sd.c:226
            buf[2] = _sd_transfer(p, 0xFF);
    16d8:	0ff00513          	li	a0,255
    16dc:	a39ff0ef          	jal	ra,1114 <_sd_transfer.constprop.6>
E:\Works\NSCAM\obj/../SD/sd.c:227
            buf[3] = _sd_transfer(p, 0xFF);
    16e0:	0ff00513          	li	a0,255
    16e4:	a31ff0ef          	jal	ra,1114 <_sd_transfer.constprop.6>
E:\Works\NSCAM\obj/../SD/sd.c:229
            _sd_deselect(p);
    16e8:	a55ff0ef          	jal	ra,113c <_sd_deselect.constprop.7>
E:\Works\NSCAM\obj/../SD/sd.c:230
            _sd_transfer(p, 0xFF);
    16ec:	0ff00513          	li	a0,255
    16f0:	a25ff0ef          	jal	ra,1114 <_sd_transfer.constprop.6>
E:\Works\NSCAM\obj/../SD/sd.c:232
            p->type = (buf[0] & 0x40) ? TYPE_V2_SDHC : TYPE_V2;
    16f4:	0404f493          	andi	s1,s1,64
    16f8:	4791                	li	a5,4
    16fa:	e091                	bnez	s1,16fe <_sd_init+0x246>
    16fc:	4789                	li	a5,2
E:\Works\NSCAM\obj/../SD/sd.c:232 (discriminator 4)
    16fe:	c01c                	sw	a5,0(s0)
E:\Works\NSCAM\obj/../SD/sd.c:234 (discriminator 4)
            spiInit(1);
    1700:	4505                	li	a0,1
    1702:	334d                	jal	14a4 <spiInit>
E:\Works\NSCAM\obj/../SD/sd.c:238
    _sd_deselect(p);
    1704:	a39ff0ef          	jal	ra,113c <_sd_deselect.constprop.7>
E:\Works\NSCAM\obj/../SD/sd.c:240
    return 0;
    1708:	4481                	li	s1,0
    170a:	b5c1                	j	15ca <_sd_init+0x112>
E:\Works\NSCAM\obj/../SD/sd.c:160
                    return 6;
    170c:	4499                	li	s1,6
    170e:	bd75                	j	15ca <_sd_init+0x112>
E:\Works\NSCAM\obj/../SD/sd.c:214
                    return 2;
    1710:	4489                	li	s1,2
    1712:	bd65                	j	15ca <_sd_init+0x112>
E:\Works\NSCAM\obj/../SD/sd.c:211
                        return 3;
    1714:	448d                	li	s1,3
    1716:	bd55                	j	15ca <_sd_init+0x112>

00001718 <_sd_receive_ncs_>:
_sd_receive_ncs_():
E:\Works\NSCAM\obj/../SD/sd.c:243
uint8_t _sd_receive_ncs_(pSD* p, uint8_t* data, uint16_t length) {
    1718:	1101                	addi	sp,sp,-32
    171a:	cc22                	sw	s0,24(sp)
E:\Works\NSCAM\obj/../SD/sd.c:246
    while (_sd_transfer(p, 0xFF) != 0xFE) {
    171c:	6441                	lui	s0,0x10
E:\Works\NSCAM\obj/../SD/sd.c:243
uint8_t _sd_receive_ncs_(pSD* p, uint8_t* data, uint16_t length) {
    171e:	ca26                	sw	s1,20(sp)
    1720:	c84a                	sw	s2,16(sp)
    1722:	c64e                	sw	s3,12(sp)
    1724:	ce06                	sw	ra,28(sp)
    1726:	892e                	mv	s2,a1
    1728:	84b2                	mv	s1,a2
E:\Works\NSCAM\obj/../SD/sd.c:246
    while (_sd_transfer(p, 0xFF) != 0xFE) {
    172a:	147d                	addi	s0,s0,-1
    172c:	0fe00993          	li	s3,254
    1730:	0ff00513          	li	a0,255
    1734:	9e1ff0ef          	jal	ra,1114 <_sd_transfer.constprop.6>
    1738:	03351263          	bne	a0,s3,175c <_sd_receive_ncs_+0x44>
    173c:	4401                	li	s0,0
E:\Works\NSCAM\obj/../SD/sd.c:254 (discriminator 1)
    for (uint16_t i = 0; i < length; i++) {
    173e:	01041793          	slli	a5,s0,0x10
    1742:	83c1                	srli	a5,a5,0x10
E:\Works\NSCAM\obj/../SD/sd.c:255 (discriminator 1)
        *data++ = _sd_transfer(p, 0xFF);
    1744:	0ff00513          	li	a0,255
E:\Works\NSCAM\obj/../SD/sd.c:254 (discriminator 1)
    for (uint16_t i = 0; i < length; i++) {
    1748:	0297ef63          	bltu	a5,s1,1786 <_sd_receive_ncs_+0x6e>
E:\Works\NSCAM\obj/../SD/sd.c:258
    _sd_transfer(p, 0xFF); //CRC1
    174c:	9c9ff0ef          	jal	ra,1114 <_sd_transfer.constprop.6>
E:\Works\NSCAM\obj/../SD/sd.c:259
    _sd_transfer(p, 0xFF); //CRC2
    1750:	0ff00513          	li	a0,255
    1754:	9c1ff0ef          	jal	ra,1114 <_sd_transfer.constprop.6>
E:\Works\NSCAM\obj/../SD/sd.c:261
    return 0;
    1758:	4501                	li	a0,0
    175a:	a839                	j	1778 <_sd_receive_ncs_+0x60>
E:\Works\NSCAM\obj/../SD/sd.c:247
        mDelayuS(1);
    175c:	147d                	addi	s0,s0,-1
    175e:	0442                	slli	s0,s0,0x10
    1760:	4505                	li	a0,1
    1762:	8041                	srli	s0,s0,0x10
    1764:	00b000ef          	jal	ra,1f6e <mDelayuS>
E:\Works\NSCAM\obj/../SD/sd.c:248
        if (++retry > 0xFFFE) {
    1768:	f461                	bnez	s0,1730 <_sd_receive_ncs_+0x18>
E:\Works\NSCAM\obj/../SD/sd.c:249
            _sd_deselect(p);
    176a:	9d3ff0ef          	jal	ra,113c <_sd_deselect.constprop.7>
E:\Works\NSCAM\obj/../SD/sd.c:250
            _sd_transfer(p, 0xFF);
    176e:	0ff00513          	li	a0,255
    1772:	9a3ff0ef          	jal	ra,1114 <_sd_transfer.constprop.6>
    1776:	4505                	li	a0,1
E:\Works\NSCAM\obj/../SD/sd.c:262
}
    1778:	40f2                	lw	ra,28(sp)
    177a:	4462                	lw	s0,24(sp)
    177c:	44d2                	lw	s1,20(sp)
    177e:	4942                	lw	s2,16(sp)
    1780:	49b2                	lw	s3,12(sp)
    1782:	6105                	addi	sp,sp,32
    1784:	8082                	ret
E:\Works\NSCAM\obj/../SD/sd.c:255 (discriminator 3)
        *data++ = _sd_transfer(p, 0xFF);
    1786:	98fff0ef          	jal	ra,1114 <_sd_transfer.constprop.6>
    178a:	008907b3          	add	a5,s2,s0
    178e:	00a78023          	sb	a0,0(a5)
    1792:	0405                	addi	s0,s0,1
    1794:	b76d                	j	173e <_sd_receive_ncs_+0x26>

00001796 <_sd_cid.part.2>:
_sd_cid():
E:\Works\NSCAM\obj/../SD/sd.c:264
uint8_t _sd_cid(pSD* p, uint8_t* cid) {
    1796:	1101                	addi	sp,sp,-32
    1798:	cc22                	sw	s0,24(sp)
    179a:	842a                	mv	s0,a0
E:\Works\NSCAM\obj/../SD/sd.c:274
    _sd_transfer(p, 0xFF);
    179c:	0ff00513          	li	a0,255
E:\Works\NSCAM\obj/../SD/sd.c:264
uint8_t _sd_cid(pSD* p, uint8_t* cid) {
    17a0:	ce06                	sw	ra,28(sp)
    17a2:	c62e                	sw	a1,12(sp)
E:\Works\NSCAM\obj/../SD/sd.c:274
    _sd_transfer(p, 0xFF);
    17a4:	971ff0ef          	jal	ra,1114 <_sd_transfer.constprop.6>
E:\Works\NSCAM\obj/../SD/sd.c:275
    _sd_select(p);
    17a8:	95fff0ef          	jal	ra,1106 <_sd_select.constprop.5>
E:\Works\NSCAM\obj/../SD/sd.c:276
    _sd_receive_ncs_(p, cid, 16);
    17ac:	45b2                	lw	a1,12(sp)
    17ae:	4641                	li	a2,16
    17b0:	8522                	mv	a0,s0
    17b2:	379d                	jal	1718 <_sd_receive_ncs_>
E:\Works\NSCAM\obj/../SD/sd.c:277
    _sd_deselect(p);
    17b4:	989ff0ef          	jal	ra,113c <_sd_deselect.constprop.7>
E:\Works\NSCAM\obj/../SD/sd.c:278
    _sd_transfer(p, 0xFF);
    17b8:	0ff00513          	li	a0,255
    17bc:	959ff0ef          	jal	ra,1114 <_sd_transfer.constprop.6>
E:\Works\NSCAM\obj/../SD/sd.c:281
}
    17c0:	40f2                	lw	ra,28(sp)
    17c2:	4462                	lw	s0,24(sp)
    17c4:	4501                	li	a0,0
    17c6:	6105                	addi	sp,sp,32
    17c8:	8082                	ret

000017ca <_sd_csd>:
_sd_csd():
E:\Works\NSCAM\obj/../SD/sd.c:283
uint8_t _sd_csd(pSD* p, uint8_t* csd) {
    17ca:	1141                	addi	sp,sp,-16
    17cc:	c04a                	sw	s2,0(sp)
E:\Works\NSCAM\obj/../SD/sd.c:286
    response = _sd_cmd(p, CMD_CSD, 0);
    17ce:	4601                	li	a2,0
E:\Works\NSCAM\obj/../SD/sd.c:283
uint8_t _sd_csd(pSD* p, uint8_t* csd) {
    17d0:	892e                	mv	s2,a1
E:\Works\NSCAM\obj/../SD/sd.c:286
    response = _sd_cmd(p, CMD_CSD, 0);
    17d2:	45a5                	li	a1,9
E:\Works\NSCAM\obj/../SD/sd.c:283
uint8_t _sd_csd(pSD* p, uint8_t* csd) {
    17d4:	c226                	sw	s1,4(sp)
    17d6:	c606                	sw	ra,12(sp)
    17d8:	c422                	sw	s0,8(sp)
    17da:	84aa                	mv	s1,a0
E:\Works\NSCAM\obj/../SD/sd.c:286
    response = _sd_cmd(p, CMD_CSD, 0);
    17dc:	9f9ff0ef          	jal	ra,11d4 <_sd_cmd>
E:\Works\NSCAM\obj/../SD/sd.c:287
    if (response != STATE_READY) {
    17e0:	e909                	bnez	a0,17f2 <_sd_csd+0x28>
E:\Works\NSCAM\obj/../SD/sd.c:300
}
    17e2:	4422                	lw	s0,8(sp)
    17e4:	40b2                	lw	ra,12(sp)
    17e6:	85ca                	mv	a1,s2
    17e8:	8526                	mv	a0,s1
    17ea:	4902                	lw	s2,0(sp)
    17ec:	4492                	lw	s1,4(sp)
    17ee:	0141                	addi	sp,sp,16
    17f0:	b75d                	j	1796 <_sd_cid.part.2>
    17f2:	842a                	mv	s0,a0
E:\Works\NSCAM\obj/../SD/sd.c:288
        _sd_deselect(p);
    17f4:	949ff0ef          	jal	ra,113c <_sd_deselect.constprop.7>
E:\Works\NSCAM\obj/../SD/sd.c:289
        _sd_transfer(p, 0xFF);
    17f8:	0ff00513          	li	a0,255
    17fc:	919ff0ef          	jal	ra,1114 <_sd_transfer.constprop.6>
E:\Works\NSCAM\obj/../SD/sd.c:300
}
    1800:	8522                	mv	a0,s0
    1802:	40b2                	lw	ra,12(sp)
    1804:	4422                	lw	s0,8(sp)
    1806:	4492                	lw	s1,4(sp)
    1808:	4902                	lw	s2,0(sp)
    180a:	0141                	addi	sp,sp,16
    180c:	8082                	ret

0000180e <_sd_size>:
_sd_size():
E:\Works\NSCAM\obj/../SD/sd.c:302
uint32_t _sd_size(pSD* p) {
    180e:	1101                	addi	sp,sp,-32
E:\Works\NSCAM\obj/../SD/sd.c:306
    if (_sd_csd(p, csd) != 0) {
    1810:	858a                	mv	a1,sp
E:\Works\NSCAM\obj/../SD/sd.c:302
uint32_t _sd_size(pSD* p) {
    1812:	ce06                	sw	ra,28(sp)
E:\Works\NSCAM\obj/../SD/sd.c:306
    if (_sd_csd(p, csd) != 0) {
    1814:	3f5d                	jal	17ca <_sd_csd>
    1816:	ed3d                	bnez	a0,1894 <_sd_size+0x86>
E:\Works\NSCAM\obj/../SD/sd.c:310
    if ((csd[0] & 0xC0) == 0x40) {
    1818:	00014783          	lbu	a5,0(sp)
    181c:	04000693          	li	a3,64
    1820:	00814503          	lbu	a0,8(sp)
    1824:	0c07f793          	andi	a5,a5,192
    1828:	00914703          	lbu	a4,9(sp)
    182c:	00d79963          	bne	a5,a3,183e <_sd_size+0x30>
E:\Works\NSCAM\obj/../SD/sd.c:311
        size = ((((uint32_t)csd[8]) << 8) + (uint32_t)csd[9] + 1) * 0x00000400;
    1830:	0522                	slli	a0,a0,0x8
    1832:	0705                	addi	a4,a4,1
    1834:	953a                	add	a0,a0,a4
    1836:	052a                	slli	a0,a0,0xa
E:\Works\NSCAM\obj/../SD/sd.c:349
}
    1838:	40f2                	lw	ra,28(sp)
    183a:	6105                	addi	sp,sp,32
    183c:	8082                	ret
E:\Works\NSCAM\obj/../SD/sd.c:314
        i = csd[6] & 0x03;
    183e:	00614783          	lbu	a5,6(sp)
E:\Works\NSCAM\obj/../SD/sd.c:316
        i += csd[7];
    1842:	00714683          	lbu	a3,7(sp)
E:\Works\NSCAM\obj/../SD/sd.c:318
        i += ((csd[8] & 0xc0) >> 6);
    1846:	8119                	srli	a0,a0,0x6
E:\Works\NSCAM\obj/../SD/sd.c:314
        i = csd[6] & 0x03;
    1848:	8b8d                	andi	a5,a5,3
E:\Works\NSCAM\obj/../SD/sd.c:315
        i <<= 8;
    184a:	07a2                	slli	a5,a5,0x8
E:\Works\NSCAM\obj/../SD/sd.c:316
        i += csd[7];
    184c:	97b6                	add	a5,a5,a3
E:\Works\NSCAM\obj/../SD/sd.c:317
        i <<= 2;
    184e:	078a                	slli	a5,a5,0x2
E:\Works\NSCAM\obj/../SD/sd.c:318
        i += ((csd[8] & 0xc0) >> 6);
    1850:	953e                	add	a0,a0,a5
E:\Works\NSCAM\obj/../SD/sd.c:323
        response += ((csd[10] & 0x80) >> 7);
    1852:	00a14783          	lbu	a5,10(sp)
E:\Works\NSCAM\obj/../SD/sd.c:322
        response <<= 1;
    1856:	0706                	slli	a4,a4,0x1
    1858:	8b19                	andi	a4,a4,6
E:\Works\NSCAM\obj/../SD/sd.c:323
        response += ((csd[10] & 0x80) >> 7);
    185a:	839d                	srli	a5,a5,0x7
E:\Works\NSCAM\obj/../SD/sd.c:326
        response+=2;
    185c:	0789                	addi	a5,a5,2
    185e:	973e                	add	a4,a4,a5
E:\Works\NSCAM\obj/../SD/sd.c:327
        tmp = 1;
    1860:	4785                	li	a5,1
E:\Works\NSCAM\obj/../SD/sd.c:329
            tmp*=2;
    1862:	0786                	slli	a5,a5,0x1
E:\Works\NSCAM\obj/../SD/sd.c:330
            response--;
    1864:	177d                	addi	a4,a4,-1
E:\Works\NSCAM\obj/../SD/sd.c:329
            tmp*=2;
    1866:	07c2                	slli	a5,a5,0x10
E:\Works\NSCAM\obj/../SD/sd.c:330
            response--;
    1868:	0ff77713          	andi	a4,a4,255
E:\Works\NSCAM\obj/../SD/sd.c:329
            tmp*=2;
    186c:	83c1                	srli	a5,a5,0x10
E:\Works\NSCAM\obj/../SD/sd.c:328
        while(response) {
    186e:	fb75                	bnez	a4,1862 <_sd_size+0x54>
E:\Works\NSCAM\obj/../SD/sd.c:335
        i = csd[5] & 0x0f;
    1870:	00514703          	lbu	a4,5(sp)
E:\Works\NSCAM\obj/../SD/sd.c:332
        size = ((uint32_t)(i + 1)) * ((uint32_t)tmp);
    1874:	0505                	addi	a0,a0,1
    1876:	02f507b3          	mul	a5,a0,a5
E:\Works\NSCAM\obj/../SD/sd.c:335
        i = csd[5] & 0x0f;
    187a:	8b3d                	andi	a4,a4,15
E:\Works\NSCAM\obj/../SD/sd.c:338
        tmp = 1;
    187c:	4505                	li	a0,1
E:\Works\NSCAM\obj/../SD/sd.c:339
        while(i) {
    187e:	e701                	bnez	a4,1886 <_sd_size+0x78>
E:\Works\NSCAM\obj/../SD/sd.c:345
        size *= (uint32_t)tmp;
    1880:	02f50533          	mul	a0,a0,a5
    1884:	bf55                	j	1838 <_sd_size+0x2a>
E:\Works\NSCAM\obj/../SD/sd.c:340
            tmp *= 2;
    1886:	0506                	slli	a0,a0,0x1
E:\Works\NSCAM\obj/../SD/sd.c:341
            i--;
    1888:	177d                	addi	a4,a4,-1
E:\Works\NSCAM\obj/../SD/sd.c:340
            tmp *= 2;
    188a:	0542                	slli	a0,a0,0x10
E:\Works\NSCAM\obj/../SD/sd.c:341
            i--;
    188c:	0742                	slli	a4,a4,0x10
E:\Works\NSCAM\obj/../SD/sd.c:340
            tmp *= 2;
    188e:	8141                	srli	a0,a0,0x10
E:\Works\NSCAM\obj/../SD/sd.c:341
            i--;
    1890:	8341                	srli	a4,a4,0x10
    1892:	b7f5                	j	187e <_sd_size+0x70>
E:\Works\NSCAM\obj/../SD/sd.c:307
        return 0;
    1894:	4501                	li	a0,0
    1896:	b74d                	j	1838 <_sd_size+0x2a>

00001898 <_sd_cid>:
_sd_cid():
E:\Works\NSCAM\obj/../SD/sd.c:264
uint8_t _sd_cid(pSD* p, uint8_t* cid) {
    1898:	1141                	addi	sp,sp,-16
    189a:	c04a                	sw	s2,0(sp)
E:\Works\NSCAM\obj/../SD/sd.c:267
    response = _sd_cmd(p, CMD_CID, 0);
    189c:	4601                	li	a2,0
E:\Works\NSCAM\obj/../SD/sd.c:264
uint8_t _sd_cid(pSD* p, uint8_t* cid) {
    189e:	892e                	mv	s2,a1
E:\Works\NSCAM\obj/../SD/sd.c:267
    response = _sd_cmd(p, CMD_CID, 0);
    18a0:	45a9                	li	a1,10
E:\Works\NSCAM\obj/../SD/sd.c:264
uint8_t _sd_cid(pSD* p, uint8_t* cid) {
    18a2:	c226                	sw	s1,4(sp)
    18a4:	c606                	sw	ra,12(sp)
    18a6:	c422                	sw	s0,8(sp)
    18a8:	84aa                	mv	s1,a0
E:\Works\NSCAM\obj/../SD/sd.c:267
    response = _sd_cmd(p, CMD_CID, 0);
    18aa:	92bff0ef          	jal	ra,11d4 <_sd_cmd>
E:\Works\NSCAM\obj/../SD/sd.c:268
    if (response != STATE_READY) {
    18ae:	e909                	bnez	a0,18c0 <_sd_cid+0x28>
E:\Works\NSCAM\obj/../SD/sd.c:281
}
    18b0:	4422                	lw	s0,8(sp)
    18b2:	40b2                	lw	ra,12(sp)
    18b4:	85ca                	mv	a1,s2
    18b6:	8526                	mv	a0,s1
    18b8:	4902                	lw	s2,0(sp)
    18ba:	4492                	lw	s1,4(sp)
    18bc:	0141                	addi	sp,sp,16
    18be:	bde1                	j	1796 <_sd_cid.part.2>
    18c0:	842a                	mv	s0,a0
E:\Works\NSCAM\obj/../SD/sd.c:269
        _sd_deselect(p);
    18c2:	87bff0ef          	jal	ra,113c <_sd_deselect.constprop.7>
E:\Works\NSCAM\obj/../SD/sd.c:270
        _sd_transfer(p, 0xFF);
    18c6:	0ff00513          	li	a0,255
    18ca:	84bff0ef          	jal	ra,1114 <_sd_transfer.constprop.6>
E:\Works\NSCAM\obj/../SD/sd.c:281
}
    18ce:	8522                	mv	a0,s0
    18d0:	40b2                	lw	ra,12(sp)
    18d2:	4422                	lw	s0,8(sp)
    18d4:	4492                	lw	s1,4(sp)
    18d6:	4902                	lw	s2,0(sp)
    18d8:	0141                	addi	sp,sp,16
    18da:	8082                	ret

000018dc <_sd_read>:
_sd_read():
E:\Works\NSCAM\obj/../SD/sd.c:354
    if (p->type != TYPE_V2_SDHC) sector = sector << 9;
    18dc:	4118                	lw	a4,0(a0)
E:\Works\NSCAM\obj/../SD/sd.c:351
uint8_t _sd_read(pSD* p, uint32_t sector, uint8_t* buf) {
    18de:	1101                	addi	sp,sp,-32
    18e0:	cc22                	sw	s0,24(sp)
    18e2:	ca26                	sw	s1,20(sp)
    18e4:	ce06                	sw	ra,28(sp)
E:\Works\NSCAM\obj/../SD/sd.c:354
    if (p->type != TYPE_V2_SDHC) sector = sector << 9;
    18e6:	4791                	li	a5,4
E:\Works\NSCAM\obj/../SD/sd.c:351
uint8_t _sd_read(pSD* p, uint32_t sector, uint8_t* buf) {
    18e8:	842a                	mv	s0,a0
    18ea:	84b2                	mv	s1,a2
E:\Works\NSCAM\obj/../SD/sd.c:354
    if (p->type != TYPE_V2_SDHC) sector = sector << 9;
    18ec:	00f70363          	beq	a4,a5,18f2 <_sd_read+0x16>
E:\Works\NSCAM\obj/../SD/sd.c:354 (discriminator 1)
    18f0:	05a6                	slli	a1,a1,0x9
E:\Works\NSCAM\obj/../SD/sd.c:356
    _sd_transfer(p, 0xFF);
    18f2:	0ff00513          	li	a0,255
    18f6:	c62e                	sw	a1,12(sp)
    18f8:	81dff0ef          	jal	ra,1114 <_sd_transfer.constprop.6>
E:\Works\NSCAM\obj/../SD/sd.c:357
    _sd_select(p);
    18fc:	80bff0ef          	jal	ra,1106 <_sd_select.constprop.5>
E:\Works\NSCAM\obj/../SD/sd.c:358
    response = _sd_cmd_ncs_(p, CMD_READ, sector, 0);
    1900:	45b2                	lw	a1,12(sp)
    1902:	4681                	li	a3,0
    1904:	8522                	mv	a0,s0
    1906:	862e                	mv	a2,a1
    1908:	45c5                	li	a1,17
    190a:	96bff0ef          	jal	ra,1274 <_sd_cmd_ncs_>
    190e:	c62a                	sw	a0,12(sp)
E:\Works\NSCAM\obj/../SD/sd.c:359
    _sd_deselect(p);
    1910:	82dff0ef          	jal	ra,113c <_sd_deselect.constprop.7>
E:\Works\NSCAM\obj/../SD/sd.c:360
    if (response != STATE_READY) {
    1914:	4532                	lw	a0,12(sp)
    1916:	cd01                	beqz	a0,192e <_sd_read+0x52>
E:\Works\NSCAM\obj/../SD/sd.c:361
        _sd_transfer(p, 0xFF);
    1918:	0ff00513          	li	a0,255
    191c:	ff8ff0ef          	jal	ra,1114 <_sd_transfer.constprop.6>
E:\Works\NSCAM\obj/../SD/sd.c:362
        return 2;
    1920:	4409                	li	s0,2
E:\Works\NSCAM\obj/../SD/sd.c:375
}
    1922:	8522                	mv	a0,s0
    1924:	40f2                	lw	ra,28(sp)
    1926:	4462                	lw	s0,24(sp)
    1928:	44d2                	lw	s1,20(sp)
    192a:	6105                	addi	sp,sp,32
    192c:	8082                	ret
E:\Works\NSCAM\obj/../SD/sd.c:365
    _sd_select(p);
    192e:	fd8ff0ef          	jal	ra,1106 <_sd_select.constprop.5>
E:\Works\NSCAM\obj/../SD/sd.c:366
    response = _sd_receive_ncs_(p, buf, 512);
    1932:	20000613          	li	a2,512
    1936:	85a6                	mv	a1,s1
    1938:	8522                	mv	a0,s0
    193a:	3bf9                	jal	1718 <_sd_receive_ncs_>
    193c:	842a                	mv	s0,a0
E:\Works\NSCAM\obj/../SD/sd.c:367
    _sd_deselect(p);
    193e:	ffeff0ef          	jal	ra,113c <_sd_deselect.constprop.7>
E:\Works\NSCAM\obj/../SD/sd.c:369
        _sd_transfer(p, 0xFF);
    1942:	0ff00513          	li	a0,255
E:\Works\NSCAM\obj/../SD/sd.c:368
    if (response != STATE_READY) {
    1946:	c409                	beqz	s0,1950 <_sd_read+0x74>
E:\Works\NSCAM\obj/../SD/sd.c:369
        _sd_transfer(p, 0xFF);
    1948:	fccff0ef          	jal	ra,1114 <_sd_transfer.constprop.6>
E:\Works\NSCAM\obj/../SD/sd.c:370
        return 1;
    194c:	4405                	li	s0,1
    194e:	bfd1                	j	1922 <_sd_read+0x46>
E:\Works\NSCAM\obj/../SD/sd.c:373
    _sd_transfer(p, 0xFF);
    1950:	fc4ff0ef          	jal	ra,1114 <_sd_transfer.constprop.6>
E:\Works\NSCAM\obj/../SD/sd.c:374
    return 0;
    1954:	b7f9                	j	1922 <_sd_read+0x46>

00001956 <_sd_reads>:
_sd_reads():
E:\Works\NSCAM\obj/../SD/sd.c:427
    if (p->type != TYPE_V2_SDHC) sector = sector << 9;
    1956:	4118                	lw	a4,0(a0)
E:\Works\NSCAM\obj/../SD/sd.c:424
uint8_t _sd_reads(pSD* p, uint32_t sector, uint8_t* buf, uint16_t count) {
    1958:	7179                	addi	sp,sp,-48
    195a:	d226                	sw	s1,36(sp)
    195c:	ce4e                	sw	s3,28(sp)
    195e:	cc52                	sw	s4,24(sp)
    1960:	d606                	sw	ra,44(sp)
    1962:	d422                	sw	s0,40(sp)
    1964:	d04a                	sw	s2,32(sp)
E:\Works\NSCAM\obj/../SD/sd.c:427
    if (p->type != TYPE_V2_SDHC) sector = sector << 9;
    1966:	4791                	li	a5,4
E:\Works\NSCAM\obj/../SD/sd.c:424
uint8_t _sd_reads(pSD* p, uint32_t sector, uint8_t* buf, uint16_t count) {
    1968:	84aa                	mv	s1,a0
    196a:	89b2                	mv	s3,a2
    196c:	8a36                	mv	s4,a3
E:\Works\NSCAM\obj/../SD/sd.c:427
    if (p->type != TYPE_V2_SDHC) sector = sector << 9;
    196e:	00f70363          	beq	a4,a5,1974 <_sd_reads+0x1e>
E:\Works\NSCAM\obj/../SD/sd.c:427 (discriminator 1)
    1972:	05a6                	slli	a1,a1,0x9
E:\Works\NSCAM\obj/../SD/sd.c:429
    _sd_transfer(p, 0xFF);
    1974:	0ff00513          	li	a0,255
    1978:	c62e                	sw	a1,12(sp)
    197a:	f9aff0ef          	jal	ra,1114 <_sd_transfer.constprop.6>
E:\Works\NSCAM\obj/../SD/sd.c:430
    _sd_select(p);
    197e:	f88ff0ef          	jal	ra,1106 <_sd_select.constprop.5>
E:\Works\NSCAM\obj/../SD/sd.c:431
    response = _sd_cmd_ncs_(p, CMD_READS, sector, 0);
    1982:	45b2                	lw	a1,12(sp)
    1984:	4681                	li	a3,0
    1986:	8526                	mv	a0,s1
    1988:	862e                	mv	a2,a1
    198a:	45c9                	li	a1,18
    198c:	8e9ff0ef          	jal	ra,1274 <_sd_cmd_ncs_>
    1990:	892a                	mv	s2,a0
E:\Works\NSCAM\obj/../SD/sd.c:438
    for (uint16_t i = 0; i < count; i++) {
    1992:	4401                	li	s0,0
E:\Works\NSCAM\obj/../SD/sd.c:432
    _sd_deselect(p);
    1994:	fa8ff0ef          	jal	ra,113c <_sd_deselect.constprop.7>
E:\Works\NSCAM\obj/../SD/sd.c:433
    if (response != STATE_READY) {
    1998:	02090563          	beqz	s2,19c2 <_sd_reads+0x6c>
E:\Works\NSCAM\obj/../SD/sd.c:434
        _sd_transfer(p, 0xFF);
    199c:	0ff00513          	li	a0,255
    19a0:	f74ff0ef          	jal	ra,1114 <_sd_transfer.constprop.6>
E:\Works\NSCAM\obj/../SD/sd.c:435
        return 1;
    19a4:	4905                	li	s2,1
E:\Works\NSCAM\obj/../SD/sd.c:451
}
    19a6:	50b2                	lw	ra,44(sp)
    19a8:	5422                	lw	s0,40(sp)
    19aa:	854a                	mv	a0,s2
    19ac:	5492                	lw	s1,36(sp)
    19ae:	5902                	lw	s2,32(sp)
    19b0:	49f2                	lw	s3,28(sp)
    19b2:	4a62                	lw	s4,24(sp)
    19b4:	6145                	addi	sp,sp,48
    19b6:	8082                	ret
E:\Works\NSCAM\obj/../SD/sd.c:438
    for (uint16_t i = 0; i < count; i++) {
    19b8:	0405                	addi	s0,s0,1
    19ba:	0442                	slli	s0,s0,0x10
E:\Works\NSCAM\obj/../SD/sd.c:443
        buf += 512;
    19bc:	20098993          	addi	s3,s3,512
E:\Works\NSCAM\obj/../SD/sd.c:438
    for (uint16_t i = 0; i < count; i++) {
    19c0:	8041                	srli	s0,s0,0x10
    19c2:	008a0f63          	beq	s4,s0,19e0 <_sd_reads+0x8a>
E:\Works\NSCAM\obj/../SD/sd.c:439
        _sd_select(p);
    19c6:	f40ff0ef          	jal	ra,1106 <_sd_select.constprop.5>
E:\Works\NSCAM\obj/../SD/sd.c:440
        response = _sd_receive_ncs_(p, buf, 512);
    19ca:	20000613          	li	a2,512
    19ce:	85ce                	mv	a1,s3
    19d0:	8526                	mv	a0,s1
    19d2:	d47ff0ef          	jal	ra,1718 <_sd_receive_ncs_>
    19d6:	c62a                	sw	a0,12(sp)
E:\Works\NSCAM\obj/../SD/sd.c:441
        _sd_deselect(p);
    19d8:	f64ff0ef          	jal	ra,113c <_sd_deselect.constprop.7>
E:\Works\NSCAM\obj/../SD/sd.c:442
        if (response != STATE_READY) break;
    19dc:	4532                	lw	a0,12(sp)
    19de:	dd69                	beqz	a0,19b8 <_sd_reads+0x62>
E:\Works\NSCAM\obj/../SD/sd.c:446
    _sd_select(p);
    19e0:	f26ff0ef          	jal	ra,1106 <_sd_select.constprop.5>
E:\Works\NSCAM\obj/../SD/sd.c:447
    _sd_cmd_ncs_(p, CMD_RSE, 0, 0);
    19e4:	4681                	li	a3,0
    19e6:	4601                	li	a2,0
    19e8:	45b1                	li	a1,12
    19ea:	8526                	mv	a0,s1
    19ec:	889ff0ef          	jal	ra,1274 <_sd_cmd_ncs_>
E:\Works\NSCAM\obj/../SD/sd.c:448
    _sd_deselect(p);
    19f0:	f4cff0ef          	jal	ra,113c <_sd_deselect.constprop.7>
E:\Works\NSCAM\obj/../SD/sd.c:449
    _sd_transfer(p, 0xFF);
    19f4:	0ff00513          	li	a0,255
    19f8:	f1cff0ef          	jal	ra,1114 <_sd_transfer.constprop.6>
E:\Works\NSCAM\obj/../SD/sd.c:450
    return 0;
    19fc:	b76d                	j	19a6 <_sd_reads+0x50>

000019fe <SDInit>:
SDInit():
E:\Works\NSCAM\obj/../SD/sd.c:515

SD* SDInit() {
    19fe:	1141                	addi	sp,sp,-16
E:\Works\NSCAM\obj/../SD/sd.c:516
    pSD* p = malloc(sizeof(pSD));
    1a00:	4511                	li	a0,4
E:\Works\NSCAM\obj/../SD/sd.c:515
SD* SDInit() {
    1a02:	c606                	sw	ra,12(sp)
    1a04:	c422                	sw	s0,8(sp)
E:\Works\NSCAM\obj/../SD/sd.c:516
    pSD* p = malloc(sizeof(pSD));
    1a06:	0de050ef          	jal	ra,6ae4 <malloc>
    1a0a:	842a                	mv	s0,a0
E:\Works\NSCAM\obj/../SD/sd.c:518

    SD* c = malloc(sizeof(SD));
    1a0c:	02c00513          	li	a0,44
    1a10:	0d4050ef          	jal	ra,6ae4 <malloc>
E:\Works\NSCAM\obj/../SD/sd.c:521
    c->p = p;

    c->init = &_sd_init;
    1a14:	00001737          	lui	a4,0x1
    1a18:	4b870713          	addi	a4,a4,1208 # 14b8 <_sd_init>
    1a1c:	c158                	sw	a4,4(a0)
E:\Works\NSCAM\obj/../SD/sd.c:522
    c->avail = &_sd_avail;
    1a1e:	00001737          	lui	a4,0x1
    1a22:	0f670713          	addi	a4,a4,246 # 10f6 <_sd_avail>
    1a26:	c518                	sw	a4,8(a0)
E:\Works\NSCAM\obj/../SD/sd.c:527
#ifdef SD_USE_PRIVATE
    c->select = &_sd_select;
    c->deselect = &_sd_deselect;
#endif
    c->cid = &_sd_cid;
    1a28:	00002737          	lui	a4,0x2
    1a2c:	89870713          	addi	a4,a4,-1896 # 1898 <_sd_cid>
    1a30:	c558                	sw	a4,12(a0)
E:\Works\NSCAM\obj/../SD/sd.c:528
    c->csd = &_sd_csd;
    1a32:	00001737          	lui	a4,0x1
    1a36:	7ca70713          	addi	a4,a4,1994 # 17ca <_sd_csd>
    1a3a:	c918                	sw	a4,16(a0)
E:\Works\NSCAM\obj/../SD/sd.c:529
    c->cmd = &_sd_cmd;
    1a3c:	00001737          	lui	a4,0x1
    1a40:	1d470713          	addi	a4,a4,468 # 11d4 <_sd_cmd>
    1a44:	c958                	sw	a4,20(a0)
E:\Works\NSCAM\obj/../SD/sd.c:530
    c->size = &_sd_size;
    1a46:	00002737          	lui	a4,0x2
    1a4a:	80e70713          	addi	a4,a4,-2034 # 180e <_sd_size>
    1a4e:	cd18                	sw	a4,24(a0)
E:\Works\NSCAM\obj/../SD/sd.c:531
    c->read = &_sd_read;
    1a50:	00002737          	lui	a4,0x2
    1a54:	8dc70713          	addi	a4,a4,-1828 # 18dc <_sd_read>
    1a58:	cd58                	sw	a4,28(a0)
E:\Works\NSCAM\obj/../SD/sd.c:532
    c->write = &_sd_write;
    1a5a:	00001737          	lui	a4,0x1
    1a5e:	2ba70713          	addi	a4,a4,698 # 12ba <_sd_write>
    1a62:	d118                	sw	a4,32(a0)
E:\Works\NSCAM\obj/../SD/sd.c:533
    c->reads = &_sd_reads;
    1a64:	00002737          	lui	a4,0x2
    1a68:	95670713          	addi	a4,a4,-1706 # 1956 <_sd_reads>
E:\Works\NSCAM\obj/../SD/sd.c:519
    c->p = p;
    1a6c:	c100                	sw	s0,0(a0)
E:\Works\NSCAM\obj/../SD/sd.c:533
    c->reads = &_sd_reads;
    1a6e:	d158                	sw	a4,36(a0)
E:\Works\NSCAM\obj/../SD/sd.c:537
	c->writes = &_sd_writes;

    return c;
}
    1a70:	40b2                	lw	ra,12(sp)
    1a72:	4422                	lw	s0,8(sp)
E:\Works\NSCAM\obj/../SD/sd.c:534
	c->writes = &_sd_writes;
    1a74:	00001737          	lui	a4,0x1
    1a78:	38e70713          	addi	a4,a4,910 # 138e <_sd_writes>
    1a7c:	d518                	sw	a4,40(a0)
E:\Works\NSCAM\obj/../SD/sd.c:537
}
    1a7e:	0141                	addi	sp,sp,16
    1a80:	8082                	ret

00001a82 <SystemInit>:
SystemInit():
E:\Works\NSCAM\obj/../Peripheral/src/CH56x_clk.c:22
*******************************************************************************/
void SystemInit(uint32_t systemclck)
{	
	uint8_t sc;
	
	sc = systemclck/1000000;
    1a82:	000f47b7          	lui	a5,0xf4
    1a86:	24078793          	addi	a5,a5,576 # f4240 <_data_lma+0xeb46c>
    1a8a:	02f55533          	divu	a0,a0,a5
    1a8e:	03c00793          	li	a5,60
    1a92:	0ff57513          	andi	a0,a0,255
    1a96:	08f50c63          	beq	a0,a5,1b2e <SystemInit+0xac>
    1a9a:	00a7ed63          	bltu	a5,a0,1ab4 <SystemInit+0x32>
    1a9e:	47bd                	li	a5,15
    1aa0:	04f50363          	beq	a0,a5,1ae6 <SystemInit+0x64>
    1aa4:	47f9                	li	a5,30
    1aa6:	06f50363          	beq	a0,a5,1b0c <SystemInit+0x8a>
E:\Works\NSCAM\obj/../Peripheral/src/CH56x_clk.c:71
			
            break;
        default :
            break;		
    }	
    R8_SAFE_ACCESS_SIG = 0;
    1aaa:	400017b7          	lui	a5,0x40001
    1aae:	00078023          	sb	zero,0(a5) # 40001000 <sensor_lcd_map+0x1ffe0600>
E:\Works\NSCAM\obj/../Peripheral/src/CH56x_clk.c:72
}
    1ab2:	8082                	ret
    1ab4:	06000793          	li	a5,96
    1ab8:	08f50863          	beq	a0,a5,1b48 <SystemInit+0xc6>
    1abc:	07800793          	li	a5,120
    1ac0:	0af50163          	beq	a0,a5,1b62 <SystemInit+0xe0>
    1ac4:	05000793          	li	a5,80
    1ac8:	fef511e3          	bne	a0,a5,1aaa <SystemInit+0x28>
E:\Works\NSCAM\obj/../Peripheral/src/CH56x_clk.c:48
			R8_SAFE_ACCESS_SIG = 0x57; // enable safe access mode
    1acc:	400017b7          	lui	a5,0x40001
    1ad0:	05700713          	li	a4,87
    1ad4:	00e78023          	sb	a4,0(a5) # 40001000 <sensor_lcd_map+0x1ffe0600>
E:\Works\NSCAM\obj/../Peripheral/src/CH56x_clk.c:49
			R8_SAFE_ACCESS_SIG = 0xa8;
    1ad8:	fa800713          	li	a4,-88
    1adc:	00e78023          	sb	a4,0(a5)
E:\Works\NSCAM\obj/../Peripheral/src/CH56x_clk.c:50
			R8_CLK_PLL_DIV = 0x40 | 0x06;			
    1ae0:	04600713          	li	a4,70
    1ae4:	a081                	j	1b24 <SystemInit+0xa2>
E:\Works\NSCAM\obj/../Peripheral/src/CH56x_clk.c:27
			R8_SAFE_ACCESS_SIG = 0x57; // enable safe access mode
    1ae6:	400017b7          	lui	a5,0x40001
    1aea:	05700713          	li	a4,87
    1aee:	00e78023          	sb	a4,0(a5) # 40001000 <sensor_lcd_map+0x1ffe0600>
E:\Works\NSCAM\obj/../Peripheral/src/CH56x_clk.c:28
			R8_SAFE_ACCESS_SIG = 0xa8;
    1af2:	fa800713          	li	a4,-88
    1af6:	00e78023          	sb	a4,0(a5)
E:\Works\NSCAM\obj/../Peripheral/src/CH56x_clk.c:29
			R8_CLK_PLL_DIV = 0x40 | 0x02;			
    1afa:	04200713          	li	a4,66
    1afe:	00e78423          	sb	a4,8(a5)
E:\Works\NSCAM\obj/../Peripheral/src/CH56x_clk.c:30
			R8_CLK_CFG_CTRL = 0x80 ;
    1b02:	f8000713          	li	a4,-128
E:\Works\NSCAM\obj/../Peripheral/src/CH56x_clk.c:65
			R8_CLK_CFG_CTRL = 0x80 | RB_CLK_SEL_PLL;
    1b06:	00e78523          	sb	a4,10(a5)
E:\Works\NSCAM\obj/../Peripheral/src/CH56x_clk.c:67
            break;
    1b0a:	b745                	j	1aaa <SystemInit+0x28>
E:\Works\NSCAM\obj/../Peripheral/src/CH56x_clk.c:34
			R8_SAFE_ACCESS_SIG = 0x57; // enable safe access mode
    1b0c:	400017b7          	lui	a5,0x40001
    1b10:	05700713          	li	a4,87
    1b14:	00e78023          	sb	a4,0(a5) # 40001000 <sensor_lcd_map+0x1ffe0600>
E:\Works\NSCAM\obj/../Peripheral/src/CH56x_clk.c:35
			R8_SAFE_ACCESS_SIG = 0xa8;
    1b18:	fa800713          	li	a4,-88
    1b1c:	00e78023          	sb	a4,0(a5)
E:\Works\NSCAM\obj/../Peripheral/src/CH56x_clk.c:36
			R8_CLK_PLL_DIV = 0x40;		
    1b20:	04000713          	li	a4,64
E:\Works\NSCAM\obj/../Peripheral/src/CH56x_clk.c:64
			R8_CLK_PLL_DIV = 0x40 | 0x04;			
    1b24:	00e78423          	sb	a4,8(a5)
E:\Works\NSCAM\obj/../Peripheral/src/CH56x_clk.c:65
			R8_CLK_CFG_CTRL = 0x80 | RB_CLK_SEL_PLL;
    1b28:	f8200713          	li	a4,-126
    1b2c:	bfe9                	j	1b06 <SystemInit+0x84>
E:\Works\NSCAM\obj/../Peripheral/src/CH56x_clk.c:41
			R8_SAFE_ACCESS_SIG = 0x57; // enable safe access mode
    1b2e:	400017b7          	lui	a5,0x40001
    1b32:	05700713          	li	a4,87
    1b36:	00e78023          	sb	a4,0(a5) # 40001000 <sensor_lcd_map+0x1ffe0600>
E:\Works\NSCAM\obj/../Peripheral/src/CH56x_clk.c:42
			R8_SAFE_ACCESS_SIG = 0xa8;
    1b3a:	fa800713          	li	a4,-88
    1b3e:	00e78023          	sb	a4,0(a5)
E:\Works\NSCAM\obj/../Peripheral/src/CH56x_clk.c:43
			R8_CLK_PLL_DIV = 0x40 | 0x08;			
    1b42:	04800713          	li	a4,72
    1b46:	bff9                	j	1b24 <SystemInit+0xa2>
E:\Works\NSCAM\obj/../Peripheral/src/CH56x_clk.c:55
			R8_SAFE_ACCESS_SIG = 0x57; // enable safe access mode
    1b48:	400017b7          	lui	a5,0x40001
    1b4c:	05700713          	li	a4,87
    1b50:	00e78023          	sb	a4,0(a5) # 40001000 <sensor_lcd_map+0x1ffe0600>
E:\Works\NSCAM\obj/../Peripheral/src/CH56x_clk.c:56
			R8_SAFE_ACCESS_SIG = 0xa8;
    1b54:	fa800713          	li	a4,-88
    1b58:	00e78023          	sb	a4,0(a5)
E:\Works\NSCAM\obj/../Peripheral/src/CH56x_clk.c:57
			R8_CLK_PLL_DIV = 0x40 | 0x05;			
    1b5c:	04500713          	li	a4,69
    1b60:	b7d1                	j	1b24 <SystemInit+0xa2>
E:\Works\NSCAM\obj/../Peripheral/src/CH56x_clk.c:62
			R8_SAFE_ACCESS_SIG = 0x57; // enable safe access mode
    1b62:	400017b7          	lui	a5,0x40001
    1b66:	05700713          	li	a4,87
    1b6a:	00e78023          	sb	a4,0(a5) # 40001000 <sensor_lcd_map+0x1ffe0600>
E:\Works\NSCAM\obj/../Peripheral/src/CH56x_clk.c:63
			R8_SAFE_ACCESS_SIG = 0xa8;
    1b6e:	fa800713          	li	a4,-88
    1b72:	00e78023          	sb	a4,0(a5)
E:\Works\NSCAM\obj/../Peripheral/src/CH56x_clk.c:64
			R8_CLK_PLL_DIV = 0x40 | 0x04;			
    1b76:	04400713          	li	a4,68
    1b7a:	b76d                	j	1b24 <SystemInit+0xa2>

00001b7c <GPIOA_ModeCfg>:
GPIOA_ModeCfg():
E:\Works\NSCAM\obj/../Peripheral/src/CH56x_gpio.c:33
					GPIO_ModeOut_OP_16mA       -  16mA
* Return         : None
*******************************************************************************/
void GPIOA_ModeCfg( UINT32 pin, GPIOModeTypeDef mode )
{	
    switch(mode)
    1b7c:	47a9                	li	a5,10
    1b7e:	02b7e663          	bltu	a5,a1,1baa <GPIOA_ModeCfg+0x2e>
    1b82:	67a1                	lui	a5,0x8
    1b84:	25878793          	addi	a5,a5,600 # 8258 <__color_map+0x814>
    1b88:	058a                	slli	a1,a1,0x2
    1b8a:	95be                	add	a1,a1,a5
    1b8c:	419c                	lw	a5,0(a1)
    1b8e:	8782                	jr	a5
E:\Works\NSCAM\obj/../Peripheral/src/CH56x_gpio.c:36
    {
        case GPIO_ModeIN_Floating:
            R32_PA_PD &= ~pin;
    1b90:	400017b7          	lui	a5,0x40001
    1b94:	4bf8                	lw	a4,84(a5)
    1b96:	fff54513          	not	a0,a0
    1b9a:	8f69                	and	a4,a4,a0
    1b9c:	cbf8                	sw	a4,84(a5)
E:\Works\NSCAM\obj/../Peripheral/src/CH56x_gpio.c:37
            R32_PA_PU     &= ~pin;
    1b9e:	4bb8                	lw	a4,80(a5)
E:\Works\NSCAM\obj/../Peripheral/src/CH56x_gpio.c:65
            break;

        case GPIO_ModeIN_PD_SMT:
        	R32_PA_SMT |= pin;
            R32_PA_PD |= pin;
            R32_PA_PU     &= ~pin;
    1ba0:	8f69                	and	a4,a4,a0
    1ba2:	cbb8                	sw	a4,80(a5)
E:\Works\NSCAM\obj/../Peripheral/src/CH56x_gpio.c:66
            R32_PA_DIR    &= ~pin;
    1ba4:	43b8                	lw	a4,64(a5)
    1ba6:	8d79                	and	a0,a0,a4
E:\Works\NSCAM\obj/../Peripheral/src/CH56x_gpio.c:106
            break;

        case GPIO_ModeOut_OP_16mA:
        	R32_PA_DRV  |= pin;
            R32_PA_PD  |= pin;
            R32_PA_DIR    |= pin;
    1ba8:	c3a8                	sw	a0,64(a5)
E:\Works\NSCAM\obj/../Peripheral/src/CH56x_gpio.c:112
            break;

        default:
            break;
    }
}
    1baa:	8082                	ret
E:\Works\NSCAM\obj/../Peripheral/src/CH56x_gpio.c:42
        	R32_PA_SMT &=~ pin;
    1bac:	400017b7          	lui	a5,0x40001
    1bb0:	4ff4                	lw	a3,92(a5)
    1bb2:	fff54713          	not	a4,a0
    1bb6:	8ef9                	and	a3,a3,a4
    1bb8:	cff4                	sw	a3,92(a5)
E:\Works\NSCAM\obj/../Peripheral/src/CH56x_gpio.c:43
            R32_PA_PD &= ~pin;
    1bba:	4bf4                	lw	a3,84(a5)
E:\Works\NSCAM\obj/../Peripheral/src/CH56x_gpio.c:57
            R32_PA_PD &= ~pin;
    1bbc:	8ef9                	and	a3,a3,a4
    1bbe:	cbf4                	sw	a3,84(a5)
E:\Works\NSCAM\obj/../Peripheral/src/CH56x_gpio.c:58
            R32_PA_PU     |= pin;
    1bc0:	4bb4                	lw	a3,80(a5)
    1bc2:	8d55                	or	a0,a0,a3
    1bc4:	cba8                	sw	a0,80(a5)
    1bc6:	a831                	j	1be2 <GPIOA_ModeCfg+0x66>
E:\Works\NSCAM\obj/../Peripheral/src/CH56x_gpio.c:49
        	R32_PA_SMT &=~ pin;
    1bc8:	400017b7          	lui	a5,0x40001
    1bcc:	4ff4                	lw	a3,92(a5)
    1bce:	fff54713          	not	a4,a0
    1bd2:	8ef9                	and	a3,a3,a4
    1bd4:	cff4                	sw	a3,92(a5)
E:\Works\NSCAM\obj/../Peripheral/src/CH56x_gpio.c:50
            R32_PA_PD |= pin;
    1bd6:	4bf4                	lw	a3,84(a5)
    1bd8:	8d55                	or	a0,a0,a3
    1bda:	cbe8                	sw	a0,84(a5)
E:\Works\NSCAM\obj/../Peripheral/src/CH56x_gpio.c:51
            R32_PA_PU     &= ~pin;
    1bdc:	4bb4                	lw	a3,80(a5)
    1bde:	8ef9                	and	a3,a3,a4
    1be0:	cbb4                	sw	a3,80(a5)
E:\Works\NSCAM\obj/../Peripheral/src/CH56x_gpio.c:59
            R32_PA_DIR    &= ~pin;
    1be2:	43b4                	lw	a3,64(a5)
    1be4:	8f75                	and	a4,a4,a3
    1be6:	c3b8                	sw	a4,64(a5)
E:\Works\NSCAM\obj/../Peripheral/src/CH56x_gpio.c:60
            break;
    1be8:	8082                	ret
E:\Works\NSCAM\obj/../Peripheral/src/CH56x_gpio.c:56
        	R32_PA_SMT |= pin;
    1bea:	400017b7          	lui	a5,0x40001
    1bee:	4ff8                	lw	a4,92(a5)
    1bf0:	8f49                	or	a4,a4,a0
    1bf2:	cff8                	sw	a4,92(a5)
E:\Works\NSCAM\obj/../Peripheral/src/CH56x_gpio.c:57
            R32_PA_PD &= ~pin;
    1bf4:	4bf4                	lw	a3,84(a5)
    1bf6:	fff54713          	not	a4,a0
    1bfa:	b7c9                	j	1bbc <GPIOA_ModeCfg+0x40>
E:\Works\NSCAM\obj/../Peripheral/src/CH56x_gpio.c:63
        	R32_PA_SMT |= pin;
    1bfc:	400017b7          	lui	a5,0x40001
    1c00:	4ff8                	lw	a4,92(a5)
    1c02:	8f49                	or	a4,a4,a0
    1c04:	cff8                	sw	a4,92(a5)
E:\Works\NSCAM\obj/../Peripheral/src/CH56x_gpio.c:64
            R32_PA_PD |= pin;
    1c06:	4bf8                	lw	a4,84(a5)
    1c08:	8f49                	or	a4,a4,a0
    1c0a:	cbf8                	sw	a4,84(a5)
E:\Works\NSCAM\obj/../Peripheral/src/CH56x_gpio.c:65
            R32_PA_PU     &= ~pin;
    1c0c:	4bb8                	lw	a4,80(a5)
    1c0e:	fff54513          	not	a0,a0
    1c12:	b779                	j	1ba0 <GPIOA_ModeCfg+0x24>
E:\Works\NSCAM\obj/../Peripheral/src/CH56x_gpio.c:70
        	R32_PA_SMT |= pin;
    1c14:	400017b7          	lui	a5,0x40001
    1c18:	4ff8                	lw	a4,92(a5)
    1c1a:	8f49                	or	a4,a4,a0
    1c1c:	cff8                	sw	a4,92(a5)
E:\Works\NSCAM\obj/../Peripheral/src/CH56x_gpio.c:71
        	R32_PA_DRV &= ~pin;
    1c1e:	4fb4                	lw	a3,88(a5)
    1c20:	fff54713          	not	a4,a0
E:\Works\NSCAM\obj/../Peripheral/src/CH56x_gpio.c:85
        	R32_PA_DRV &= ~pin;
    1c24:	8ef9                	and	a3,a3,a4
E:\Works\NSCAM\obj/../Peripheral/src/CH56x_gpio.c:92
        	R32_PA_DRV |= pin;
    1c26:	cfb4                	sw	a3,88(a5)
E:\Works\NSCAM\obj/../Peripheral/src/CH56x_gpio.c:93
            R32_PA_PD &= ~pin;
    1c28:	4bf4                	lw	a3,84(a5)
    1c2a:	a821                	j	1c42 <GPIOA_ModeCfg+0xc6>
E:\Works\NSCAM\obj/../Peripheral/src/CH56x_gpio.c:77
        	R32_PA_SMT |= pin;
    1c2c:	400017b7          	lui	a5,0x40001
    1c30:	4ff8                	lw	a4,92(a5)
    1c32:	8f49                	or	a4,a4,a0
    1c34:	cff8                	sw	a4,92(a5)
E:\Works\NSCAM\obj/../Peripheral/src/CH56x_gpio.c:78
        	R32_PA_DRV |= pin;
    1c36:	4fb8                	lw	a4,88(a5)
    1c38:	8f49                	or	a4,a4,a0
    1c3a:	cfb8                	sw	a4,88(a5)
E:\Works\NSCAM\obj/../Peripheral/src/CH56x_gpio.c:79
            R32_PA_PD &= ~pin;
    1c3c:	4bf4                	lw	a3,84(a5)
    1c3e:	fff54713          	not	a4,a0
E:\Works\NSCAM\obj/../Peripheral/src/CH56x_gpio.c:93
            R32_PA_PD &= ~pin;
    1c42:	8f75                	and	a4,a4,a3
E:\Works\NSCAM\obj/../Peripheral/src/CH56x_gpio.c:105
            R32_PA_PD  |= pin;
    1c44:	cbf8                	sw	a4,84(a5)
E:\Works\NSCAM\obj/../Peripheral/src/CH56x_gpio.c:106
            R32_PA_DIR    |= pin;
    1c46:	43b8                	lw	a4,64(a5)
    1c48:	8d59                	or	a0,a0,a4
    1c4a:	bfb9                	j	1ba8 <GPIOA_ModeCfg+0x2c>
E:\Works\NSCAM\obj/../Peripheral/src/CH56x_gpio.c:84
        	R32_PA_SMT &= ~pin;
    1c4c:	400017b7          	lui	a5,0x40001
    1c50:	4ff4                	lw	a3,92(a5)
    1c52:	fff54713          	not	a4,a0
    1c56:	8ef9                	and	a3,a3,a4
    1c58:	cff4                	sw	a3,92(a5)
E:\Works\NSCAM\obj/../Peripheral/src/CH56x_gpio.c:85
        	R32_PA_DRV &= ~pin;
    1c5a:	4fb4                	lw	a3,88(a5)
    1c5c:	b7e1                	j	1c24 <GPIOA_ModeCfg+0xa8>
E:\Works\NSCAM\obj/../Peripheral/src/CH56x_gpio.c:91
        	R32_PA_SMT &= ~pin;
    1c5e:	400017b7          	lui	a5,0x40001
    1c62:	4ff4                	lw	a3,92(a5)
    1c64:	fff54713          	not	a4,a0
    1c68:	8ef9                	and	a3,a3,a4
    1c6a:	cff4                	sw	a3,92(a5)
E:\Works\NSCAM\obj/../Peripheral/src/CH56x_gpio.c:92
        	R32_PA_DRV |= pin;
    1c6c:	4fb4                	lw	a3,88(a5)
    1c6e:	8ec9                	or	a3,a3,a0
    1c70:	bf5d                	j	1c26 <GPIOA_ModeCfg+0xaa>
E:\Works\NSCAM\obj/../Peripheral/src/CH56x_gpio.c:98
        	R32_PA_DRV &= ~pin;
    1c72:	400017b7          	lui	a5,0x40001
    1c76:	4fb4                	lw	a3,88(a5)
    1c78:	fff54713          	not	a4,a0
    1c7c:	8f75                	and	a4,a4,a3
E:\Works\NSCAM\obj/../Peripheral/src/CH56x_gpio.c:104
        	R32_PA_DRV  |= pin;
    1c7e:	cfb8                	sw	a4,88(a5)
E:\Works\NSCAM\obj/../Peripheral/src/CH56x_gpio.c:105
            R32_PA_PD  |= pin;
    1c80:	4bf8                	lw	a4,84(a5)
    1c82:	8f49                	or	a4,a4,a0
    1c84:	b7c1                	j	1c44 <GPIOA_ModeCfg+0xc8>
E:\Works\NSCAM\obj/../Peripheral/src/CH56x_gpio.c:104
        	R32_PA_DRV  |= pin;
    1c86:	400017b7          	lui	a5,0x40001
    1c8a:	4fb8                	lw	a4,88(a5)
    1c8c:	8f49                	or	a4,a4,a0
    1c8e:	bfc5                	j	1c7e <GPIOA_ModeCfg+0x102>

00001c90 <GPIOB_ModeCfg>:
GPIOB_ModeCfg():
E:\Works\NSCAM\obj/../Peripheral/src/CH56x_gpio.c:135
					GPIO_ModeOut_OP_16mA       -  16mA
* Return         : None
*******************************************************************************/
void GPIOB_ModeCfg( UINT32 pin, GPIOModeTypeDef mode )
{
    switch(mode)
    1c90:	47a9                	li	a5,10
    1c92:	02b7e663          	bltu	a5,a1,1cbe <GPIOB_ModeCfg+0x2e>
    1c96:	67a1                	lui	a5,0x8
    1c98:	28478793          	addi	a5,a5,644 # 8284 <__color_map+0x840>
    1c9c:	058a                	slli	a1,a1,0x2
    1c9e:	95be                	add	a1,a1,a5
    1ca0:	419c                	lw	a5,0(a1)
    1ca2:	8782                	jr	a5
E:\Works\NSCAM\obj/../Peripheral/src/CH56x_gpio.c:138
    {
        case GPIO_ModeIN_Floating:
            R32_PB_PD &= ~pin;
    1ca4:	400017b7          	lui	a5,0x40001
    1ca8:	5bf8                	lw	a4,116(a5)
    1caa:	fff54513          	not	a0,a0
    1cae:	8f69                	and	a4,a4,a0
    1cb0:	dbf8                	sw	a4,116(a5)
E:\Works\NSCAM\obj/../Peripheral/src/CH56x_gpio.c:139
            R32_PB_PU     &= ~pin;
    1cb2:	5bb8                	lw	a4,112(a5)
E:\Works\NSCAM\obj/../Peripheral/src/CH56x_gpio.c:167
            break;

        case GPIO_ModeIN_PD_SMT:
        	R32_PB_SMT |= pin;  
            R32_PB_PD |= pin;
            R32_PB_PU     &= ~pin;
    1cb4:	8f69                	and	a4,a4,a0
    1cb6:	dbb8                	sw	a4,112(a5)
E:\Works\NSCAM\obj/../Peripheral/src/CH56x_gpio.c:168
            R32_PB_DIR    &= ~pin;
    1cb8:	53b8                	lw	a4,96(a5)
    1cba:	8d79                	and	a0,a0,a4
E:\Works\NSCAM\obj/../Peripheral/src/CH56x_gpio.c:208
            break;

        case GPIO_ModeOut_OP_16mA:
        	R32_PB_DRV |= pin;
            R32_PB_PD  |= pin;
            R32_PB_DIR    |= pin;
    1cbc:	d3a8                	sw	a0,96(a5)
E:\Works\NSCAM\obj/../Peripheral/src/CH56x_gpio.c:214
            break;

        default:
            break;
    }
}
    1cbe:	8082                	ret
E:\Works\NSCAM\obj/../Peripheral/src/CH56x_gpio.c:144
        	R32_PB_SMT &=~ pin;  
    1cc0:	400017b7          	lui	a5,0x40001
    1cc4:	5ff4                	lw	a3,124(a5)
    1cc6:	fff54713          	not	a4,a0
    1cca:	8ef9                	and	a3,a3,a4
    1ccc:	dff4                	sw	a3,124(a5)
E:\Works\NSCAM\obj/../Peripheral/src/CH56x_gpio.c:145
            R32_PB_PD &= ~pin;
    1cce:	5bf4                	lw	a3,116(a5)
E:\Works\NSCAM\obj/../Peripheral/src/CH56x_gpio.c:159
            R32_PB_PD &= ~pin;
    1cd0:	8ef9                	and	a3,a3,a4
    1cd2:	dbf4                	sw	a3,116(a5)
E:\Works\NSCAM\obj/../Peripheral/src/CH56x_gpio.c:160
            R32_PB_PU     |= pin;
    1cd4:	5bb4                	lw	a3,112(a5)
    1cd6:	8d55                	or	a0,a0,a3
    1cd8:	dba8                	sw	a0,112(a5)
    1cda:	a831                	j	1cf6 <GPIOB_ModeCfg+0x66>
E:\Works\NSCAM\obj/../Peripheral/src/CH56x_gpio.c:151
        	R32_PB_SMT &=~ pin;  
    1cdc:	400017b7          	lui	a5,0x40001
    1ce0:	5ff4                	lw	a3,124(a5)
    1ce2:	fff54713          	not	a4,a0
    1ce6:	8ef9                	and	a3,a3,a4
    1ce8:	dff4                	sw	a3,124(a5)
E:\Works\NSCAM\obj/../Peripheral/src/CH56x_gpio.c:152
            R32_PB_PD |= pin;
    1cea:	5bf4                	lw	a3,116(a5)
    1cec:	8d55                	or	a0,a0,a3
    1cee:	dbe8                	sw	a0,116(a5)
E:\Works\NSCAM\obj/../Peripheral/src/CH56x_gpio.c:153
            R32_PB_PU     &= ~pin;
    1cf0:	5bb4                	lw	a3,112(a5)
    1cf2:	8ef9                	and	a3,a3,a4
    1cf4:	dbb4                	sw	a3,112(a5)
E:\Works\NSCAM\obj/../Peripheral/src/CH56x_gpio.c:161
            R32_PB_DIR    &= ~pin;
    1cf6:	53b4                	lw	a3,96(a5)
    1cf8:	8f75                	and	a4,a4,a3
    1cfa:	d3b8                	sw	a4,96(a5)
E:\Works\NSCAM\obj/../Peripheral/src/CH56x_gpio.c:162
            break;
    1cfc:	8082                	ret
E:\Works\NSCAM\obj/../Peripheral/src/CH56x_gpio.c:158
        	R32_PB_SMT |= pin;  
    1cfe:	400017b7          	lui	a5,0x40001
    1d02:	5ff8                	lw	a4,124(a5)
    1d04:	8f49                	or	a4,a4,a0
    1d06:	dff8                	sw	a4,124(a5)
E:\Works\NSCAM\obj/../Peripheral/src/CH56x_gpio.c:159
            R32_PB_PD &= ~pin;
    1d08:	5bf4                	lw	a3,116(a5)
    1d0a:	fff54713          	not	a4,a0
    1d0e:	b7c9                	j	1cd0 <GPIOB_ModeCfg+0x40>
E:\Works\NSCAM\obj/../Peripheral/src/CH56x_gpio.c:165
        	R32_PB_SMT |= pin;  
    1d10:	400017b7          	lui	a5,0x40001
    1d14:	5ff8                	lw	a4,124(a5)
    1d16:	8f49                	or	a4,a4,a0
    1d18:	dff8                	sw	a4,124(a5)
E:\Works\NSCAM\obj/../Peripheral/src/CH56x_gpio.c:166
            R32_PB_PD |= pin;
    1d1a:	5bf8                	lw	a4,116(a5)
    1d1c:	8f49                	or	a4,a4,a0
    1d1e:	dbf8                	sw	a4,116(a5)
E:\Works\NSCAM\obj/../Peripheral/src/CH56x_gpio.c:167
            R32_PB_PU     &= ~pin;
    1d20:	5bb8                	lw	a4,112(a5)
    1d22:	fff54513          	not	a0,a0
    1d26:	b779                	j	1cb4 <GPIOB_ModeCfg+0x24>
E:\Works\NSCAM\obj/../Peripheral/src/CH56x_gpio.c:172
        	R32_PB_SMT |= pin;  
    1d28:	400017b7          	lui	a5,0x40001
    1d2c:	5ff8                	lw	a4,124(a5)
    1d2e:	8f49                	or	a4,a4,a0
    1d30:	dff8                	sw	a4,124(a5)
E:\Works\NSCAM\obj/../Peripheral/src/CH56x_gpio.c:173
        	R32_PB_DRV &= ~pin;
    1d32:	5fb4                	lw	a3,120(a5)
    1d34:	fff54713          	not	a4,a0
E:\Works\NSCAM\obj/../Peripheral/src/CH56x_gpio.c:187
        	R32_PB_DRV &= ~pin;
    1d38:	8ef9                	and	a3,a3,a4
E:\Works\NSCAM\obj/../Peripheral/src/CH56x_gpio.c:194
        	R32_PB_DRV |= pin;
    1d3a:	dfb4                	sw	a3,120(a5)
E:\Works\NSCAM\obj/../Peripheral/src/CH56x_gpio.c:195
            R32_PB_PD &= ~pin;
    1d3c:	5bf4                	lw	a3,116(a5)
    1d3e:	a821                	j	1d56 <GPIOB_ModeCfg+0xc6>
E:\Works\NSCAM\obj/../Peripheral/src/CH56x_gpio.c:179
        	R32_PB_SMT |= pin;  
    1d40:	400017b7          	lui	a5,0x40001
    1d44:	5ff8                	lw	a4,124(a5)
    1d46:	8f49                	or	a4,a4,a0
    1d48:	dff8                	sw	a4,124(a5)
E:\Works\NSCAM\obj/../Peripheral/src/CH56x_gpio.c:180
        	R32_PB_DRV |= pin;
    1d4a:	5fb8                	lw	a4,120(a5)
    1d4c:	8f49                	or	a4,a4,a0
    1d4e:	dfb8                	sw	a4,120(a5)
E:\Works\NSCAM\obj/../Peripheral/src/CH56x_gpio.c:181
            R32_PB_PD &= ~pin;
    1d50:	5bf4                	lw	a3,116(a5)
    1d52:	fff54713          	not	a4,a0
E:\Works\NSCAM\obj/../Peripheral/src/CH56x_gpio.c:195
            R32_PB_PD &= ~pin;
    1d56:	8f75                	and	a4,a4,a3
E:\Works\NSCAM\obj/../Peripheral/src/CH56x_gpio.c:207
            R32_PB_PD  |= pin;
    1d58:	dbf8                	sw	a4,116(a5)
E:\Works\NSCAM\obj/../Peripheral/src/CH56x_gpio.c:208
            R32_PB_DIR    |= pin;
    1d5a:	53b8                	lw	a4,96(a5)
    1d5c:	8d59                	or	a0,a0,a4
    1d5e:	bfb9                	j	1cbc <GPIOB_ModeCfg+0x2c>
E:\Works\NSCAM\obj/../Peripheral/src/CH56x_gpio.c:186
        	R32_PB_SMT &= ~pin;  
    1d60:	400017b7          	lui	a5,0x40001
    1d64:	5ff4                	lw	a3,124(a5)
    1d66:	fff54713          	not	a4,a0
    1d6a:	8ef9                	and	a3,a3,a4
    1d6c:	dff4                	sw	a3,124(a5)
E:\Works\NSCAM\obj/../Peripheral/src/CH56x_gpio.c:187
        	R32_PB_DRV &= ~pin;
    1d6e:	5fb4                	lw	a3,120(a5)
    1d70:	b7e1                	j	1d38 <GPIOB_ModeCfg+0xa8>
E:\Works\NSCAM\obj/../Peripheral/src/CH56x_gpio.c:193
        	R32_PB_SMT &= ~pin;  
    1d72:	400017b7          	lui	a5,0x40001
    1d76:	5ff4                	lw	a3,124(a5)
    1d78:	fff54713          	not	a4,a0
    1d7c:	8ef9                	and	a3,a3,a4
    1d7e:	dff4                	sw	a3,124(a5)
E:\Works\NSCAM\obj/../Peripheral/src/CH56x_gpio.c:194
        	R32_PB_DRV |= pin;
    1d80:	5fb4                	lw	a3,120(a5)
    1d82:	8ec9                	or	a3,a3,a0
    1d84:	bf5d                	j	1d3a <GPIOB_ModeCfg+0xaa>
E:\Works\NSCAM\obj/../Peripheral/src/CH56x_gpio.c:200
        	R32_PB_DRV &= ~pin;
    1d86:	400017b7          	lui	a5,0x40001
    1d8a:	5fb4                	lw	a3,120(a5)
    1d8c:	fff54713          	not	a4,a0
    1d90:	8f75                	and	a4,a4,a3
E:\Works\NSCAM\obj/../Peripheral/src/CH56x_gpio.c:206
        	R32_PB_DRV |= pin;
    1d92:	dfb8                	sw	a4,120(a5)
E:\Works\NSCAM\obj/../Peripheral/src/CH56x_gpio.c:207
            R32_PB_PD  |= pin;
    1d94:	5bf8                	lw	a4,116(a5)
    1d96:	8f49                	or	a4,a4,a0
    1d98:	b7c1                	j	1d58 <GPIOB_ModeCfg+0xc8>
E:\Works\NSCAM\obj/../Peripheral/src/CH56x_gpio.c:206
        	R32_PB_DRV |= pin;
    1d9a:	400017b7          	lui	a5,0x40001
    1d9e:	5fb8                	lw	a4,120(a5)
    1da0:	8f49                	or	a4,a4,a0
    1da2:	bfc5                	j	1d92 <GPIOB_ModeCfg+0x102>

00001da4 <SPI0_MasterDefInit>:
SPI0_MasterDefInit():
E:\Works\NSCAM\obj/../Peripheral/src/CH56x_spi.c:19
* Input          : None
* Return         : None
*******************************************************************************/
void SPI0_MasterDefInit( void )
{
    R8_SPI0_CLOCK_DIV = 4;                                   //4
    1da4:	400047b7          	lui	a5,0x40004
    1da8:	4711                	li	a4,4
    1daa:	00e781a3          	sb	a4,3(a5) # 40004003 <sensor_lcd_map+0x1ffe3603>
E:\Works\NSCAM\obj/../Peripheral/src/CH56x_spi.c:20
    R8_SPI0_CTRL_MOD = RB_SPI_ALL_CLEAR;                     //FIFO//01
    1dae:	4709                	li	a4,2
    1db0:	00e78023          	sb	a4,0(a5)
E:\Works\NSCAM\obj/../Peripheral/src/CH56x_spi.c:21
    R8_SPI0_CTRL_MOD = RB_SPI_MOSI_OE | RB_SPI_SCK_OE ;      //MOSISCK
    1db4:	06000713          	li	a4,96
    1db8:	00e78023          	sb	a4,0(a5)
E:\Works\NSCAM\obj/../Peripheral/src/CH56x_spi.c:22
    R8_SPI0_CTRL_CFG |= RB_SPI_AUTO_IF;                      //BUFFER/FIFO
    1dbc:	0017c703          	lbu	a4,1(a5)
    1dc0:	01076713          	ori	a4,a4,16
    1dc4:	00e780a3          	sb	a4,1(a5)
E:\Works\NSCAM\obj/../Peripheral/src/CH56x_spi.c:23
    R8_SPI0_CTRL_CFG &= ~RB_SPI_DMA_ENABLE;                  //DMA
    1dc8:	0017c703          	lbu	a4,1(a5)
    1dcc:	0fe77713          	andi	a4,a4,254
    1dd0:	00e780a3          	sb	a4,1(a5)
E:\Works\NSCAM\obj/../Peripheral/src/CH56x_spi.c:24
}
    1dd4:	8082                	ret

00001dd6 <SPI0_DataMode>:
SPI0_DataMode():
E:\Works\NSCAM\obj/../Peripheral/src/CH56x_spi.c:35
					refer to ModeBitOrderTypeDef
* Return         : None
*******************************************************************************/
void SPI0_DataMode( ModeBitOrderTypeDef m )
{
    switch( m )
    1dd6:	4785                	li	a5,1
    1dd8:	02f50963          	beq	a0,a5,1e0a <SPI0_DataMode+0x34>
    1ddc:	c901                	beqz	a0,1dec <SPI0_DataMode+0x16>
    1dde:	4789                	li	a5,2
    1de0:	04f50263          	beq	a0,a5,1e24 <SPI0_DataMode+0x4e>
    1de4:	478d                	li	a5,3
    1de6:	04f50663          	beq	a0,a5,1e32 <SPI0_DataMode+0x5c>
    1dea:	8082                	ret
E:\Works\NSCAM\obj/../Peripheral/src/CH56x_spi.c:38
    {
        case Mode0_LowBitINFront:                       //0
            R8_SPI0_CTRL_MOD &= ~RB_SPI_MST_SCK_MOD;
    1dec:	400047b7          	lui	a5,0x40004
    1df0:	0007c703          	lbu	a4,0(a5) # 40004000 <sensor_lcd_map+0x1ffe3600>
    1df4:	0f777713          	andi	a4,a4,247
E:\Works\NSCAM\obj/../Peripheral/src/CH56x_spi.c:46
        case Mode0_HighBitINFront:                      //0
            R8_SPI0_CTRL_MOD &= ~RB_SPI_MST_SCK_MOD;
            R8_SPI0_CTRL_CFG &= ~RB_SPI_BIT_ORDER;
            break;
        case Mode3_LowBitINFront:                       //3
            R8_SPI0_CTRL_MOD |= RB_SPI_MST_SCK_MOD;
    1df8:	00e78023          	sb	a4,0(a5)
E:\Works\NSCAM\obj/../Peripheral/src/CH56x_spi.c:47
            R8_SPI0_CTRL_CFG |= RB_SPI_BIT_ORDER;
    1dfc:	0017c703          	lbu	a4,1(a5)
    1e00:	02076713          	ori	a4,a4,32
E:\Works\NSCAM\obj/../Peripheral/src/CH56x_spi.c:51
            break;
        case Mode3_HighBitINFront:                      //3
            R8_SPI0_CTRL_MOD |= RB_SPI_MST_SCK_MOD;
            R8_SPI0_CTRL_CFG &= ~RB_SPI_BIT_ORDER;
    1e04:	00e780a3          	sb	a4,1(a5)
E:\Works\NSCAM\obj/../Peripheral/src/CH56x_spi.c:56
            break;
        default:
            break;
    }
}
    1e08:	8082                	ret
E:\Works\NSCAM\obj/../Peripheral/src/CH56x_spi.c:42
            R8_SPI0_CTRL_MOD &= ~RB_SPI_MST_SCK_MOD;
    1e0a:	400047b7          	lui	a5,0x40004
    1e0e:	0007c703          	lbu	a4,0(a5) # 40004000 <sensor_lcd_map+0x1ffe3600>
    1e12:	0f777713          	andi	a4,a4,247
E:\Works\NSCAM\obj/../Peripheral/src/CH56x_spi.c:50
            R8_SPI0_CTRL_MOD |= RB_SPI_MST_SCK_MOD;
    1e16:	00e78023          	sb	a4,0(a5)
E:\Works\NSCAM\obj/../Peripheral/src/CH56x_spi.c:51
            R8_SPI0_CTRL_CFG &= ~RB_SPI_BIT_ORDER;
    1e1a:	0017c703          	lbu	a4,1(a5)
    1e1e:	0df77713          	andi	a4,a4,223
    1e22:	b7cd                	j	1e04 <SPI0_DataMode+0x2e>
E:\Works\NSCAM\obj/../Peripheral/src/CH56x_spi.c:46
            R8_SPI0_CTRL_MOD |= RB_SPI_MST_SCK_MOD;
    1e24:	400047b7          	lui	a5,0x40004
    1e28:	0007c703          	lbu	a4,0(a5) # 40004000 <sensor_lcd_map+0x1ffe3600>
    1e2c:	00876713          	ori	a4,a4,8
    1e30:	b7e1                	j	1df8 <SPI0_DataMode+0x22>
E:\Works\NSCAM\obj/../Peripheral/src/CH56x_spi.c:50
            R8_SPI0_CTRL_MOD |= RB_SPI_MST_SCK_MOD;
    1e32:	400047b7          	lui	a5,0x40004
    1e36:	0007c703          	lbu	a4,0(a5) # 40004000 <sensor_lcd_map+0x1ffe3600>
    1e3a:	00876713          	ori	a4,a4,8
    1e3e:	bfe1                	j	1e16 <SPI0_DataMode+0x40>

00001e40 <SPI1_MasterDefInit>:
SPI1_MasterDefInit():
E:\Works\NSCAM\obj/../Peripheral/src/CH56x_spi.c:277
* Input          : None
* Return         : None
*******************************************************************************/
void SPI1_MasterDefInit( void )
{
    R8_SPI1_CLOCK_DIV = 4;                                   //4
    1e40:	400047b7          	lui	a5,0x40004
    1e44:	4711                	li	a4,4
    1e46:	40e781a3          	sb	a4,1027(a5) # 40004403 <sensor_lcd_map+0x1ffe3a03>
E:\Works\NSCAM\obj/../Peripheral/src/CH56x_spi.c:278
    R8_SPI1_CTRL_MOD = RB_SPI_ALL_CLEAR;
    1e4a:	4709                	li	a4,2
    1e4c:	40e78023          	sb	a4,1024(a5)
E:\Works\NSCAM\obj/../Peripheral/src/CH56x_spi.c:279
    R8_SPI1_CTRL_MOD = RB_SPI_MOSI_OE | RB_SPI_SCK_OE ;
    1e50:	06000713          	li	a4,96
    1e54:	40e78023          	sb	a4,1024(a5)
E:\Works\NSCAM\obj/../Peripheral/src/CH56x_spi.c:280
    R8_SPI1_CTRL_CFG |= RB_SPI_AUTO_IF;
    1e58:	4017c703          	lbu	a4,1025(a5)
    1e5c:	01076713          	ori	a4,a4,16
    1e60:	40e780a3          	sb	a4,1025(a5)
E:\Works\NSCAM\obj/../Peripheral/src/CH56x_spi.c:281
    R8_SPI1_CTRL_CFG &= ~RB_SPI_DMA_ENABLE;                  //DMA
    1e64:	4017c703          	lbu	a4,1025(a5)
    1e68:	0fe77713          	andi	a4,a4,254
    1e6c:	40e780a3          	sb	a4,1025(a5)
E:\Works\NSCAM\obj/../Peripheral/src/CH56x_spi.c:283
    //R8_SPI1_CTRL_CFG |= RB_SPI_DMA_ENABLE;                   //DMA
}
    1e70:	8082                	ret

00001e72 <SPI1_DataMode>:
SPI1_DataMode():
E:\Works\NSCAM\obj/../Peripheral/src/CH56x_spi.c:294
					refer to ModeBitOrderTypeDef
* Return         : None
*******************************************************************************/
void SPI1_DataMode( ModeBitOrderTypeDef m )
{
    switch( m )
    1e72:	4785                	li	a5,1
    1e74:	02f50963          	beq	a0,a5,1ea6 <SPI1_DataMode+0x34>
    1e78:	c901                	beqz	a0,1e88 <SPI1_DataMode+0x16>
    1e7a:	4789                	li	a5,2
    1e7c:	04f50263          	beq	a0,a5,1ec0 <SPI1_DataMode+0x4e>
    1e80:	478d                	li	a5,3
    1e82:	04f50663          	beq	a0,a5,1ece <SPI1_DataMode+0x5c>
    1e86:	8082                	ret
E:\Works\NSCAM\obj/../Peripheral/src/CH56x_spi.c:297
    {
        case Mode0_LowBitINFront:
            R8_SPI1_CTRL_MOD &= ~RB_SPI_MST_SCK_MOD;
    1e88:	400047b7          	lui	a5,0x40004
    1e8c:	4007c703          	lbu	a4,1024(a5) # 40004400 <sensor_lcd_map+0x1ffe3a00>
    1e90:	0f777713          	andi	a4,a4,247
E:\Works\NSCAM\obj/../Peripheral/src/CH56x_spi.c:305
        case Mode0_HighBitINFront:
            R8_SPI1_CTRL_MOD &= ~RB_SPI_MST_SCK_MOD;
            R8_SPI1_CTRL_CFG &= ~RB_SPI_BIT_ORDER;
            break;
        case Mode3_LowBitINFront:
            R8_SPI1_CTRL_MOD |= RB_SPI_MST_SCK_MOD;
    1e94:	40e78023          	sb	a4,1024(a5)
E:\Works\NSCAM\obj/../Peripheral/src/CH56x_spi.c:306
            R8_SPI1_CTRL_CFG |= RB_SPI_BIT_ORDER;
    1e98:	4017c703          	lbu	a4,1025(a5)
    1e9c:	02076713          	ori	a4,a4,32
E:\Works\NSCAM\obj/../Peripheral/src/CH56x_spi.c:310
            break;
        case Mode3_HighBitINFront:
            R8_SPI1_CTRL_MOD |= RB_SPI_MST_SCK_MOD;
            R8_SPI1_CTRL_CFG &= ~RB_SPI_BIT_ORDER;
    1ea0:	40e780a3          	sb	a4,1025(a5)
E:\Works\NSCAM\obj/../Peripheral/src/CH56x_spi.c:315
            break;
        default:
            break;
    }
}
    1ea4:	8082                	ret
E:\Works\NSCAM\obj/../Peripheral/src/CH56x_spi.c:301
            R8_SPI1_CTRL_MOD &= ~RB_SPI_MST_SCK_MOD;
    1ea6:	400047b7          	lui	a5,0x40004
    1eaa:	4007c703          	lbu	a4,1024(a5) # 40004400 <sensor_lcd_map+0x1ffe3a00>
    1eae:	0f777713          	andi	a4,a4,247
E:\Works\NSCAM\obj/../Peripheral/src/CH56x_spi.c:309
            R8_SPI1_CTRL_MOD |= RB_SPI_MST_SCK_MOD;
    1eb2:	40e78023          	sb	a4,1024(a5)
E:\Works\NSCAM\obj/../Peripheral/src/CH56x_spi.c:310
            R8_SPI1_CTRL_CFG &= ~RB_SPI_BIT_ORDER;
    1eb6:	4017c703          	lbu	a4,1025(a5)
    1eba:	0df77713          	andi	a4,a4,223
    1ebe:	b7cd                	j	1ea0 <SPI1_DataMode+0x2e>
E:\Works\NSCAM\obj/../Peripheral/src/CH56x_spi.c:305
            R8_SPI1_CTRL_MOD |= RB_SPI_MST_SCK_MOD;
    1ec0:	400047b7          	lui	a5,0x40004
    1ec4:	4007c703          	lbu	a4,1024(a5) # 40004400 <sensor_lcd_map+0x1ffe3a00>
    1ec8:	00876713          	ori	a4,a4,8
    1ecc:	b7e1                	j	1e94 <SPI1_DataMode+0x22>
E:\Works\NSCAM\obj/../Peripheral/src/CH56x_spi.c:309
            R8_SPI1_CTRL_MOD |= RB_SPI_MST_SCK_MOD;
    1ece:	400047b7          	lui	a5,0x40004
    1ed2:	4007c703          	lbu	a4,1024(a5) # 40004400 <sensor_lcd_map+0x1ffe3a00>
    1ed6:	00876713          	ori	a4,a4,8
    1eda:	bfe1                	j	1eb2 <SPI1_DataMode+0x40>

00001edc <SPI1_MasterSendByte>:
SPI1_MasterSendByte():
E:\Works\NSCAM\obj/../Peripheral/src/CH56x_spi.c:325
* Input          : d:
* Return         : None
*******************************************************************************/
void SPI1_MasterSendByte( UINT8 d )
{
    R8_SPI1_CTRL_MOD &= ~RB_SPI_FIFO_DIR;
    1edc:	400047b7          	lui	a5,0x40004
    1ee0:	4007c703          	lbu	a4,1024(a5) # 40004400 <sensor_lcd_map+0x1ffe3a00>
    1ee4:	0ef77713          	andi	a4,a4,239
    1ee8:	40e78023          	sb	a4,1024(a5)
E:\Works\NSCAM\obj/../Peripheral/src/CH56x_spi.c:326
    R8_SPI1_BUFFER = d;
    1eec:	40a78223          	sb	a0,1028(a5)
E:\Works\NSCAM\obj/../Peripheral/src/CH56x_spi.c:327
    while( !(R8_SPI1_INT_FLAG & RB_SPI_FREE) );
    1ef0:	40004737          	lui	a4,0x40004
E:\Works\NSCAM\obj/../Peripheral/src/CH56x_spi.c:327 (discriminator 1)
    1ef4:	40674783          	lbu	a5,1030(a4) # 40004406 <sensor_lcd_map+0x1ffe3a06>
    1ef8:	0407f793          	andi	a5,a5,64
    1efc:	dfe5                	beqz	a5,1ef4 <SPI1_MasterSendByte+0x18>
E:\Works\NSCAM\obj/../Peripheral/src/CH56x_spi.c:328
}
    1efe:	8082                	ret

00001f00 <SPI1_MasterTrans>:
SPI1_MasterTrans():
E:\Works\NSCAM\obj/../Peripheral/src/CH56x_spi.c:356
void SPI1_MasterTrans( UINT8 *pbuf, UINT16 len )
{
    UINT16 sendlen;

    sendlen = len;
    R8_SPI1_CTRL_MOD &= ~RB_SPI_FIFO_DIR;        //
    1f00:	400047b7          	lui	a5,0x40004
    1f04:	4007c703          	lbu	a4,1024(a5) # 40004400 <sensor_lcd_map+0x1ffe3a00>
E:\Works\NSCAM\obj/../Peripheral/src/CH56x_spi.c:361
    R16_SPI1_TOTAL_CNT = sendlen;                //
    R8_SPI1_INT_FLAG = RB_SPI_IF_CNT_END;
    while( sendlen )
    {
        if( R8_SPI1_FIFO_COUNT < SPI_FIFO_SIZE )
    1f08:	400046b7          	lui	a3,0x40004
E:\Works\NSCAM\obj/../Peripheral/src/CH56x_spi.c:356
    R8_SPI1_CTRL_MOD &= ~RB_SPI_FIFO_DIR;        //
    1f0c:	0ef77713          	andi	a4,a4,239
    1f10:	40e78023          	sb	a4,1024(a5)
E:\Works\NSCAM\obj/../Peripheral/src/CH56x_spi.c:357
    R16_SPI1_TOTAL_CNT = sendlen;                //
    1f14:	40b79623          	sh	a1,1036(a5)
E:\Works\NSCAM\obj/../Peripheral/src/CH56x_spi.c:358
    R8_SPI1_INT_FLAG = RB_SPI_IF_CNT_END;
    1f18:	4705                	li	a4,1
    1f1a:	40e78323          	sb	a4,1030(a5)
E:\Works\NSCAM\obj/../Peripheral/src/CH56x_spi.c:361
        if( R8_SPI1_FIFO_COUNT < SPI_FIFO_SIZE )
    1f1e:	471d                	li	a4,7
E:\Works\NSCAM\obj/../Peripheral/src/CH56x_spi.c:359
    while( sendlen )
    1f20:	e989                	bnez	a1,1f32 <SPI1_MasterTrans+0x32>
E:\Works\NSCAM\obj/../Peripheral/src/CH56x_spi.c:368
            R8_SPI1_FIFO = *pbuf;
            pbuf++;
            sendlen--;
        }
    }
    while( R8_SPI1_FIFO_COUNT != 0 );             //FIFO
    1f22:	40004737          	lui	a4,0x40004
E:\Works\NSCAM\obj/../Peripheral/src/CH56x_spi.c:368 (discriminator 1)
    1f26:	40774783          	lbu	a5,1031(a4) # 40004407 <sensor_lcd_map+0x1ffe3a07>
    1f2a:	0ff7f793          	andi	a5,a5,255
    1f2e:	ffe5                	bnez	a5,1f26 <SPI1_MasterTrans+0x26>
E:\Works\NSCAM\obj/../Peripheral/src/CH56x_spi.c:369
}
    1f30:	8082                	ret
E:\Works\NSCAM\obj/../Peripheral/src/CH56x_spi.c:361
        if( R8_SPI1_FIFO_COUNT < SPI_FIFO_SIZE )
    1f32:	4077c603          	lbu	a2,1031(a5)
    1f36:	fec765e3          	bltu	a4,a2,1f20 <SPI1_MasterTrans+0x20>
E:\Works\NSCAM\obj/../Peripheral/src/CH56x_spi.c:363
            R8_SPI1_FIFO = *pbuf;
    1f3a:	00054603          	lbu	a2,0(a0) # 8000 <__color_map+0x5bc>
E:\Works\NSCAM\obj/../Peripheral/src/CH56x_spi.c:365
            sendlen--;
    1f3e:	15fd                	addi	a1,a1,-1
    1f40:	05c2                	slli	a1,a1,0x10
E:\Works\NSCAM\obj/../Peripheral/src/CH56x_spi.c:363
            R8_SPI1_FIFO = *pbuf;
    1f42:	40c68823          	sb	a2,1040(a3) # 40004410 <sensor_lcd_map+0x1ffe3a10>
E:\Works\NSCAM\obj/../Peripheral/src/CH56x_spi.c:364
            pbuf++;
    1f46:	0505                	addi	a0,a0,1
E:\Works\NSCAM\obj/../Peripheral/src/CH56x_spi.c:365
            sendlen--;
    1f48:	81c1                	srli	a1,a1,0x10
    1f4a:	bfd9                	j	1f20 <SPI1_MasterTrans+0x20>

00001f4c <Delay_Init>:
Delay_Init():
E:\Works\NSCAM\obj/../Peripheral/src/CH56x_sys.c:24
* Input          : systemclck: Hz
* Return         : None
*******************************************************************************/
void Delay_Init(uint32_t systemclck)
{
	p_us=systemclck/8000000;
    1f4c:	007a17b7          	lui	a5,0x7a1
    1f50:	20078793          	addi	a5,a5,512 # 7a1200 <_data_lma+0x79842c>
    1f54:	02f55533          	divu	a0,a0,a5
    1f58:	0ff57513          	andi	a0,a0,255
    1f5c:	82a18123          	sb	a0,-2014(gp) # 20000082 <p_us>
E:\Works\NSCAM\obj/../Peripheral/src/CH56x_sys.c:25
	p_ms=(uint16_t)p_us*1000;
    1f60:	3e800793          	li	a5,1000
    1f64:	02f50533          	mul	a0,a0,a5
    1f68:	82a19023          	sh	a0,-2016(gp) # 20000080 <p_ms>
E:\Works\NSCAM\obj/../Peripheral/src/CH56x_sys.c:26
}
    1f6c:	8082                	ret

00001f6e <mDelayuS>:
mDelayuS():
E:\Works\NSCAM\obj/../Peripheral/src/CH56x_sys.c:38
*******************************************************************************/
void mDelayuS(uint32_t n)
{
	uint32_t i;

	SysTick->CTLR = 0;
    1f6e:	e000f7b7          	lui	a5,0xe000f
    1f72:	0007a023          	sw	zero,0(a5) # e000f000 <sensor_lcd_map+0xbffee600>
E:\Works\NSCAM\obj/../Peripheral/src/CH56x_sys.c:39
	i = (uint32_t)n*p_us;
    1f76:	8221c703          	lbu	a4,-2014(gp) # 20000082 <p_us>
    1f7a:	02a70533          	mul	a0,a4,a0
E:\Works\NSCAM\obj/../Peripheral/src/CH56x_sys.c:42

	SysTick->CMP = i;
	SysTick->CTLR = (1<<8)|(1<<0);
    1f7e:	10100713          	li	a4,257
E:\Works\NSCAM\obj/../Peripheral/src/CH56x_sys.c:41
	SysTick->CMP = i;
    1f82:	c7c8                	sw	a0,12(a5)
    1f84:	0007a823          	sw	zero,16(a5)
E:\Works\NSCAM\obj/../Peripheral/src/CH56x_sys.c:42
	SysTick->CTLR = (1<<8)|(1<<0);
    1f88:	c398                	sw	a4,0(a5)
E:\Works\NSCAM\obj/../Peripheral/src/CH56x_sys.c:44 (discriminator 1)

    while((SysTick->CNTFG & (1<<1)) != (1<<1));
    1f8a:	4bd8                	lw	a4,20(a5)
    1f8c:	8b09                	andi	a4,a4,2
    1f8e:	df75                	beqz	a4,1f8a <mDelayuS+0x1c>
E:\Works\NSCAM\obj/../Peripheral/src/CH56x_sys.c:45
    SysTick->CNTFG &= ~(1<<1);
    1f90:	4bd8                	lw	a4,20(a5)
    1f92:	9b75                	andi	a4,a4,-3
    1f94:	cbd8                	sw	a4,20(a5)
E:\Works\NSCAM\obj/../Peripheral/src/CH56x_sys.c:46
}
    1f96:	8082                	ret

00001f98 <mDelaymS>:
mDelaymS():
E:\Works\NSCAM\obj/../Peripheral/src/CH56x_sys.c:59
void mDelaymS(uint32_t n)
{
	uint32_t i;

	SysTick->CTLR = 0;
	i = (uint32_t)n*p_ms;
    1f98:	8201d703          	lhu	a4,-2016(gp) # 20000080 <p_ms>
E:\Works\NSCAM\obj/../Peripheral/src/CH56x_sys.c:58
	SysTick->CTLR = 0;
    1f9c:	e000f7b7          	lui	a5,0xe000f
    1fa0:	0007a023          	sw	zero,0(a5) # e000f000 <sensor_lcd_map+0xbffee600>
E:\Works\NSCAM\obj/../Peripheral/src/CH56x_sys.c:59
	i = (uint32_t)n*p_ms;
    1fa4:	02a70533          	mul	a0,a4,a0
E:\Works\NSCAM\obj/../Peripheral/src/CH56x_sys.c:62

	SysTick->CMP = i;
	SysTick->CTLR = (1<<8)|(1<<0);
    1fa8:	10100713          	li	a4,257
E:\Works\NSCAM\obj/../Peripheral/src/CH56x_sys.c:61
	SysTick->CMP = i;
    1fac:	c7c8                	sw	a0,12(a5)
    1fae:	0007a823          	sw	zero,16(a5)
E:\Works\NSCAM\obj/../Peripheral/src/CH56x_sys.c:62
	SysTick->CTLR = (1<<8)|(1<<0);
    1fb2:	c398                	sw	a4,0(a5)
E:\Works\NSCAM\obj/../Peripheral/src/CH56x_sys.c:64 (discriminator 1)

    while((SysTick->CNTFG & (1<<1)) != (1<<1));
    1fb4:	4bd8                	lw	a4,20(a5)
    1fb6:	8b09                	andi	a4,a4,2
    1fb8:	df75                	beqz	a4,1fb4 <mDelaymS+0x1c>
E:\Works\NSCAM\obj/../Peripheral/src/CH56x_sys.c:65
    SysTick->CNTFG &= ~(1<<1);
    1fba:	4bd8                	lw	a4,20(a5)
    1fbc:	9b75                	andi	a4,a4,-3
    1fbe:	cbd8                	sw	a4,20(a5)
E:\Works\NSCAM\obj/../Peripheral/src/CH56x_sys.c:66
}
    1fc0:	8082                	ret

00001fc2 <TMR1_PWMInit>:
TMR1_PWMInit():
E:\Works\NSCAM\obj/../Peripheral/src/CH56x_timer.c:116
void TMR1_PWMInit( PWM_PolarTypeDef pr, PWM_RepeatTsTypeDef ts )
{
    R8_TMR1_CTRL_MOD = RB_TMR_ALL_CLEAR;
    R8_TMR1_CTRL_MOD = RB_TMR_COUNT_EN
                        |RB_TMR_OUT_EN
                        |(pr<<4)
    1fc2:	0512                	slli	a0,a0,0x4
E:\Works\NSCAM\obj/../Peripheral/src/CH56x_timer.c:117
                        |(ts<<6);
    1fc4:	059a                	slli	a1,a1,0x6
    1fc6:	8d4d                	or	a0,a0,a1
E:\Works\NSCAM\obj/../Peripheral/src/CH56x_timer.c:113
    R8_TMR1_CTRL_MOD = RB_TMR_ALL_CLEAR;
    1fc8:	400027b7          	lui	a5,0x40002
    1fcc:	4709                	li	a4,2
E:\Works\NSCAM\obj/../Peripheral/src/CH56x_timer.c:117
                        |(ts<<6);
    1fce:	00c56513          	ori	a0,a0,12
E:\Works\NSCAM\obj/../Peripheral/src/CH56x_timer.c:113
    R8_TMR1_CTRL_MOD = RB_TMR_ALL_CLEAR;
    1fd2:	40e78023          	sb	a4,1024(a5) # 40002400 <sensor_lcd_map+0x1ffe1a00>
E:\Works\NSCAM\obj/../Peripheral/src/CH56x_timer.c:117
                        |(ts<<6);
    1fd6:	0ff57513          	andi	a0,a0,255
E:\Works\NSCAM\obj/../Peripheral/src/CH56x_timer.c:114
    R8_TMR1_CTRL_MOD = RB_TMR_COUNT_EN
    1fda:	40a78023          	sb	a0,1024(a5)
E:\Works\NSCAM\obj/../Peripheral/src/CH56x_timer.c:118
}
    1fde:	8082                	ret

00001fe0 <getFont>:
getFont():
E:\Works\NSCAM\obj/../LCD/fonts.c:387
	0x80,0x40,0x40,0x80,0x00,0x00,0xC0,0x00,
	0x01,0x00,0x00,0x00,0x01,0x01,0x00,0x00,
};

const unsigned char* getFont(uint8_t type) {
	switch (type) {
    1fe0:	4785                	li	a5,1
    1fe2:	00f51663          	bne	a0,a5,1fee <getFont+0xe>
E:\Works\NSCAM\obj/../LCD/fonts.c:389
		case 0: return __FONTS_SMALL_;
		case 1: return __FONTS_BIG_;
    1fe6:	6521                	lui	a0,0x8
    1fe8:	2b050513          	addi	a0,a0,688 # 82b0 <__FONTS_BIG_>
    1fec:	8082                	ret
E:\Works\NSCAM\obj/../LCD/fonts.c:388
		case 0: return __FONTS_SMALL_;
    1fee:	6525                	lui	a0,0x9
    1ff0:	8a050513          	addi	a0,a0,-1888 # 88a0 <__FONTS_SMALL_>
E:\Works\NSCAM\obj/../LCD/fonts.c:392
	}
	return __FONTS_SMALL_;
}
    1ff4:	8082                	ret

00001ff6 <_lcd_font>:
_lcd_font():
E:\Works\NSCAM\obj/../LCD/lcd.c:226

void _lcd_back_color(pLCD* p, uint32_t color) { p->backColor = rgb_565(color); }

void _lcd_fore_color(pLCD* p, uint32_t color) { p->foreColor = rgb_565(color); }

void _lcd_font(pLCD* p, LCDFont f) { p->Font = f; }
    1ff6:	c50c                	sw	a1,8(a0)
    1ff8:	8082                	ret

00001ffa <_lcd_reset>:
_lcd_reset():
E:\Works\NSCAM\obj/../LCD/lcd.c:139
void _lcd_reset(pLCD* p) {
    1ffa:	1141                	addi	sp,sp,-16
    1ffc:	c422                	sw	s0,8(sp)
E:\Works\NSCAM\obj/../LCD/lcd.c:140
    GPIOA_ResetBits(GPIO_Pin_21);
    1ffe:	40001437          	lui	s0,0x40001
    2002:	4478                	lw	a4,76(s0)
E:\Works\NSCAM\obj/../LCD/lcd.c:139
void _lcd_reset(pLCD* p) {
    2004:	c226                	sw	s1,4(sp)
E:\Works\NSCAM\obj/../LCD/lcd.c:140
    GPIOA_ResetBits(GPIO_Pin_21);
    2006:	002004b7          	lui	s1,0x200
E:\Works\NSCAM\obj/../LCD/lcd.c:139
void _lcd_reset(pLCD* p) {
    200a:	c606                	sw	ra,12(sp)
E:\Works\NSCAM\obj/../LCD/lcd.c:140
    GPIOA_ResetBits(GPIO_Pin_21);
    200c:	8f45                	or	a4,a4,s1
    200e:	c478                	sw	a4,76(s0)
E:\Works\NSCAM\obj/../LCD/lcd.c:141
	mDelaymS(100);
    2010:	06400513          	li	a0,100
    2014:	3751                	jal	1f98 <mDelaymS>
E:\Works\NSCAM\obj/../LCD/lcd.c:142
	GPIOA_SetBits(GPIO_Pin_21);
    2016:	443c                	lw	a5,72(s0)
E:\Works\NSCAM\obj/../LCD/lcd.c:144
}
    2018:	40b2                	lw	ra,12(sp)
E:\Works\NSCAM\obj/../LCD/lcd.c:143
	mDelaymS(50);
    201a:	03200513          	li	a0,50
E:\Works\NSCAM\obj/../LCD/lcd.c:142
	GPIOA_SetBits(GPIO_Pin_21);
    201e:	8fc5                	or	a5,a5,s1
    2020:	c43c                	sw	a5,72(s0)
E:\Works\NSCAM\obj/../LCD/lcd.c:144
}
    2022:	4422                	lw	s0,8(sp)
    2024:	4492                	lw	s1,4(sp)
    2026:	0141                	addi	sp,sp,16
E:\Works\NSCAM\obj/../LCD/lcd.c:143
	mDelaymS(50);
    2028:	bf85                	j	1f98 <mDelaymS>

0000202a <_lcd_backLight>:
_lcd_backLight():
E:\Works\NSCAM\obj/../LCD/lcd.c:148
        GPIOA_SetBits(GPIO_Pin_9);
    202a:	40001737          	lui	a4,0x40001
E:\Works\NSCAM\obj/../LCD/lcd.c:147
    if (state)
    202e:	c591                	beqz	a1,203a <_lcd_backLight+0x10>
E:\Works\NSCAM\obj/../LCD/lcd.c:148
        GPIOA_SetBits(GPIO_Pin_9);
    2030:	473c                	lw	a5,72(a4)
    2032:	2007e793          	ori	a5,a5,512
    2036:	c73c                	sw	a5,72(a4)
    2038:	8082                	ret
E:\Works\NSCAM\obj/../LCD/lcd.c:150
        GPIOA_ResetBits(GPIO_Pin_9);
    203a:	477c                	lw	a5,76(a4)
    203c:	2007e793          	ori	a5,a5,512
    2040:	c77c                	sw	a5,76(a4)
E:\Works\NSCAM\obj/../LCD/lcd.c:151
}
    2042:	8082                	ret

00002044 <_lcd_writeCommand.constprop.5>:
_lcd_writeCommand():
E:\Works\NSCAM\obj/../LCD/lcd.c:44
void _lcd_writeCommand(pLCD* p, uint8_t cmd) {
    2044:	1141                	addi	sp,sp,-16
    2046:	c422                	sw	s0,8(sp)
E:\Works\NSCAM\obj/../LCD/lcd.c:45
    GPIOB_ResetBits(GPIO_Pin_11);
    2048:	40001437          	lui	s0,0x40001
    204c:	547c                	lw	a5,108(s0)
E:\Works\NSCAM\obj/../LCD/lcd.c:44
void _lcd_writeCommand(pLCD* p, uint8_t cmd) {
    204e:	c226                	sw	s1,4(sp)
E:\Works\NSCAM\obj/../LCD/lcd.c:45
    GPIOB_ResetBits(GPIO_Pin_11);
    2050:	6485                	lui	s1,0x1
    2052:	80048493          	addi	s1,s1,-2048 # 800 <__stack_size>
E:\Works\NSCAM\obj/../LCD/lcd.c:44
void _lcd_writeCommand(pLCD* p, uint8_t cmd) {
    2056:	c606                	sw	ra,12(sp)
E:\Works\NSCAM\obj/../LCD/lcd.c:45
    GPIOB_ResetBits(GPIO_Pin_11);
    2058:	8fc5                	or	a5,a5,s1
    205a:	d47c                	sw	a5,108(s0)
E:\Works\NSCAM\obj/../LCD/lcd.c:46
    GPIOB_ResetBits(GPIO_Pin_24);
    205c:	547c                	lw	a5,108(s0)
    205e:	01000737          	lui	a4,0x1000
    2062:	8fd9                	or	a5,a5,a4
    2064:	d47c                	sw	a5,108(s0)
E:\Works\NSCAM\obj/../LCD/lcd.c:47
    SPI1_MasterSendByte(cmd);
    2066:	3d9d                	jal	1edc <SPI1_MasterSendByte>
E:\Works\NSCAM\obj/../LCD/lcd.c:48
    GPIOB_SetBits(GPIO_Pin_11);
    2068:	543c                	lw	a5,104(s0)
E:\Works\NSCAM\obj/../LCD/lcd.c:49
}
    206a:	40b2                	lw	ra,12(sp)
E:\Works\NSCAM\obj/../LCD/lcd.c:48
    GPIOB_SetBits(GPIO_Pin_11);
    206c:	8cdd                	or	s1,s1,a5
    206e:	d424                	sw	s1,104(s0)
E:\Works\NSCAM\obj/../LCD/lcd.c:49
}
    2070:	4422                	lw	s0,8(sp)
    2072:	4492                	lw	s1,4(sp)
    2074:	0141                	addi	sp,sp,16
    2076:	8082                	ret

00002078 <_lcd_dispControl>:
_lcd_dispControl():
E:\Works\NSCAM\obj/../LCD/lcd.c:155
        _lcd_writeCommand(p, ILI9341_DISPON);
    2078:	02900513          	li	a0,41
E:\Works\NSCAM\obj/../LCD/lcd.c:154
    if (state)
    207c:	e199                	bnez	a1,2082 <_lcd_dispControl+0xa>
E:\Works\NSCAM\obj/../LCD/lcd.c:157
        _lcd_writeCommand(p, ILI9341_DISPOFF);
    207e:	02800513          	li	a0,40
    2082:	b7c9                	j	2044 <_lcd_writeCommand.constprop.5>

00002084 <__io_init>:
__io_init():
E:\Works\NSCAM\obj/../LCD/lcd.c:24
void __io_init() {
    2084:	1141                	addi	sp,sp,-16
    2086:	c422                	sw	s0,8(sp)
E:\Works\NSCAM\obj/../LCD/lcd.c:26
    GPIOA_ResetBits(GPIO_Pin_9);
    2088:	40001437          	lui	s0,0x40001
    208c:	447c                	lw	a5,76(s0)
E:\Works\NSCAM\obj/../LCD/lcd.c:24
void __io_init() {
    208e:	c606                	sw	ra,12(sp)
E:\Works\NSCAM\obj/../LCD/lcd.c:27
    GPIOA_ModeCfg(GPIO_Pin_9, GPIO_Slowascent_PP_8mA);
    2090:	4595                	li	a1,5
E:\Works\NSCAM\obj/../LCD/lcd.c:26
    GPIOA_ResetBits(GPIO_Pin_9);
    2092:	2007e793          	ori	a5,a5,512
    2096:	c47c                	sw	a5,76(s0)
E:\Works\NSCAM\obj/../LCD/lcd.c:27
    GPIOA_ModeCfg(GPIO_Pin_9, GPIO_Slowascent_PP_8mA);
    2098:	20000513          	li	a0,512
    209c:	ae1ff0ef          	jal	ra,1b7c <GPIOA_ModeCfg>
E:\Works\NSCAM\obj/../LCD/lcd.c:29
    GPIOA_SetBits(GPIO_Pin_21);
    20a0:	443c                	lw	a5,72(s0)
    20a2:	00200737          	lui	a4,0x200
E:\Works\NSCAM\obj/../LCD/lcd.c:30
    GPIOA_ModeCfg(GPIO_Pin_21, GPIO_Slowascent_PP_8mA);
    20a6:	4595                	li	a1,5
E:\Works\NSCAM\obj/../LCD/lcd.c:29
    GPIOA_SetBits(GPIO_Pin_21);
    20a8:	8fd9                	or	a5,a5,a4
    20aa:	c43c                	sw	a5,72(s0)
E:\Works\NSCAM\obj/../LCD/lcd.c:30
    GPIOA_ModeCfg(GPIO_Pin_21, GPIO_Slowascent_PP_8mA);
    20ac:	00200537          	lui	a0,0x200
    20b0:	acdff0ef          	jal	ra,1b7c <GPIOA_ModeCfg>
E:\Works\NSCAM\obj/../LCD/lcd.c:32
    GPIOB_SetBits(GPIO_Pin_24);
    20b4:	543c                	lw	a5,104(s0)
    20b6:	01000737          	lui	a4,0x1000
E:\Works\NSCAM\obj/../LCD/lcd.c:33
    GPIOB_ModeCfg(GPIO_Pin_24, GPIO_Slowascent_PP_8mA);
    20ba:	4595                	li	a1,5
E:\Works\NSCAM\obj/../LCD/lcd.c:32
    GPIOB_SetBits(GPIO_Pin_24);
    20bc:	8fd9                	or	a5,a5,a4
    20be:	d43c                	sw	a5,104(s0)
E:\Works\NSCAM\obj/../LCD/lcd.c:33
    GPIOB_ModeCfg(GPIO_Pin_24, GPIO_Slowascent_PP_8mA);
    20c0:	01000537          	lui	a0,0x1000
    20c4:	bcdff0ef          	jal	ra,1c90 <GPIOB_ModeCfg>
E:\Works\NSCAM\obj/../LCD/lcd.c:35
    GPIOB_SetBits(GPIO_Pin_11);
    20c8:	543c                	lw	a5,104(s0)
    20ca:	6705                	lui	a4,0x1
    20cc:	80070713          	addi	a4,a4,-2048 # 800 <__stack_size>
    20d0:	8fd9                	or	a5,a5,a4
E:\Works\NSCAM\obj/../LCD/lcd.c:36
    GPIOB_ModeCfg(GPIO_Pin_11 | GPIO_Pin_12 | GPIO_Pin_13, GPIO_Highspeed_PP_8mA);
    20d2:	6511                	lui	a0,0x4
E:\Works\NSCAM\obj/../LCD/lcd.c:35
    GPIOB_SetBits(GPIO_Pin_11);
    20d4:	d43c                	sw	a5,104(s0)
E:\Works\NSCAM\obj/../LCD/lcd.c:36
    GPIOB_ModeCfg(GPIO_Pin_11 | GPIO_Pin_12 | GPIO_Pin_13, GPIO_Highspeed_PP_8mA);
    20d6:	459d                	li	a1,7
    20d8:	80050513          	addi	a0,a0,-2048 # 3800 <LCDInit+0x130>
    20dc:	bb5ff0ef          	jal	ra,1c90 <GPIOB_ModeCfg>
E:\Works\NSCAM\obj/../LCD/lcd.c:37
    SPI1_MasterDefInit();
    20e0:	d61ff0ef          	jal	ra,1e40 <SPI1_MasterDefInit>
E:\Works\NSCAM\obj/../LCD/lcd.c:38
    R8_SPI1_CLOCK_DIV = FREQ_SYS / NSCAM_FLCD;
    20e4:	400047b7          	lui	a5,0x40004
    20e8:	4709                	li	a4,2
E:\Works\NSCAM\obj/../LCD/lcd.c:39
    SPI1_DataMode(Mode0_HighBitINFront);
    20ea:	4505                	li	a0,1
E:\Works\NSCAM\obj/../LCD/lcd.c:38
    R8_SPI1_CLOCK_DIV = FREQ_SYS / NSCAM_FLCD;
    20ec:	40e781a3          	sb	a4,1027(a5) # 40004403 <sensor_lcd_map+0x1ffe3a03>
E:\Works\NSCAM\obj/../LCD/lcd.c:39
    SPI1_DataMode(Mode0_HighBitINFront);
    20f0:	d83ff0ef          	jal	ra,1e72 <SPI1_DataMode>
E:\Works\NSCAM\obj/../LCD/lcd.c:42
}
    20f4:	4422                	lw	s0,8(sp)
    20f6:	40b2                	lw	ra,12(sp)
E:\Works\NSCAM\obj/../LCD/lcd.c:41
    mDelaymS(5);
    20f8:	4515                	li	a0,5
E:\Works\NSCAM\obj/../LCD/lcd.c:42
}
    20fa:	0141                	addi	sp,sp,16
E:\Works\NSCAM\obj/../LCD/lcd.c:41
    mDelaymS(5);
    20fc:	bd71                	j	1f98 <mDelaymS>

000020fe <_lcd_writeData>:
_lcd_writeData():
E:\Works\NSCAM\obj/../LCD/lcd.c:51
void _lcd_writeData(pLCD* p, uint8_t data) {
    20fe:	1141                	addi	sp,sp,-16
    2100:	c422                	sw	s0,8(sp)
E:\Works\NSCAM\obj/../LCD/lcd.c:52
    GPIOB_ResetBits(GPIO_Pin_11);
    2102:	40001437          	lui	s0,0x40001
    2106:	547c                	lw	a5,108(s0)
E:\Works\NSCAM\obj/../LCD/lcd.c:51
void _lcd_writeData(pLCD* p, uint8_t data) {
    2108:	c226                	sw	s1,4(sp)
E:\Works\NSCAM\obj/../LCD/lcd.c:52
    GPIOB_ResetBits(GPIO_Pin_11);
    210a:	6485                	lui	s1,0x1
    210c:	80048493          	addi	s1,s1,-2048 # 800 <__stack_size>
E:\Works\NSCAM\obj/../LCD/lcd.c:51
void _lcd_writeData(pLCD* p, uint8_t data) {
    2110:	c606                	sw	ra,12(sp)
E:\Works\NSCAM\obj/../LCD/lcd.c:52
    GPIOB_ResetBits(GPIO_Pin_11);
    2112:	8fc5                	or	a5,a5,s1
    2114:	d47c                	sw	a5,108(s0)
E:\Works\NSCAM\obj/../LCD/lcd.c:53
    GPIOB_SetBits(GPIO_Pin_24);
    2116:	543c                	lw	a5,104(s0)
    2118:	01000737          	lui	a4,0x1000
E:\Works\NSCAM\obj/../LCD/lcd.c:54
    SPI1_MasterSendByte(data);
    211c:	852e                	mv	a0,a1
E:\Works\NSCAM\obj/../LCD/lcd.c:53
    GPIOB_SetBits(GPIO_Pin_24);
    211e:	8fd9                	or	a5,a5,a4
    2120:	d43c                	sw	a5,104(s0)
E:\Works\NSCAM\obj/../LCD/lcd.c:54
    SPI1_MasterSendByte(data);
    2122:	dbbff0ef          	jal	ra,1edc <SPI1_MasterSendByte>
E:\Works\NSCAM\obj/../LCD/lcd.c:55
    GPIOB_SetBits(GPIO_Pin_11);
    2126:	543c                	lw	a5,104(s0)
E:\Works\NSCAM\obj/../LCD/lcd.c:56
}
    2128:	40b2                	lw	ra,12(sp)
E:\Works\NSCAM\obj/../LCD/lcd.c:55
    GPIOB_SetBits(GPIO_Pin_11);
    212a:	8cdd                	or	s1,s1,a5
    212c:	d424                	sw	s1,104(s0)
E:\Works\NSCAM\obj/../LCD/lcd.c:56
}
    212e:	4422                	lw	s0,8(sp)
    2130:	4492                	lw	s1,4(sp)
    2132:	0141                	addi	sp,sp,16
    2134:	8082                	ret

00002136 <_lcd_writeDatas>:
_lcd_writeDatas():
E:\Works\NSCAM\obj/../LCD/lcd.c:58
void _lcd_writeDatas(pLCD* p, uint8_t* data, uint16_t length) {
    2136:	1141                	addi	sp,sp,-16
    2138:	c422                	sw	s0,8(sp)
E:\Works\NSCAM\obj/../LCD/lcd.c:59
    GPIOB_ResetBits(GPIO_Pin_11);
    213a:	40001437          	lui	s0,0x40001
    213e:	547c                	lw	a5,108(s0)
E:\Works\NSCAM\obj/../LCD/lcd.c:58
void _lcd_writeDatas(pLCD* p, uint8_t* data, uint16_t length) {
    2140:	c226                	sw	s1,4(sp)
E:\Works\NSCAM\obj/../LCD/lcd.c:59
    GPIOB_ResetBits(GPIO_Pin_11);
    2142:	6485                	lui	s1,0x1
    2144:	80048493          	addi	s1,s1,-2048 # 800 <__stack_size>
E:\Works\NSCAM\obj/../LCD/lcd.c:58
void _lcd_writeDatas(pLCD* p, uint8_t* data, uint16_t length) {
    2148:	c606                	sw	ra,12(sp)
E:\Works\NSCAM\obj/../LCD/lcd.c:59
    GPIOB_ResetBits(GPIO_Pin_11);
    214a:	8fc5                	or	a5,a5,s1
    214c:	d47c                	sw	a5,108(s0)
E:\Works\NSCAM\obj/../LCD/lcd.c:60
    GPIOB_SetBits(GPIO_Pin_24);
    214e:	543c                	lw	a5,104(s0)
    2150:	01000737          	lui	a4,0x1000
E:\Works\NSCAM\obj/../LCD/lcd.c:58
void _lcd_writeDatas(pLCD* p, uint8_t* data, uint16_t length) {
    2154:	852e                	mv	a0,a1
E:\Works\NSCAM\obj/../LCD/lcd.c:60
    GPIOB_SetBits(GPIO_Pin_24);
    2156:	8fd9                	or	a5,a5,a4
    2158:	d43c                	sw	a5,104(s0)
E:\Works\NSCAM\obj/../LCD/lcd.c:61
    SPI1_MasterTrans(data, length);
    215a:	85b2                	mv	a1,a2
    215c:	da5ff0ef          	jal	ra,1f00 <SPI1_MasterTrans>
E:\Works\NSCAM\obj/../LCD/lcd.c:62
    GPIOB_SetBits(GPIO_Pin_11);
    2160:	543c                	lw	a5,104(s0)
E:\Works\NSCAM\obj/../LCD/lcd.c:63
}
    2162:	40b2                	lw	ra,12(sp)
E:\Works\NSCAM\obj/../LCD/lcd.c:62
    GPIOB_SetBits(GPIO_Pin_11);
    2164:	8cdd                	or	s1,s1,a5
    2166:	d424                	sw	s1,104(s0)
E:\Works\NSCAM\obj/../LCD/lcd.c:63
}
    2168:	4422                	lw	s0,8(sp)
    216a:	4492                	lw	s1,4(sp)
    216c:	0141                	addi	sp,sp,16
    216e:	8082                	ret

00002170 <_lcd_writeData16>:
_lcd_writeData16():
E:\Works\NSCAM\obj/../LCD/lcd.c:65
void _lcd_writeData16(pLCD* p, uint16_t data) {
    2170:	1101                	addi	sp,sp,-32
    2172:	cc22                	sw	s0,24(sp)
E:\Works\NSCAM\obj/../LCD/lcd.c:66
    GPIOB_ResetBits(GPIO_Pin_11);
    2174:	40001437          	lui	s0,0x40001
    2178:	547c                	lw	a5,108(s0)
E:\Works\NSCAM\obj/../LCD/lcd.c:65
void _lcd_writeData16(pLCD* p, uint16_t data) {
    217a:	ca26                	sw	s1,20(sp)
E:\Works\NSCAM\obj/../LCD/lcd.c:66
    GPIOB_ResetBits(GPIO_Pin_11);
    217c:	6485                	lui	s1,0x1
    217e:	80048493          	addi	s1,s1,-2048 # 800 <__stack_size>
E:\Works\NSCAM\obj/../LCD/lcd.c:65
void _lcd_writeData16(pLCD* p, uint16_t data) {
    2182:	ce06                	sw	ra,28(sp)
    2184:	00b11723          	sh	a1,14(sp)
E:\Works\NSCAM\obj/../LCD/lcd.c:66
    GPIOB_ResetBits(GPIO_Pin_11);
    2188:	8fc5                	or	a5,a5,s1
    218a:	d47c                	sw	a5,108(s0)
E:\Works\NSCAM\obj/../LCD/lcd.c:67
    GPIOB_SetBits(GPIO_Pin_24);
    218c:	543c                	lw	a5,104(s0)
    218e:	01000737          	lui	a4,0x1000
E:\Works\NSCAM\obj/../LCD/lcd.c:68
    SPI1_MasterTrans((uint8_t*) &data, 2);
    2192:	00e10513          	addi	a0,sp,14
E:\Works\NSCAM\obj/../LCD/lcd.c:67
    GPIOB_SetBits(GPIO_Pin_24);
    2196:	8fd9                	or	a5,a5,a4
    2198:	d43c                	sw	a5,104(s0)
E:\Works\NSCAM\obj/../LCD/lcd.c:68
    SPI1_MasterTrans((uint8_t*) &data, 2);
    219a:	4589                	li	a1,2
    219c:	d65ff0ef          	jal	ra,1f00 <SPI1_MasterTrans>
E:\Works\NSCAM\obj/../LCD/lcd.c:69
    GPIOB_SetBits(GPIO_Pin_11);
    21a0:	543c                	lw	a5,104(s0)
E:\Works\NSCAM\obj/../LCD/lcd.c:70
}
    21a2:	40f2                	lw	ra,28(sp)
E:\Works\NSCAM\obj/../LCD/lcd.c:69
    GPIOB_SetBits(GPIO_Pin_11);
    21a4:	8cdd                	or	s1,s1,a5
    21a6:	d424                	sw	s1,104(s0)
E:\Works\NSCAM\obj/../LCD/lcd.c:70
}
    21a8:	4462                	lw	s0,24(sp)
    21aa:	44d2                	lw	s1,20(sp)
    21ac:	6105                	addi	sp,sp,32
    21ae:	8082                	ret

000021b0 <_lcd_writeData16s>:
_lcd_writeData16s():
E:\Works\NSCAM\obj/../LCD/lcd.c:72
void _lcd_writeData16s(pLCD* p, uint16_t* data, uint32_t length) {
    21b0:	1141                	addi	sp,sp,-16
    21b2:	c422                	sw	s0,8(sp)
E:\Works\NSCAM\obj/../LCD/lcd.c:73
    GPIOB_ResetBits(GPIO_Pin_11);
    21b4:	40001437          	lui	s0,0x40001
    21b8:	547c                	lw	a5,108(s0)
E:\Works\NSCAM\obj/../LCD/lcd.c:72
void _lcd_writeData16s(pLCD* p, uint16_t* data, uint32_t length) {
    21ba:	c226                	sw	s1,4(sp)
E:\Works\NSCAM\obj/../LCD/lcd.c:73
    GPIOB_ResetBits(GPIO_Pin_11);
    21bc:	6485                	lui	s1,0x1
    21be:	80048493          	addi	s1,s1,-2048 # 800 <__stack_size>
E:\Works\NSCAM\obj/../LCD/lcd.c:72
void _lcd_writeData16s(pLCD* p, uint16_t* data, uint32_t length) {
    21c2:	c606                	sw	ra,12(sp)
E:\Works\NSCAM\obj/../LCD/lcd.c:73
    GPIOB_ResetBits(GPIO_Pin_11);
    21c4:	8fc5                	or	a5,a5,s1
    21c6:	d47c                	sw	a5,108(s0)
E:\Works\NSCAM\obj/../LCD/lcd.c:74
    GPIOB_SetBits(GPIO_Pin_24);
    21c8:	543c                	lw	a5,104(s0)
    21ca:	01000737          	lui	a4,0x1000
E:\Works\NSCAM\obj/../LCD/lcd.c:75
    SPI1_MasterTrans((uint8_t*) data, length * 2);
    21ce:	0606                	slli	a2,a2,0x1
E:\Works\NSCAM\obj/../LCD/lcd.c:74
    GPIOB_SetBits(GPIO_Pin_24);
    21d0:	8fd9                	or	a5,a5,a4
E:\Works\NSCAM\obj/../LCD/lcd.c:72
void _lcd_writeData16s(pLCD* p, uint16_t* data, uint32_t length) {
    21d2:	852e                	mv	a0,a1
E:\Works\NSCAM\obj/../LCD/lcd.c:75
    SPI1_MasterTrans((uint8_t*) data, length * 2);
    21d4:	01061593          	slli	a1,a2,0x10
E:\Works\NSCAM\obj/../LCD/lcd.c:74
    GPIOB_SetBits(GPIO_Pin_24);
    21d8:	d43c                	sw	a5,104(s0)
E:\Works\NSCAM\obj/../LCD/lcd.c:75
    SPI1_MasterTrans((uint8_t*) data, length * 2);
    21da:	81c1                	srli	a1,a1,0x10
    21dc:	d25ff0ef          	jal	ra,1f00 <SPI1_MasterTrans>
E:\Works\NSCAM\obj/../LCD/lcd.c:76
    GPIOB_SetBits(GPIO_Pin_11);
    21e0:	543c                	lw	a5,104(s0)
E:\Works\NSCAM\obj/../LCD/lcd.c:77
}
    21e2:	40b2                	lw	ra,12(sp)
E:\Works\NSCAM\obj/../LCD/lcd.c:76
    GPIOB_SetBits(GPIO_Pin_11);
    21e4:	8cdd                	or	s1,s1,a5
    21e6:	d424                	sw	s1,104(s0)
E:\Works\NSCAM\obj/../LCD/lcd.c:77
}
    21e8:	4422                	lw	s0,8(sp)
    21ea:	4492                	lw	s1,4(sp)
    21ec:	0141                	addi	sp,sp,16
    21ee:	8082                	ret

000021f0 <__spi1_blk_trans>:
__spi1_blk_trans():
E:\Works\NSCAM\obj/../LCD/lcd.c:82
    GPIOB_ResetBits(GPIO_Pin_11);
    21f0:	400017b7          	lui	a5,0x40001
    21f4:	57f8                	lw	a4,108(a5)
    21f6:	6685                	lui	a3,0x1
E:\Works\NSCAM\obj/../LCD/lcd.c:79
void __spi1_blk_trans(uint16_t* data, uint32_t size) {
    21f8:	1101                	addi	sp,sp,-32
E:\Works\NSCAM\obj/../LCD/lcd.c:82
    GPIOB_ResetBits(GPIO_Pin_11);
    21fa:	80068693          	addi	a3,a3,-2048 # 800 <__stack_size>
E:\Works\NSCAM\obj/../LCD/lcd.c:79
void __spi1_blk_trans(uint16_t* data, uint32_t size) {
    21fe:	cc22                	sw	s0,24(sp)
    2200:	ca26                	sw	s1,20(sp)
    2202:	c64e                	sw	s3,12(sp)
    2204:	c452                	sw	s4,8(sp)
E:\Works\NSCAM\obj/../LCD/lcd.c:82
    GPIOB_ResetBits(GPIO_Pin_11);
    2206:	8f55                	or	a4,a4,a3
E:\Works\NSCAM\obj/../LCD/lcd.c:79
void __spi1_blk_trans(uint16_t* data, uint32_t size) {
    2208:	ce06                	sw	ra,28(sp)
    220a:	c84a                	sw	s2,16(sp)
E:\Works\NSCAM\obj/../LCD/lcd.c:82
    GPIOB_ResetBits(GPIO_Pin_11);
    220c:	d7f8                	sw	a4,108(a5)
E:\Works\NSCAM\obj/../LCD/lcd.c:83
    GPIOB_SetBits(GPIO_Pin_24);
    220e:	57b8                	lw	a4,104(a5)
E:\Works\NSCAM\obj/../LCD/lcd.c:81
    uint16_t blks = size / blk, last = size % blk;
    2210:	0095d413          	srli	s0,a1,0x9
E:\Works\NSCAM\obj/../LCD/lcd.c:83
    GPIOB_SetBits(GPIO_Pin_24);
    2214:	010006b7          	lui	a3,0x1000
E:\Works\NSCAM\obj/../LCD/lcd.c:81
    uint16_t blks = size / blk, last = size % blk;
    2218:	01041a13          	slli	s4,s0,0x10
E:\Works\NSCAM\obj/../LCD/lcd.c:83
    GPIOB_SetBits(GPIO_Pin_24);
    221c:	8f55                	or	a4,a4,a3
E:\Works\NSCAM\obj/../LCD/lcd.c:81
    uint16_t blks = size / blk, last = size % blk;
    221e:	010a5a13          	srli	s4,s4,0x10
E:\Works\NSCAM\obj/../LCD/lcd.c:83
    GPIOB_SetBits(GPIO_Pin_24);
    2222:	d7b8                	sw	a4,104(a5)
E:\Works\NSCAM\obj/../LCD/lcd.c:79
void __spi1_blk_trans(uint16_t* data, uint32_t size) {
    2224:	89aa                	mv	s3,a0
E:\Works\NSCAM\obj/../LCD/lcd.c:81
    uint16_t blks = size / blk, last = size % blk;
    2226:	1ff5f493          	andi	s1,a1,511
E:\Works\NSCAM\obj/../LCD/lcd.c:84
    if (blks > 0)
    222a:	020a0063          	beqz	s4,224a <__spi1_blk_trans+0x5a>
    222e:	4901                	li	s2,0
E:\Works\NSCAM\obj/../LCD/lcd.c:86 (discriminator 3)
            SPI1_MasterTrans((uint8_t*) (data + i * blk), blk * 2);
    2230:	00a91513          	slli	a0,s2,0xa
    2234:	40000593          	li	a1,1024
    2238:	954e                	add	a0,a0,s3
    223a:	cc7ff0ef          	jal	ra,1f00 <SPI1_MasterTrans>
    223e:	0905                	addi	s2,s2,1
E:\Works\NSCAM\obj/../LCD/lcd.c:85 (discriminator 3)
        for (uint16_t i = 0; i < blks; i++)
    2240:	01091793          	slli	a5,s2,0x10
    2244:	83c1                	srli	a5,a5,0x10
    2246:	ff47e5e3          	bltu	a5,s4,2230 <__spi1_blk_trans+0x40>
E:\Works\NSCAM\obj/../LCD/lcd.c:87
    if (last > 0)
    224a:	c891                	beqz	s1,225e <__spi1_blk_trans+0x6e>
E:\Works\NSCAM\obj/../LCD/lcd.c:88
        SPI1_MasterTrans((uint8_t*) (data + blks * blk), last * 2);
    224c:	01041513          	slli	a0,s0,0x10
    2250:	8141                	srli	a0,a0,0x10
    2252:	052a                	slli	a0,a0,0xa
    2254:	00149593          	slli	a1,s1,0x1
    2258:	954e                	add	a0,a0,s3
    225a:	ca7ff0ef          	jal	ra,1f00 <SPI1_MasterTrans>
E:\Works\NSCAM\obj/../LCD/lcd.c:89
    GPIOB_SetBits(GPIO_Pin_11);
    225e:	400016b7          	lui	a3,0x40001
    2262:	56bc                	lw	a5,104(a3)
    2264:	6705                	lui	a4,0x1
E:\Works\NSCAM\obj/../LCD/lcd.c:90
}
    2266:	40f2                	lw	ra,28(sp)
    2268:	4462                	lw	s0,24(sp)
E:\Works\NSCAM\obj/../LCD/lcd.c:89
    GPIOB_SetBits(GPIO_Pin_11);
    226a:	80070713          	addi	a4,a4,-2048 # 800 <__stack_size>
    226e:	8fd9                	or	a5,a5,a4
    2270:	d6bc                	sw	a5,104(a3)
E:\Works\NSCAM\obj/../LCD/lcd.c:90
}
    2272:	44d2                	lw	s1,20(sp)
    2274:	4942                	lw	s2,16(sp)
    2276:	49b2                	lw	s3,12(sp)
    2278:	4a22                	lw	s4,8(sp)
    227a:	6105                	addi	sp,sp,32
    227c:	8082                	ret

0000227e <__spi1_flash>:
__spi1_flash():
E:\Works\NSCAM\obj/../LCD/lcd.c:92
void __spi1_flash(uint16_t data, uint16_t size) {
    227e:	1141                	addi	sp,sp,-16
E:\Works\NSCAM\obj/../LCD/lcd.c:96
    R8_SPI1_CTRL_MOD &= ~RB_SPI_FIFO_DIR;
    2280:	400047b7          	lui	a5,0x40004
E:\Works\NSCAM\obj/../LCD/lcd.c:92
void __spi1_flash(uint16_t data, uint16_t size) {
    2284:	00a11723          	sh	a0,14(sp)
E:\Works\NSCAM\obj/../LCD/lcd.c:96
    R8_SPI1_CTRL_MOD &= ~RB_SPI_FIFO_DIR;
    2288:	4007c703          	lbu	a4,1024(a5) # 40004400 <sensor_lcd_map+0x1ffe3a00>
E:\Works\NSCAM\obj/../LCD/lcd.c:93
    uint16_t len = size * 2;
    228c:	0586                	slli	a1,a1,0x1
    228e:	05c2                	slli	a1,a1,0x10
E:\Works\NSCAM\obj/../LCD/lcd.c:96
    R8_SPI1_CTRL_MOD &= ~RB_SPI_FIFO_DIR;
    2290:	0ef77713          	andi	a4,a4,239
    2294:	40e78023          	sb	a4,1024(a5)
E:\Works\NSCAM\obj/../LCD/lcd.c:93
    uint16_t len = size * 2;
    2298:	81c1                	srli	a1,a1,0x10
E:\Works\NSCAM\obj/../LCD/lcd.c:97
    R16_SPI1_TOTAL_CNT = len;
    229a:	40b79623          	sh	a1,1036(a5)
E:\Works\NSCAM\obj/../LCD/lcd.c:98
    R8_SPI1_INT_FLAG = RB_SPI_IF_CNT_END;
    229e:	4705                	li	a4,1
    22a0:	40e78323          	sb	a4,1030(a5)
E:\Works\NSCAM\obj/../LCD/lcd.c:100
        if (R8_SPI1_FIFO_COUNT < SPI_FIFO_SIZE) {
    22a4:	469d                	li	a3,7
E:\Works\NSCAM\obj/../LCD/lcd.c:95
    uint8_t i = 0;
    22a6:	4781                	li	a5,0
E:\Works\NSCAM\obj/../LCD/lcd.c:100
        if (R8_SPI1_FIFO_COUNT < SPI_FIFO_SIZE) {
    22a8:	40004737          	lui	a4,0x40004
    22ac:	40004637          	lui	a2,0x40004
E:\Works\NSCAM\obj/../LCD/lcd.c:99
    while (len) {
    22b0:	e991                	bnez	a1,22c4 <__spi1_flash+0x46>
E:\Works\NSCAM\obj/../LCD/lcd.c:106
    while( R8_SPI1_FIFO_COUNT != 0 );
    22b2:	40004737          	lui	a4,0x40004
    22b6:	40774783          	lbu	a5,1031(a4) # 40004407 <sensor_lcd_map+0x1ffe3a07>
    22ba:	0ff7f793          	andi	a5,a5,255
    22be:	ffe5                	bnez	a5,22b6 <__spi1_flash+0x38>
E:\Works\NSCAM\obj/../LCD/lcd.c:107
}
    22c0:	0141                	addi	sp,sp,16
    22c2:	8082                	ret
E:\Works\NSCAM\obj/../LCD/lcd.c:100
        if (R8_SPI1_FIFO_COUNT < SPI_FIFO_SIZE) {
    22c4:	40774503          	lbu	a0,1031(a4)
    22c8:	fea6e4e3          	bltu	a3,a0,22b0 <__spi1_flash+0x32>
E:\Works\NSCAM\obj/../LCD/lcd.c:101
            R8_SPI1_FIFO = pbuf[i];
    22cc:	0808                	addi	a0,sp,16
    22ce:	953e                	add	a0,a0,a5
    22d0:	ffe54503          	lbu	a0,-2(a0)
E:\Works\NSCAM\obj/../LCD/lcd.c:103
            len--;
    22d4:	15fd                	addi	a1,a1,-1
    22d6:	05c2                	slli	a1,a1,0x10
E:\Works\NSCAM\obj/../LCD/lcd.c:101
            R8_SPI1_FIFO = pbuf[i];
    22d8:	40a60823          	sb	a0,1040(a2) # 40004410 <sensor_lcd_map+0x1ffe3a10>
E:\Works\NSCAM\obj/../LCD/lcd.c:102
            i = (i == 0) ? 1 : 0;
    22dc:	0017c793          	xori	a5,a5,1
E:\Works\NSCAM\obj/../LCD/lcd.c:103
            len--;
    22e0:	81c1                	srli	a1,a1,0x10
    22e2:	b7f9                	j	22b0 <__spi1_flash+0x32>

000022e4 <_lcd_flashData16>:
_lcd_flashData16():
E:\Works\NSCAM\obj/../LCD/lcd.c:112
    GPIOB_ResetBits(GPIO_Pin_11);
    22e4:	400017b7          	lui	a5,0x40001
    22e8:	57f8                	lw	a4,108(a5)
    22ea:	6685                	lui	a3,0x1
E:\Works\NSCAM\obj/../LCD/lcd.c:109
void _lcd_flashData16(pLCD* p, uint16_t data, uint32_t count) {
    22ec:	1101                	addi	sp,sp,-32
E:\Works\NSCAM\obj/../LCD/lcd.c:112
    GPIOB_ResetBits(GPIO_Pin_11);
    22ee:	80068693          	addi	a3,a3,-2048 # 800 <__stack_size>
E:\Works\NSCAM\obj/../LCD/lcd.c:109
void _lcd_flashData16(pLCD* p, uint16_t data, uint32_t count) {
    22f2:	c84a                	sw	s2,16(sp)
    22f4:	c64e                	sw	s3,12(sp)
E:\Works\NSCAM\obj/../LCD/lcd.c:112
    GPIOB_ResetBits(GPIO_Pin_11);
    22f6:	8f55                	or	a4,a4,a3
E:\Works\NSCAM\obj/../LCD/lcd.c:109
void _lcd_flashData16(pLCD* p, uint16_t data, uint32_t count) {
    22f8:	ce06                	sw	ra,28(sp)
    22fa:	cc22                	sw	s0,24(sp)
    22fc:	ca26                	sw	s1,20(sp)
E:\Works\NSCAM\obj/../LCD/lcd.c:112
    GPIOB_ResetBits(GPIO_Pin_11);
    22fe:	d7f8                	sw	a4,108(a5)
E:\Works\NSCAM\obj/../LCD/lcd.c:113
    GPIOB_SetBits(GPIO_Pin_24);
    2300:	57b8                	lw	a4,104(a5)
    2302:	010006b7          	lui	a3,0x1000
E:\Works\NSCAM\obj/../LCD/lcd.c:109
void _lcd_flashData16(pLCD* p, uint16_t data, uint32_t count) {
    2306:	892e                	mv	s2,a1
E:\Works\NSCAM\obj/../LCD/lcd.c:113
    GPIOB_SetBits(GPIO_Pin_24);
    2308:	8f55                	or	a4,a4,a3
    230a:	d7b8                	sw	a4,104(a5)
E:\Works\NSCAM\obj/../LCD/lcd.c:114
    if (loop > 0)
    230c:	1ff00793          	li	a5,511
E:\Works\NSCAM\obj/../LCD/lcd.c:111
    uint32_t loop = count / blk, last = count % blk;
    2310:	1ff67993          	andi	s3,a2,511
E:\Works\NSCAM\obj/../LCD/lcd.c:114
    if (loop > 0)
    2314:	00c7f763          	bgeu	a5,a2,2322 <_lcd_flashData16+0x3e>
E:\Works\NSCAM\obj/../LCD/lcd.c:111
    uint32_t loop = count / blk, last = count % blk;
    2318:	00965413          	srli	s0,a2,0x9
E:\Works\NSCAM\obj/../LCD/lcd.c:115
        for (uint16_t i = 0; i < loop; i++)
    231c:	4481                	li	s1,0
E:\Works\NSCAM\obj/../LCD/lcd.c:115 (discriminator 1)
    231e:	0284e463          	bltu	s1,s0,2346 <_lcd_flashData16+0x62>
E:\Works\NSCAM\obj/../LCD/lcd.c:117
    __spi1_flash(data, last);
    2322:	85ce                	mv	a1,s3
    2324:	854a                	mv	a0,s2
    2326:	3fa1                	jal	227e <__spi1_flash>
E:\Works\NSCAM\obj/../LCD/lcd.c:118
    GPIOB_SetBits(GPIO_Pin_11);
    2328:	400016b7          	lui	a3,0x40001
    232c:	56bc                	lw	a5,104(a3)
    232e:	6705                	lui	a4,0x1
E:\Works\NSCAM\obj/../LCD/lcd.c:119
}
    2330:	40f2                	lw	ra,28(sp)
    2332:	4462                	lw	s0,24(sp)
E:\Works\NSCAM\obj/../LCD/lcd.c:118
    GPIOB_SetBits(GPIO_Pin_11);
    2334:	80070713          	addi	a4,a4,-2048 # 800 <__stack_size>
    2338:	8fd9                	or	a5,a5,a4
    233a:	d6bc                	sw	a5,104(a3)
E:\Works\NSCAM\obj/../LCD/lcd.c:119
}
    233c:	44d2                	lw	s1,20(sp)
    233e:	4942                	lw	s2,16(sp)
    2340:	49b2                	lw	s3,12(sp)
    2342:	6105                	addi	sp,sp,32
    2344:	8082                	ret
E:\Works\NSCAM\obj/../LCD/lcd.c:115 (discriminator 3)
        for (uint16_t i = 0; i < loop; i++)
    2346:	0485                	addi	s1,s1,1
E:\Works\NSCAM\obj/../LCD/lcd.c:116 (discriminator 3)
            __spi1_flash(data, blk);
    2348:	20000593          	li	a1,512
    234c:	854a                	mv	a0,s2
E:\Works\NSCAM\obj/../LCD/lcd.c:115 (discriminator 3)
        for (uint16_t i = 0; i < loop; i++)
    234e:	04c2                	slli	s1,s1,0x10
E:\Works\NSCAM\obj/../LCD/lcd.c:116 (discriminator 3)
            __spi1_flash(data, blk);
    2350:	373d                	jal	227e <__spi1_flash>
E:\Works\NSCAM\obj/../LCD/lcd.c:115 (discriminator 3)
        for (uint16_t i = 0; i < loop; i++)
    2352:	80c1                	srli	s1,s1,0x10
    2354:	b7e9                	j	231e <_lcd_flashData16+0x3a>

00002356 <_lcd_writeReg8>:
_lcd_writeReg8():
E:\Works\NSCAM\obj/../LCD/lcd.c:121
void _lcd_writeReg8(pLCD* p, uint8_t cmd, uint32_t data) {
    2356:	1101                	addi	sp,sp,-32
    2358:	cc22                	sw	s0,24(sp)
    235a:	842a                	mv	s0,a0
E:\Works\NSCAM\obj/../LCD/lcd.c:122
	_lcd_writeCommand(p, cmd);
    235c:	852e                	mv	a0,a1
E:\Works\NSCAM\obj/../LCD/lcd.c:121
void _lcd_writeReg8(pLCD* p, uint8_t cmd, uint32_t data) {
    235e:	ce06                	sw	ra,28(sp)
    2360:	c632                	sw	a2,12(sp)
E:\Works\NSCAM\obj/../LCD/lcd.c:122
	_lcd_writeCommand(p, cmd);
    2362:	ce3ff0ef          	jal	ra,2044 <_lcd_writeCommand.constprop.5>
E:\Works\NSCAM\obj/../LCD/lcd.c:123
	_lcd_writeData(p, data);
    2366:	4632                	lw	a2,12(sp)
    2368:	8522                	mv	a0,s0
E:\Works\NSCAM\obj/../LCD/lcd.c:124
}
    236a:	4462                	lw	s0,24(sp)
    236c:	40f2                	lw	ra,28(sp)
E:\Works\NSCAM\obj/../LCD/lcd.c:123
	_lcd_writeData(p, data);
    236e:	0ff67593          	andi	a1,a2,255
E:\Works\NSCAM\obj/../LCD/lcd.c:124
}
    2372:	6105                	addi	sp,sp,32
E:\Works\NSCAM\obj/../LCD/lcd.c:123
	_lcd_writeData(p, data);
    2374:	d8bff06f          	j	20fe <_lcd_writeData>

00002378 <_lcd_writeReg32>:
_lcd_writeReg32():
E:\Works\NSCAM\obj/../LCD/lcd.c:126
void _lcd_writeReg32(pLCD* p, uint8_t cmd, uint32_t data) {
    2378:	1141                	addi	sp,sp,-16
    237a:	c422                	sw	s0,8(sp)
    237c:	842a                	mv	s0,a0
E:\Works\NSCAM\obj/../LCD/lcd.c:127
	_lcd_writeCommand(p, cmd);
    237e:	852e                	mv	a0,a1
E:\Works\NSCAM\obj/../LCD/lcd.c:126
void _lcd_writeReg32(pLCD* p, uint8_t cmd, uint32_t data) {
    2380:	c606                	sw	ra,12(sp)
    2382:	c226                	sw	s1,4(sp)
    2384:	84b2                	mv	s1,a2
E:\Works\NSCAM\obj/../LCD/lcd.c:127
	_lcd_writeCommand(p, cmd);
    2386:	cbfff0ef          	jal	ra,2044 <_lcd_writeCommand.constprop.5>
E:\Works\NSCAM\obj/../LCD/lcd.c:128
	_lcd_writeData(p, (data >> 24) & 0xFF);
    238a:	0184d593          	srli	a1,s1,0x18
    238e:	8522                	mv	a0,s0
    2390:	d6fff0ef          	jal	ra,20fe <_lcd_writeData>
E:\Works\NSCAM\obj/../LCD/lcd.c:129
	_lcd_writeData(p, (data >> 16) & 0xFF);
    2394:	0104d593          	srli	a1,s1,0x10
    2398:	8522                	mv	a0,s0
    239a:	0ff5f593          	andi	a1,a1,255
    239e:	d61ff0ef          	jal	ra,20fe <_lcd_writeData>
E:\Works\NSCAM\obj/../LCD/lcd.c:130
	_lcd_writeData(p, (data >> 8 ) & 0xFF);
    23a2:	0084d593          	srli	a1,s1,0x8
    23a6:	8522                	mv	a0,s0
    23a8:	0ff5f593          	andi	a1,a1,255
    23ac:	d53ff0ef          	jal	ra,20fe <_lcd_writeData>
E:\Works\NSCAM\obj/../LCD/lcd.c:131
	_lcd_writeData(p, (data      ) & 0xFF);
    23b0:	8522                	mv	a0,s0
E:\Works\NSCAM\obj/../LCD/lcd.c:132
}
    23b2:	4422                	lw	s0,8(sp)
    23b4:	40b2                	lw	ra,12(sp)
E:\Works\NSCAM\obj/../LCD/lcd.c:131
	_lcd_writeData(p, (data      ) & 0xFF);
    23b6:	0ff4f593          	andi	a1,s1,255
E:\Works\NSCAM\obj/../LCD/lcd.c:132
}
    23ba:	4492                	lw	s1,4(sp)
    23bc:	0141                	addi	sp,sp,16
E:\Works\NSCAM\obj/../LCD/lcd.c:131
	_lcd_writeData(p, (data      ) & 0xFF);
    23be:	d41ff06f          	j	20fe <_lcd_writeData>

000023c2 <_lcd_setPosition>:
_lcd_setPosition():
E:\Works\NSCAM\obj/../LCD/lcd.c:134
void _lcd_setPosition(pLCD* p, uint16_t x1, uint16_t y1, uint16_t x2, uint16_t y2) { 
    23c2:	1101                	addi	sp,sp,-32
    23c4:	cc22                	sw	s0,24(sp)
    23c6:	8432                	mv	s0,a2
E:\Works\NSCAM\obj/../LCD/lcd.c:135
    _lcd_writeReg32(p, ILI9341_CASET, (x1 << 16) | x2);
    23c8:	01059613          	slli	a2,a1,0x10
    23cc:	8e55                	or	a2,a2,a3
    23ce:	02a00593          	li	a1,42
E:\Works\NSCAM\obj/../LCD/lcd.c:134
void _lcd_setPosition(pLCD* p, uint16_t x1, uint16_t y1, uint16_t x2, uint16_t y2) { 
    23d2:	ca26                	sw	s1,20(sp)
    23d4:	ce06                	sw	ra,28(sp)
    23d6:	84aa                	mv	s1,a0
    23d8:	c63a                	sw	a4,12(sp)
E:\Works\NSCAM\obj/../LCD/lcd.c:135
    _lcd_writeReg32(p, ILI9341_CASET, (x1 << 16) | x2);
    23da:	3f79                	jal	2378 <_lcd_writeReg32>
E:\Works\NSCAM\obj/../LCD/lcd.c:136
    _lcd_writeReg32(p, ILI9341_PASET, (y1 << 16) | y2);
    23dc:	4732                	lw	a4,12(sp)
    23de:	01041613          	slli	a2,s0,0x10
E:\Works\NSCAM\obj/../LCD/lcd.c:137
}
    23e2:	4462                	lw	s0,24(sp)
    23e4:	40f2                	lw	ra,28(sp)
E:\Works\NSCAM\obj/../LCD/lcd.c:136
    _lcd_writeReg32(p, ILI9341_PASET, (y1 << 16) | y2);
    23e6:	8526                	mv	a0,s1
E:\Works\NSCAM\obj/../LCD/lcd.c:137
}
    23e8:	44d2                	lw	s1,20(sp)
E:\Works\NSCAM\obj/../LCD/lcd.c:136
    _lcd_writeReg32(p, ILI9341_PASET, (y1 << 16) | y2);
    23ea:	8e59                	or	a2,a2,a4
    23ec:	02b00593          	li	a1,43
E:\Works\NSCAM\obj/../LCD/lcd.c:137
}
    23f0:	6105                	addi	sp,sp,32
E:\Works\NSCAM\obj/../LCD/lcd.c:136
    _lcd_writeReg32(p, ILI9341_PASET, (y1 << 16) | y2);
    23f2:	b759                	j	2378 <_lcd_writeReg32>

000023f4 <_lcd_rotate>:
_lcd_rotate():
E:\Works\NSCAM\obj/../LCD/lcd.c:160
void _lcd_rotate(pLCD* p, uint8_t r) {
    23f4:	1141                	addi	sp,sp,-16
    23f6:	c422                	sw	s0,8(sp)
    23f8:	c606                	sw	ra,12(sp)
E:\Works\NSCAM\obj/../LCD/lcd.c:162
	r %= 4;
    23fa:	898d                	andi	a1,a1,3
E:\Works\NSCAM\obj/../LCD/lcd.c:163
	p->rotate = r;
    23fc:	00b50823          	sb	a1,16(a0)
E:\Works\NSCAM\obj/../LCD/lcd.c:164
	switch (r) {
    2400:	4789                	li	a5,2
E:\Works\NSCAM\obj/../LCD/lcd.c:160
void _lcd_rotate(pLCD* p, uint8_t r) {
    2402:	842a                	mv	s0,a0
    2404:	06f58263          	beq	a1,a5,2468 <_lcd_rotate+0x74>
    2408:	478d                	li	a5,3
    240a:	06f58a63          	beq	a1,a5,247e <_lcd_rotate+0x8a>
    240e:	4785                	li	a5,1
    2410:	04f58163          	beq	a1,a5,2452 <_lcd_rotate+0x5e>
E:\Works\NSCAM\obj/../LCD/lcd.c:167
        p->width = ILI9341_TFTWIDTH;
    2414:	0f000793          	li	a5,240
    2418:	00f51123          	sh	a5,2(a0)
E:\Works\NSCAM\obj/../LCD/lcd.c:168
        p->height = ILI9341_TFTHEIGHT;
    241c:	14000793          	li	a5,320
    2420:	00f51223          	sh	a5,4(a0)
E:\Works\NSCAM\obj/../LCD/lcd.c:166
        t = (MADCTL_MX | MADCTL_BGR);
    2424:	04800613          	li	a2,72
E:\Works\NSCAM\obj/../LCD/lcd.c:186
	_lcd_writeReg8(p, ILI9341_MADCTL, t);
    2428:	8522                	mv	a0,s0
    242a:	03600593          	li	a1,54
    242e:	3725                	jal	2356 <_lcd_writeReg8>
E:\Works\NSCAM\obj/../LCD/lcd.c:187
	_lcd_setPosition(p, 0, 0, p->width - 1, p->height - 1);
    2430:	00445703          	lhu	a4,4(s0) # 40001004 <sensor_lcd_map+0x1ffe0604>
    2434:	00245683          	lhu	a3,2(s0)
    2438:	8522                	mv	a0,s0
E:\Works\NSCAM\obj/../LCD/lcd.c:188
}
    243a:	4422                	lw	s0,8(sp)
    243c:	40b2                	lw	ra,12(sp)
E:\Works\NSCAM\obj/../LCD/lcd.c:187
	_lcd_setPosition(p, 0, 0, p->width - 1, p->height - 1);
    243e:	177d                	addi	a4,a4,-1
    2440:	16fd                	addi	a3,a3,-1
    2442:	0742                	slli	a4,a4,0x10
    2444:	06c2                	slli	a3,a3,0x10
    2446:	8341                	srli	a4,a4,0x10
    2448:	82c1                	srli	a3,a3,0x10
    244a:	4601                	li	a2,0
    244c:	4581                	li	a1,0
E:\Works\NSCAM\obj/../LCD/lcd.c:188
}
    244e:	0141                	addi	sp,sp,16
E:\Works\NSCAM\obj/../LCD/lcd.c:187
	_lcd_setPosition(p, 0, 0, p->width - 1, p->height - 1);
    2450:	bf8d                	j	23c2 <_lcd_setPosition>
E:\Works\NSCAM\obj/../LCD/lcd.c:172
        p->width = ILI9341_TFTHEIGHT;
    2452:	14000793          	li	a5,320
    2456:	00f51123          	sh	a5,2(a0)
E:\Works\NSCAM\obj/../LCD/lcd.c:173
        p->height = ILI9341_TFTWIDTH;
    245a:	0f000793          	li	a5,240
    245e:	00f51223          	sh	a5,4(a0)
E:\Works\NSCAM\obj/../LCD/lcd.c:171
        t = (MADCTL_MV | MADCTL_BGR);
    2462:	02800613          	li	a2,40
E:\Works\NSCAM\obj/../LCD/lcd.c:174
        break;
    2466:	b7c9                	j	2428 <_lcd_rotate+0x34>
E:\Works\NSCAM\obj/../LCD/lcd.c:177
        p->width = ILI9341_TFTWIDTH;
    2468:	0f000793          	li	a5,240
    246c:	00f51123          	sh	a5,2(a0)
E:\Works\NSCAM\obj/../LCD/lcd.c:178
        p->height = ILI9341_TFTHEIGHT;
    2470:	14000793          	li	a5,320
    2474:	00f51223          	sh	a5,4(a0)
E:\Works\NSCAM\obj/../LCD/lcd.c:176
        t = (MADCTL_MY | MADCTL_BGR);
    2478:	08800613          	li	a2,136
E:\Works\NSCAM\obj/../LCD/lcd.c:179
        break;
    247c:	b775                	j	2428 <_lcd_rotate+0x34>
E:\Works\NSCAM\obj/../LCD/lcd.c:182
        p->width = ILI9341_TFTHEIGHT;
    247e:	14000793          	li	a5,320
    2482:	00f51123          	sh	a5,2(a0)
E:\Works\NSCAM\obj/../LCD/lcd.c:183
        p->height = ILI9341_TFTWIDTH;
    2486:	0f000793          	li	a5,240
    248a:	00f51223          	sh	a5,4(a0)
E:\Works\NSCAM\obj/../LCD/lcd.c:181
        t = (MADCTL_MX | MADCTL_MY | MADCTL_MV | MADCTL_BGR);
    248e:	0e800613          	li	a2,232
E:\Works\NSCAM\obj/../LCD/lcd.c:184
        break;
    2492:	bf59                	j	2428 <_lcd_rotate+0x34>

00002494 <_lcd_init>:
_lcd_init():
E:\Works\NSCAM\obj/../LCD/lcd.c:190
void _lcd_init(pLCD* p) {
    2494:	1101                	addi	sp,sp,-32
    2496:	ce06                	sw	ra,28(sp)
    2498:	cc22                	sw	s0,24(sp)
    249a:	ca26                	sw	s1,20(sp)
    249c:	c84a                	sw	s2,16(sp)
    249e:	84aa                	mv	s1,a0
    24a0:	c64e                	sw	s3,12(sp)
E:\Works\NSCAM\obj/../LCD/lcd.c:191
    __io_init();
    24a2:	be3ff0ef          	jal	ra,2084 <__io_init>
_lcd_backLight():
E:\Works\NSCAM\obj/../LCD/lcd.c:150
        GPIOA_ResetBits(GPIO_Pin_9);
    24a6:	40001737          	lui	a4,0x40001
    24aa:	477c                	lw	a5,76(a4)
_lcd_init():
E:\Works\NSCAM\obj/../LCD/lcd.c:194
	_lcd_reset(p);
    24ac:	8526                	mv	a0,s1
_lcd_backLight():
E:\Works\NSCAM\obj/../LCD/lcd.c:150
        GPIOA_ResetBits(GPIO_Pin_9);
    24ae:	2007e793          	ori	a5,a5,512
    24b2:	c77c                	sw	a5,76(a4)
_lcd_init():
E:\Works\NSCAM\obj/../LCD/lcd.c:194
	_lcd_reset(p);
    24b4:	b47ff0ef          	jal	ra,1ffa <_lcd_reset>
E:\Works\NSCAM\obj/../LCD/lcd.c:197
    uint8_t* cmds = getRegValues();
    24b8:	3bd010ef          	jal	ra,4074 <getRegValues>
    24bc:	842a                	mv	s0,a0
E:\Works\NSCAM\obj/../LCD/lcd.c:198
    while ((cmd = *(cmds++)) > 0) {
    24be:	00044503          	lbu	a0,0(s0)
    24c2:	e919                	bnez	a0,24d8 <_lcd_init+0x44>
E:\Works\NSCAM\obj/../LCD/lcd.c:209
}
    24c4:	4462                	lw	s0,24(sp)
E:\Works\NSCAM\obj/../LCD/lcd.c:208
	_lcd_rotate(p, p->rotate);
    24c6:	0104c583          	lbu	a1,16(s1)
E:\Works\NSCAM\obj/../LCD/lcd.c:209
}
    24ca:	40f2                	lw	ra,28(sp)
    24cc:	4942                	lw	s2,16(sp)
    24ce:	49b2                	lw	s3,12(sp)
E:\Works\NSCAM\obj/../LCD/lcd.c:208
	_lcd_rotate(p, p->rotate);
    24d0:	8526                	mv	a0,s1
E:\Works\NSCAM\obj/../LCD/lcd.c:209
}
    24d2:	44d2                	lw	s1,20(sp)
    24d4:	6105                	addi	sp,sp,32
E:\Works\NSCAM\obj/../LCD/lcd.c:208
	_lcd_rotate(p, p->rotate);
    24d6:	bf39                	j	23f4 <_lcd_rotate>
E:\Works\NSCAM\obj/../LCD/lcd.c:199
        x = *(cmds++);
    24d8:	00144903          	lbu	s2,1(s0)
    24dc:	00240993          	addi	s3,s0,2
E:\Works\NSCAM\obj/../LCD/lcd.c:201
        _lcd_writeCommand(p, cmd);
    24e0:	b65ff0ef          	jal	ra,2044 <_lcd_writeCommand.constprop.5>
E:\Works\NSCAM\obj/../LCD/lcd.c:200
        numArgs = x & 0x7F;
    24e4:	07f97413          	andi	s0,s2,127
E:\Works\NSCAM\obj/../LCD/lcd.c:204
        if (x & 0x80)
    24e8:	0962                	slli	s2,s2,0x18
E:\Works\NSCAM\obj/../LCD/lcd.c:202
        _lcd_writeDatas(p, cmds, numArgs);
    24ea:	8622                	mv	a2,s0
    24ec:	85ce                	mv	a1,s3
    24ee:	8526                	mv	a0,s1
E:\Works\NSCAM\obj/../LCD/lcd.c:204
        if (x & 0x80)
    24f0:	41895913          	srai	s2,s2,0x18
E:\Works\NSCAM\obj/../LCD/lcd.c:202
        _lcd_writeDatas(p, cmds, numArgs);
    24f4:	c43ff0ef          	jal	ra,2136 <_lcd_writeDatas>
E:\Works\NSCAM\obj/../LCD/lcd.c:203
        cmds += numArgs;
    24f8:	944e                	add	s0,s0,s3
E:\Works\NSCAM\obj/../LCD/lcd.c:204
        if (x & 0x80)
    24fa:	fc0952e3          	bgez	s2,24be <_lcd_init+0x2a>
E:\Works\NSCAM\obj/../LCD/lcd.c:205
            mDelaymS(150);
    24fe:	09600513          	li	a0,150
    2502:	a97ff0ef          	jal	ra,1f98 <mDelaymS>
    2506:	bf65                	j	24be <_lcd_init+0x2a>

00002508 <_lcd_clear>:
_lcd_clear():
E:\Works\NSCAM\obj/../LCD/lcd.c:229

void _lcd_clear(pLCD* p) {
	_lcd_setPosition(p, 0, 0, p->width - 1, p->height - 1);
    2508:	00455703          	lhu	a4,4(a0)
    250c:	00255683          	lhu	a3,2(a0)
E:\Works\NSCAM\obj/../LCD/lcd.c:228
void _lcd_clear(pLCD* p) {
    2510:	1141                	addi	sp,sp,-16
E:\Works\NSCAM\obj/../LCD/lcd.c:229
	_lcd_setPosition(p, 0, 0, p->width - 1, p->height - 1);
    2512:	177d                	addi	a4,a4,-1
    2514:	16fd                	addi	a3,a3,-1
    2516:	0742                	slli	a4,a4,0x10
    2518:	06c2                	slli	a3,a3,0x10
    251a:	8341                	srli	a4,a4,0x10
    251c:	82c1                	srli	a3,a3,0x10
    251e:	4601                	li	a2,0
    2520:	4581                	li	a1,0
E:\Works\NSCAM\obj/../LCD/lcd.c:228
void _lcd_clear(pLCD* p) {
    2522:	c606                	sw	ra,12(sp)
    2524:	c422                	sw	s0,8(sp)
    2526:	842a                	mv	s0,a0
E:\Works\NSCAM\obj/../LCD/lcd.c:229
	_lcd_setPosition(p, 0, 0, p->width - 1, p->height - 1);
    2528:	e9bff0ef          	jal	ra,23c2 <_lcd_setPosition>
E:\Works\NSCAM\obj/../LCD/lcd.c:230
	_lcd_writeCommand(p, ILI9341_RAMWR);
    252c:	02c00513          	li	a0,44
    2530:	b15ff0ef          	jal	ra,2044 <_lcd_writeCommand.constprop.5>
E:\Works\NSCAM\obj/../LCD/lcd.c:231
	_lcd_flashData16(p, p->backColor, p->width * p->height);
    2534:	00245603          	lhu	a2,2(s0)
    2538:	00445783          	lhu	a5,4(s0)
    253c:	00c45583          	lhu	a1,12(s0)
    2540:	8522                	mv	a0,s0
    2542:	02f60633          	mul	a2,a2,a5
    2546:	d9fff0ef          	jal	ra,22e4 <_lcd_flashData16>
E:\Works\NSCAM\obj/../LCD/lcd.c:233
	p->ptrX = p->ptrY = 0;
}
    254a:	40b2                	lw	ra,12(sp)
E:\Works\NSCAM\obj/../LCD/lcd.c:232
	p->ptrX = p->ptrY = 0;
    254c:	00041a23          	sh	zero,20(s0)
    2550:	00041923          	sh	zero,18(s0)
E:\Works\NSCAM\obj/../LCD/lcd.c:233
}
    2554:	4422                	lw	s0,8(sp)
    2556:	0141                	addi	sp,sp,16
    2558:	8082                	ret

0000255a <_lcd_pixel>:
_lcd_pixel():
E:\Works\NSCAM\obj/../LCD/lcd.c:239

float _lcd_abs(float v) {
	return v > 0 ? v : -v;
}

void _lcd_pixel(pLCD* p, uint16_t x, uint16_t y) {  
    255a:	1141                	addi	sp,sp,-16
E:\Works\NSCAM\obj/../LCD/lcd.c:240
	_lcd_setPosition(p, x, y, x, y);
    255c:	86ae                	mv	a3,a1
    255e:	8732                	mv	a4,a2
E:\Works\NSCAM\obj/../LCD/lcd.c:239
void _lcd_pixel(pLCD* p, uint16_t x, uint16_t y) {  
    2560:	c606                	sw	ra,12(sp)
    2562:	c422                	sw	s0,8(sp)
    2564:	842a                	mv	s0,a0
E:\Works\NSCAM\obj/../LCD/lcd.c:240
	_lcd_setPosition(p, x, y, x, y);
    2566:	e5dff0ef          	jal	ra,23c2 <_lcd_setPosition>
E:\Works\NSCAM\obj/../LCD/lcd.c:241
	_lcd_writeCommand(p, ILI9341_RAMWR);
    256a:	02c00513          	li	a0,44
    256e:	ad7ff0ef          	jal	ra,2044 <_lcd_writeCommand.constprop.5>
E:\Works\NSCAM\obj/../LCD/lcd.c:242
	_lcd_writeData16(p, p->foreColor);
    2572:	00e45583          	lhu	a1,14(s0)
    2576:	8522                	mv	a0,s0
E:\Works\NSCAM\obj/../LCD/lcd.c:243
}
    2578:	4422                	lw	s0,8(sp)
    257a:	40b2                	lw	ra,12(sp)
    257c:	0141                	addi	sp,sp,16
E:\Works\NSCAM\obj/../LCD/lcd.c:242
	_lcd_writeData16(p, p->foreColor);
    257e:	bf3ff06f          	j	2170 <_lcd_writeData16>

00002582 <_lcd_row>:
_lcd_row():
E:\Works\NSCAM\obj/../LCD/lcd.c:245

void _lcd_row(pLCD* p, uint16_t y, uint16_t* data) {
    2582:	1141                	addi	sp,sp,-16
    2584:	c422                	sw	s0,8(sp)
    2586:	872e                	mv	a4,a1
    2588:	8432                	mv	s0,a2
E:\Works\NSCAM\obj/../LCD/lcd.c:246
    _lcd_setPosition(p, 0, y, LCD_WIDTH, y);
    258a:	14000693          	li	a3,320
    258e:	862e                	mv	a2,a1
    2590:	4581                	li	a1,0
E:\Works\NSCAM\obj/../LCD/lcd.c:245
void _lcd_row(pLCD* p, uint16_t y, uint16_t* data) {
    2592:	c606                	sw	ra,12(sp)
E:\Works\NSCAM\obj/../LCD/lcd.c:246
    _lcd_setPosition(p, 0, y, LCD_WIDTH, y);
    2594:	e2fff0ef          	jal	ra,23c2 <_lcd_setPosition>
E:\Works\NSCAM\obj/../LCD/lcd.c:247
    _lcd_writeCommand(p, ILI9341_RAMWR);
    2598:	02c00513          	li	a0,44
    259c:	aa9ff0ef          	jal	ra,2044 <_lcd_writeCommand.constprop.5>
E:\Works\NSCAM\obj/../LCD/lcd.c:248
    __spi1_blk_trans(data, LCD_WIDTH);
    25a0:	8522                	mv	a0,s0
E:\Works\NSCAM\obj/../LCD/lcd.c:249
}
    25a2:	4422                	lw	s0,8(sp)
    25a4:	40b2                	lw	ra,12(sp)
E:\Works\NSCAM\obj/../LCD/lcd.c:248
    __spi1_blk_trans(data, LCD_WIDTH);
    25a6:	14000593          	li	a1,320
E:\Works\NSCAM\obj/../LCD/lcd.c:249
}
    25aa:	0141                	addi	sp,sp,16
E:\Works\NSCAM\obj/../LCD/lcd.c:248
    __spi1_blk_trans(data, LCD_WIDTH);
    25ac:	c45ff06f          	j	21f0 <__spi1_blk_trans>

000025b0 <_lcd_bitmap>:
_lcd_bitmap():
E:\Works\NSCAM\obj/../LCD/lcd.c:328
		_lcd_line(p, x2, y2, x1, y2);
		_lcd_line(p, x1, y2, x1, y1);
	}
}

void _lcd_bitmap(pLCD* p, uint16_t x, uint16_t y, uint16_t w, uint16_t h, uint16_t* data) {
    25b0:	7179                	addi	sp,sp,-48
    25b2:	ce4e                	sw	s3,28(sp)
    25b4:	ca56                	sw	s5,20(sp)
    25b6:	89ba                	mv	s3,a4
    25b8:	8ab6                	mv	s5,a3
E:\Works\NSCAM\obj/../LCD/lcd.c:329
	_lcd_setPosition(p, x, y, x + w - 1, y + h - 1);
    25ba:	177d                	addi	a4,a4,-1
    25bc:	16fd                	addi	a3,a3,-1
    25be:	9732                	add	a4,a4,a2
    25c0:	96ae                	add	a3,a3,a1
    25c2:	0742                	slli	a4,a4,0x10
    25c4:	06c2                	slli	a3,a3,0x10
    25c6:	8341                	srli	a4,a4,0x10
    25c8:	82c1                	srli	a3,a3,0x10
E:\Works\NSCAM\obj/../LCD/lcd.c:328
void _lcd_bitmap(pLCD* p, uint16_t x, uint16_t y, uint16_t w, uint16_t h, uint16_t* data) {
    25ca:	d606                	sw	ra,44(sp)
    25cc:	d422                	sw	s0,40(sp)
    25ce:	d226                	sw	s1,36(sp)
    25d0:	c85a                	sw	s6,16(sp)
    25d2:	c65e                	sw	s7,12(sp)
    25d4:	8b2a                	mv	s6,a0
    25d6:	84be                	mv	s1,a5
    25d8:	d04a                	sw	s2,32(sp)
    25da:	cc52                	sw	s4,24(sp)
E:\Works\NSCAM\obj/../LCD/lcd.c:329
	_lcd_setPosition(p, x, y, x + w - 1, y + h - 1);
    25dc:	de7ff0ef          	jal	ra,23c2 <_lcd_setPosition>
E:\Works\NSCAM\obj/../LCD/lcd.c:330
	_lcd_writeCommand(p, ILI9341_RAMWR);
    25e0:	02c00513          	li	a0,44
    25e4:	a61ff0ef          	jal	ra,2044 <_lcd_writeCommand.constprop.5>
E:\Works\NSCAM\obj/../LCD/lcd.c:332
	uint32_t c = 0;
	for (uint16_t i = 0; i < w; i++) {
    25e8:	00199b93          	slli	s7,s3,0x1
    25ec:	4401                	li	s0,0
E:\Works\NSCAM\obj/../LCD/lcd.c:332 (discriminator 1)
    25ee:	03541e63          	bne	s0,s5,262a <_lcd_bitmap+0x7a>
E:\Works\NSCAM\obj/../LCD/lcd.c:338
		for (uint16_t j = 0; j < h; j++) {
			_lcd_writeData16(p, data[c]);
			c += 1;
		}
	}
}
    25f2:	50b2                	lw	ra,44(sp)
    25f4:	5422                	lw	s0,40(sp)
    25f6:	5492                	lw	s1,36(sp)
    25f8:	5902                	lw	s2,32(sp)
    25fa:	49f2                	lw	s3,28(sp)
    25fc:	4a62                	lw	s4,24(sp)
    25fe:	4ad2                	lw	s5,20(sp)
    2600:	4b42                	lw	s6,16(sp)
    2602:	4bb2                	lw	s7,12(sp)
    2604:	6145                	addi	sp,sp,48
    2606:	8082                	ret
E:\Works\NSCAM\obj/../LCD/lcd.c:334 (discriminator 3)
			_lcd_writeData16(p, data[c]);
    2608:	000a5583          	lhu	a1,0(s4) # 10000 <_data_lma+0x722c>
E:\Works\NSCAM\obj/../LCD/lcd.c:333 (discriminator 3)
		for (uint16_t j = 0; j < h; j++) {
    260c:	0905                	addi	s2,s2,1
E:\Works\NSCAM\obj/../LCD/lcd.c:334 (discriminator 3)
			_lcd_writeData16(p, data[c]);
    260e:	855a                	mv	a0,s6
E:\Works\NSCAM\obj/../LCD/lcd.c:333 (discriminator 3)
		for (uint16_t j = 0; j < h; j++) {
    2610:	0942                	slli	s2,s2,0x10
E:\Works\NSCAM\obj/../LCD/lcd.c:334 (discriminator 3)
			_lcd_writeData16(p, data[c]);
    2612:	b5fff0ef          	jal	ra,2170 <_lcd_writeData16>
E:\Works\NSCAM\obj/../LCD/lcd.c:333 (discriminator 3)
		for (uint16_t j = 0; j < h; j++) {
    2616:	01095913          	srli	s2,s2,0x10
    261a:	0a09                	addi	s4,s4,2
E:\Works\NSCAM\obj/../LCD/lcd.c:333 (discriminator 1)
    261c:	ff3916e3          	bne	s2,s3,2608 <_lcd_bitmap+0x58>
E:\Works\NSCAM\obj/../LCD/lcd.c:332 (discriminator 2)
	for (uint16_t i = 0; i < w; i++) {
    2620:	0405                	addi	s0,s0,1
    2622:	0442                	slli	s0,s0,0x10
    2624:	8041                	srli	s0,s0,0x10
    2626:	94de                	add	s1,s1,s7
    2628:	b7d9                	j	25ee <_lcd_bitmap+0x3e>
    262a:	8a26                	mv	s4,s1
E:\Works\NSCAM\obj/../LCD/lcd.c:333
		for (uint16_t j = 0; j < h; j++) {
    262c:	4901                	li	s2,0
    262e:	b7fd                	j	261c <_lcd_bitmap+0x6c>

00002630 <_lcd_bitmapf>:
_lcd_bitmapf():
E:\Works\NSCAM\obj/../LCD/lcd.c:340

void _lcd_bitmapf(pLCD* p, uint16_t x1, uint16_t y1, uint16_t x2, uint16_t y2, uint16_t* data) {
    2630:	7179                	addi	sp,sp,-48
    2632:	d606                	sw	ra,44(sp)
    2634:	d422                	sw	s0,40(sp)
    2636:	d226                	sw	s1,36(sp)
    2638:	d04a                	sw	s2,32(sp)
    263a:	ce4e                	sw	s3,28(sp)
    263c:	8932                	mv	s2,a2
    263e:	89ae                	mv	s3,a1
    2640:	84b6                	mv	s1,a3
    2642:	c63e                	sw	a5,12(sp)
    2644:	843a                	mv	s0,a4
E:\Works\NSCAM\obj/../LCD/lcd.c:341
    _lcd_setPosition(p, x1, y1, x2, y2);
    2646:	d7dff0ef          	jal	ra,23c2 <_lcd_setPosition>
E:\Works\NSCAM\obj/../LCD/lcd.c:342
    _lcd_writeCommand(p, ILI9341_RAMWR);
    264a:	02c00513          	li	a0,44
    264e:	9f7ff0ef          	jal	ra,2044 <_lcd_writeCommand.constprop.5>
E:\Works\NSCAM\obj/../LCD/lcd.c:343
    __spi1_blk_trans(data, (x2 - x1 + 1) * (y2 - y1 + 1));
    2652:	413485b3          	sub	a1,s1,s3
    2656:	41240433          	sub	s0,s0,s2
    265a:	0405                	addi	s0,s0,1
    265c:	0585                	addi	a1,a1,1
    265e:	028585b3          	mul	a1,a1,s0
    2662:	47b2                	lw	a5,12(sp)
E:\Works\NSCAM\obj/../LCD/lcd.c:344
}
    2664:	5422                	lw	s0,40(sp)
    2666:	50b2                	lw	ra,44(sp)
    2668:	5492                	lw	s1,36(sp)
    266a:	5902                	lw	s2,32(sp)
    266c:	49f2                	lw	s3,28(sp)
E:\Works\NSCAM\obj/../LCD/lcd.c:343
    __spi1_blk_trans(data, (x2 - x1 + 1) * (y2 - y1 + 1));
    266e:	853e                	mv	a0,a5
E:\Works\NSCAM\obj/../LCD/lcd.c:344
}
    2670:	6145                	addi	sp,sp,48
E:\Works\NSCAM\obj/../LCD/lcd.c:343
    __spi1_blk_trans(data, (x2 - x1 + 1) * (y2 - y1 + 1));
    2672:	b7fff06f          	j	21f0 <__spi1_blk_trans>

00002676 <_lcd_bitmapc>:
_lcd_bitmapc():
E:\Works\NSCAM\obj/../LCD/lcd.c:346

void _lcd_bitmapc(pLCD* p, uint16_t x, uint16_t y, uint16_t w, uint16_t h, uint16_t* data) {
    2676:	7179                	addi	sp,sp,-48
E:\Works\NSCAM\obj/../LCD/lcd.c:347
	_lcd_setPosition(p, x - w / 2, y - h / 2, x + w / 2 - 1, y + h / 2 - 1);
    2678:	00175813          	srli	a6,a4,0x1
E:\Works\NSCAM\obj/../LCD/lcd.c:346
void _lcd_bitmapc(pLCD* p, uint16_t x, uint16_t y, uint16_t w, uint16_t h, uint16_t* data) {
    267c:	d226                	sw	s1,36(sp)
    267e:	ce4e                	sw	s3,28(sp)
    2680:	ca56                	sw	s5,20(sp)
    2682:	89b6                	mv	s3,a3
    2684:	8aba                	mv	s5,a4
    2686:	84be                	mv	s1,a5
E:\Works\NSCAM\obj/../LCD/lcd.c:347
	_lcd_setPosition(p, x - w / 2, y - h / 2, x + w / 2 - 1, y + h / 2 - 1);
    2688:	fff60713          	addi	a4,a2,-1
    268c:	0016d793          	srli	a5,a3,0x1
    2690:	fff58693          	addi	a3,a1,-1
    2694:	9742                	add	a4,a4,a6
    2696:	96be                	add	a3,a3,a5
    2698:	41060633          	sub	a2,a2,a6
    269c:	8d9d                	sub	a1,a1,a5
    269e:	0742                	slli	a4,a4,0x10
    26a0:	06c2                	slli	a3,a3,0x10
    26a2:	0642                	slli	a2,a2,0x10
    26a4:	05c2                	slli	a1,a1,0x10
    26a6:	8341                	srli	a4,a4,0x10
    26a8:	82c1                	srli	a3,a3,0x10
    26aa:	8241                	srli	a2,a2,0x10
    26ac:	81c1                	srli	a1,a1,0x10
E:\Works\NSCAM\obj/../LCD/lcd.c:346
void _lcd_bitmapc(pLCD* p, uint16_t x, uint16_t y, uint16_t w, uint16_t h, uint16_t* data) {
    26ae:	d606                	sw	ra,44(sp)
    26b0:	d422                	sw	s0,40(sp)
    26b2:	cc52                	sw	s4,24(sp)
    26b4:	c65e                	sw	s7,12(sp)
    26b6:	8a2a                	mv	s4,a0
    26b8:	d04a                	sw	s2,32(sp)
    26ba:	c85a                	sw	s6,16(sp)
E:\Works\NSCAM\obj/../LCD/lcd.c:347
	_lcd_setPosition(p, x - w / 2, y - h / 2, x + w / 2 - 1, y + h / 2 - 1);
    26bc:	d07ff0ef          	jal	ra,23c2 <_lcd_setPosition>
E:\Works\NSCAM\obj/../LCD/lcd.c:348
	_lcd_writeCommand(p, ILI9341_RAMWR);
    26c0:	02c00513          	li	a0,44
    26c4:	981ff0ef          	jal	ra,2044 <_lcd_writeCommand.constprop.5>
E:\Works\NSCAM\obj/../LCD/lcd.c:350
	uint32_t c = 0;
	for (uint16_t i = 0; i < w; i++) {
    26c8:	001a9b93          	slli	s7,s5,0x1
    26cc:	4401                	li	s0,0
E:\Works\NSCAM\obj/../LCD/lcd.c:350 (discriminator 1)
    26ce:	03341e63          	bne	s0,s3,270a <_lcd_bitmapc+0x94>
E:\Works\NSCAM\obj/../LCD/lcd.c:356
		for (uint16_t j = 0; j < h; j++) {
			_lcd_writeData16(p, data[c]);
			c += 1;
		}
	}
}
    26d2:	50b2                	lw	ra,44(sp)
    26d4:	5422                	lw	s0,40(sp)
    26d6:	5492                	lw	s1,36(sp)
    26d8:	5902                	lw	s2,32(sp)
    26da:	49f2                	lw	s3,28(sp)
    26dc:	4a62                	lw	s4,24(sp)
    26de:	4ad2                	lw	s5,20(sp)
    26e0:	4b42                	lw	s6,16(sp)
    26e2:	4bb2                	lw	s7,12(sp)
    26e4:	6145                	addi	sp,sp,48
    26e6:	8082                	ret
E:\Works\NSCAM\obj/../LCD/lcd.c:352 (discriminator 3)
			_lcd_writeData16(p, data[c]);
    26e8:	000b5583          	lhu	a1,0(s6)
E:\Works\NSCAM\obj/../LCD/lcd.c:351 (discriminator 3)
		for (uint16_t j = 0; j < h; j++) {
    26ec:	0905                	addi	s2,s2,1
E:\Works\NSCAM\obj/../LCD/lcd.c:352 (discriminator 3)
			_lcd_writeData16(p, data[c]);
    26ee:	8552                	mv	a0,s4
E:\Works\NSCAM\obj/../LCD/lcd.c:351 (discriminator 3)
		for (uint16_t j = 0; j < h; j++) {
    26f0:	0942                	slli	s2,s2,0x10
E:\Works\NSCAM\obj/../LCD/lcd.c:352 (discriminator 3)
			_lcd_writeData16(p, data[c]);
    26f2:	a7fff0ef          	jal	ra,2170 <_lcd_writeData16>
E:\Works\NSCAM\obj/../LCD/lcd.c:351 (discriminator 3)
		for (uint16_t j = 0; j < h; j++) {
    26f6:	01095913          	srli	s2,s2,0x10
    26fa:	0b09                	addi	s6,s6,2
E:\Works\NSCAM\obj/../LCD/lcd.c:351 (discriminator 1)
    26fc:	ff5916e3          	bne	s2,s5,26e8 <_lcd_bitmapc+0x72>
E:\Works\NSCAM\obj/../LCD/lcd.c:350 (discriminator 2)
	for (uint16_t i = 0; i < w; i++) {
    2700:	0405                	addi	s0,s0,1
    2702:	0442                	slli	s0,s0,0x10
    2704:	8041                	srli	s0,s0,0x10
    2706:	94de                	add	s1,s1,s7
    2708:	b7d9                	j	26ce <_lcd_bitmapc+0x58>
    270a:	8b26                	mv	s6,s1
E:\Works\NSCAM\obj/../LCD/lcd.c:351
		for (uint16_t j = 0; j < h; j++) {
    270c:	4901                	li	s2,0
    270e:	b7fd                	j	26fc <_lcd_bitmapc+0x86>

00002710 <_lcd_bitmaps>:
_lcd_bitmaps():
E:\Works\NSCAM\obj/../LCD/lcd.c:382
			c += 1;
		}
	}
}

void _lcd_bitmaps(pLCD* p, uint16_t x, uint16_t y, uint16_t w, uint16_t h, const unsigned char* data) {
    2710:	715d                	addi	sp,sp,-80
    2712:	c4a2                	sw	s0,72(sp)
    2714:	00760413          	addi	s0,a2,7
    2718:	0442                	slli	s0,s0,0x10
    271a:	c0ca                	sw	s2,64(sp)
    271c:	dc52                	sw	s4,56(sp)
    271e:	da56                	sw	s5,52(sp)
    2720:	d85a                	sw	s6,48(sp)
    2722:	d462                	sw	s8,40(sp)
    2724:	d266                	sw	s9,36(sp)
    2726:	d06a                	sw	s10,32(sp)
    2728:	ce6e                	sw	s11,28(sp)
    272a:	c686                	sw	ra,76(sp)
    272c:	c2a6                	sw	s1,68(sp)
    272e:	de4e                	sw	s3,60(sp)
    2730:	d65e                	sw	s7,44(sp)
    2732:	8aaa                	mv	s5,a0
    2734:	8cae                	mv	s9,a1
    2736:	8c32                	mv	s8,a2
    2738:	8db6                	mv	s11,a3
    273a:	883a                	mv	a6,a4
    273c:	8041                	srli	s0,s0,0x10
E:\Works\NSCAM\obj/../LCD/lcd.c:384
	uint32_t c = 0;
	for (uint16_t m = 0; m < h; m += 8) {
    273e:	8932                	mv	s2,a2
E:\Works\NSCAM\obj/../LCD/lcd.c:383
	uint32_t c = 0;
    2740:	4a01                	li	s4,0
    2742:	00878d13          	addi	s10,a5,8 # 40001008 <sensor_lcd_map+0x1ffe0608>
E:\Works\NSCAM\obj/../LCD/lcd.c:387
		for (uint16_t n = 0; n < w; n += 8) {
			for (uint8_t i = 0; i < 8; i++) {
				for (uint8_t j = 0; j < 8; j++)
    2746:	48a1                	li	a7,8
E:\Works\NSCAM\obj/../LCD/lcd.c:384 (discriminator 1)
	for (uint16_t m = 0; m < h; m += 8) {
    2748:	41890733          	sub	a4,s2,s8
    274c:	0742                	slli	a4,a4,0x10
    274e:	8341                	srli	a4,a4,0x10
    2750:	0b077263          	bgeu	a4,a6,27f4 <_lcd_bitmaps+0xe4>
    2754:	014d0bb3          	add	s7,s10,s4
E:\Works\NSCAM\obj/../LCD/lcd.c:384
    2758:	84e6                	mv	s1,s9
    275a:	89d2                	mv	s3,s4
    275c:	a885                	j	27cc <_lcd_bitmaps+0xbc>
E:\Works\NSCAM\obj/../LCD/lcd.c:388
					if (data[c] & (1 << j))
    275e:	0006c703          	lbu	a4,0(a3) # 40001000 <sensor_lcd_map+0x1ffe0600>
    2762:	40c75733          	sra	a4,a4,a2
    2766:	8b05                	andi	a4,a4,1
    2768:	c305                	beqz	a4,2788 <_lcd_bitmaps+0x78>
E:\Works\NSCAM\obj/../LCD/lcd.c:389
						_buf[i + j * 8] = p->foreColor;
    276a:	00ead703          	lhu	a4,14(s5)
E:\Works\NSCAM\obj/../LCD/lcd.c:391
					else 
						_buf[i + j * 8] = p->backColor;
    276e:	00e59023          	sh	a4,0(a1)
    2772:	0605                	addi	a2,a2,1
    2774:	05c1                	addi	a1,a1,16
E:\Works\NSCAM\obj/../LCD/lcd.c:387
				for (uint8_t j = 0; j < 8; j++)
    2776:	ff1614e3          	bne	a2,a7,275e <_lcd_bitmaps+0x4e>
E:\Works\NSCAM\obj/../LCD/lcd.c:392 (discriminator 2)
				c++;
    277a:	0685                	addi	a3,a3,1
    277c:	0509                	addi	a0,a0,2
E:\Works\NSCAM\obj/../LCD/lcd.c:386 (discriminator 2)
			for (uint8_t i = 0; i < 8; i++) {
    277e:	01768863          	beq	a3,s7,278e <_lcd_bitmaps+0x7e>
E:\Works\NSCAM\obj/../LCD/lcd.c:382
void _lcd_bitmaps(pLCD* p, uint16_t x, uint16_t y, uint16_t w, uint16_t h, const unsigned char* data) {
    2782:	85aa                	mv	a1,a0
    2784:	4601                	li	a2,0
    2786:	bfe1                	j	275e <_lcd_bitmaps+0x4e>
E:\Works\NSCAM\obj/../LCD/lcd.c:391
						_buf[i + j * 8] = p->backColor;
    2788:	00cad703          	lhu	a4,12(s5)
    278c:	b7cd                	j	276e <_lcd_bitmaps+0x5e>
E:\Works\NSCAM\obj/../LCD/lcd.c:394 (discriminator 2)
			}
			_lcd_setPosition(p, x + n, y + m, x + n + 7, y + m + 7);
    278e:	00748693          	addi	a3,s1,7
    2792:	06c2                	slli	a3,a3,0x10
    2794:	85a6                	mv	a1,s1
    2796:	8722                	mv	a4,s0
    2798:	82c1                	srli	a3,a3,0x10
    279a:	864a                	mv	a2,s2
    279c:	8556                	mv	a0,s5
    279e:	c63e                	sw	a5,12(sp)
    27a0:	c442                	sw	a6,8(sp)
    27a2:	c21ff0ef          	jal	ra,23c2 <_lcd_setPosition>
E:\Works\NSCAM\obj/../LCD/lcd.c:395 (discriminator 2)
			_lcd_writeCommand(p, ILI9341_RAMWR);
    27a6:	02c00513          	li	a0,44
    27aa:	89bff0ef          	jal	ra,2044 <_lcd_writeCommand.constprop.5>
E:\Works\NSCAM\obj/../LCD/lcd.c:396 (discriminator 2)
			_lcd_writeData16s(p, _buf, 64);
    27ae:	04000613          	li	a2,64
    27b2:	ce818593          	addi	a1,gp,-792 # 20000548 <_buf>
    27b6:	8556                	mv	a0,s5
    27b8:	9f9ff0ef          	jal	ra,21b0 <_lcd_writeData16s>
    27bc:	04a1                	addi	s1,s1,8
    27be:	47b2                	lw	a5,12(sp)
    27c0:	4822                	lw	a6,8(sp)
    27c2:	04c2                	slli	s1,s1,0x10
    27c4:	09a1                	addi	s3,s3,8
    27c6:	80c1                	srli	s1,s1,0x10
    27c8:	0ba1                	addi	s7,s7,8
    27ca:	48a1                	li	a7,8
E:\Works\NSCAM\obj/../LCD/lcd.c:385 (discriminator 1)
		for (uint16_t n = 0; n < w; n += 8) {
    27cc:	41498733          	sub	a4,s3,s4
    27d0:	0742                	slli	a4,a4,0x10
    27d2:	8341                	srli	a4,a4,0x10
    27d4:	01b77763          	bgeu	a4,s11,27e2 <_lcd_bitmaps+0xd2>
    27d8:	ce818513          	addi	a0,gp,-792 # 20000548 <_buf>
    27dc:	013786b3          	add	a3,a5,s3
    27e0:	b74d                	j	2782 <_lcd_bitmaps+0x72>
    27e2:	0921                	addi	s2,s2,8
    27e4:	0421                	addi	s0,s0,8
    27e6:	0942                	slli	s2,s2,0x10
    27e8:	0442                	slli	s0,s0,0x10
    27ea:	01095913          	srli	s2,s2,0x10
    27ee:	8041                	srli	s0,s0,0x10
E:\Works\NSCAM\obj/../LCD/lcd.c:385 (discriminator 2)
    27f0:	8a4e                	mv	s4,s3
    27f2:	bf99                	j	2748 <_lcd_bitmaps+0x38>
E:\Works\NSCAM\obj/../LCD/lcd.c:399
		}
	}
}
    27f4:	40b6                	lw	ra,76(sp)
    27f6:	4426                	lw	s0,72(sp)
    27f8:	4496                	lw	s1,68(sp)
    27fa:	4906                	lw	s2,64(sp)
    27fc:	59f2                	lw	s3,60(sp)
    27fe:	5a62                	lw	s4,56(sp)
    2800:	5ad2                	lw	s5,52(sp)
    2802:	5b42                	lw	s6,48(sp)
    2804:	5bb2                	lw	s7,44(sp)
    2806:	5c22                	lw	s8,40(sp)
    2808:	5c92                	lw	s9,36(sp)
    280a:	5d02                	lw	s10,32(sp)
    280c:	4df2                	lw	s11,28(sp)
    280e:	6161                	addi	sp,sp,80
    2810:	8082                	ret

00002812 <_lcd_bitmapsc>:
_lcd_bitmapsc():
E:\Works\NSCAM\obj/../LCD/lcd.c:402

void _lcd_bitmapsc(pLCD* p, uint16_t x, uint16_t y, uint16_t w, uint16_t h, const unsigned char* data) {
	_lcd_bitmaps(p, x - w / 2, y - h / 2, w, h, data);
    2812:	00175813          	srli	a6,a4,0x1
    2816:	41060633          	sub	a2,a2,a6
    281a:	0016d813          	srli	a6,a3,0x1
    281e:	410585b3          	sub	a1,a1,a6
    2822:	0642                	slli	a2,a2,0x10
    2824:	05c2                	slli	a1,a1,0x10
    2826:	8241                	srli	a2,a2,0x10
    2828:	81c1                	srli	a1,a1,0x10
    282a:	ee7ff06f          	j	2710 <_lcd_bitmaps>

0000282e <_lcd_draw>:
_lcd_draw():
E:\Works\NSCAM\obj/../LCD/lcd.c:405
}

void _lcd_draw(pLCD* p, uint16_t x, uint16_t y, char character) {
    282e:	7139                	addi	sp,sp,-64
    2830:	da26                	sw	s1,52(sp)
E:\Works\NSCAM\obj/../LCD/lcd.c:406
	char c = character - ' ';
    2832:	fe068493          	addi	s1,a3,-32
E:\Works\NSCAM\obj/../LCD/lcd.c:407
	if (p->Font == Big) {
    2836:	4514                	lw	a3,8(a0)
E:\Works\NSCAM\obj/../LCD/lcd.c:405
void _lcd_draw(pLCD* p, uint16_t x, uint16_t y, char character) {
    2838:	dc22                	sw	s0,56(sp)
    283a:	d84a                	sw	s2,48(sp)
    283c:	d64e                	sw	s3,44(sp)
E:\Works\NSCAM\obj/../LCD/lcd.c:406
	char c = character - ' ';
    283e:	04e2                	slli	s1,s1,0x18
E:\Works\NSCAM\obj/../LCD/lcd.c:405
void _lcd_draw(pLCD* p, uint16_t x, uint16_t y, char character) {
    2840:	de06                	sw	ra,60(sp)
    2842:	d452                	sw	s4,40(sp)
    2844:	d256                	sw	s5,36(sp)
    2846:	d05a                	sw	s6,32(sp)
    2848:	ce5e                	sw	s7,28(sp)
    284a:	cc62                	sw	s8,24(sp)
    284c:	ca66                	sw	s9,20(sp)
E:\Works\NSCAM\obj/../LCD/lcd.c:407
	if (p->Font == Big) {
    284e:	4709                	li	a4,2
E:\Works\NSCAM\obj/../LCD/lcd.c:405
void _lcd_draw(pLCD* p, uint16_t x, uint16_t y, char character) {
    2850:	842a                	mv	s0,a0
E:\Works\NSCAM\obj/../LCD/lcd.c:406
	char c = character - ' ';
    2852:	84e1                	srai	s1,s1,0x18
E:\Works\NSCAM\obj/../LCD/lcd.c:407
	if (p->Font == Big) {
    2854:	00255783          	lhu	a5,2(a0)
    2858:	ce818913          	addi	s2,gp,-792 # 20000548 <_buf>
    285c:	0ee69363          	bne	a3,a4,2942 <_lcd_draw+0x114>
E:\Works\NSCAM\obj/../LCD/lcd.c:408
		if (x >= p->width) { x = 0; y = y + 16; }
    2860:	00f5e663          	bltu	a1,a5,286c <_lcd_draw+0x3e>
E:\Works\NSCAM\obj/../LCD/lcd.c:408 (discriminator 1)
    2864:	0641                	addi	a2,a2,16
    2866:	0642                	slli	a2,a2,0x10
    2868:	8241                	srli	a2,a2,0x10
    286a:	4581                	li	a1,0
E:\Works\NSCAM\obj/../LCD/lcd.c:411
		for (uint8_t i = 0; i < 8; i++) {
			for (uint8_t j = 0; j < 8; j++) {
				if (getFont(1)[c * 16 + i] & (1 << j))
    286c:	0492                	slli	s1,s1,0x4
    286e:	ce818b93          	addi	s7,gp,-792 # 20000548 <_buf>
    2872:	4b01                	li	s6,0
E:\Works\NSCAM\obj/../LCD/lcd.c:410
			for (uint8_t j = 0; j < 8; j++) {
    2874:	4ca1                	li	s9,8
    2876:	009b0c33          	add	s8,s6,s1
E:\Works\NSCAM\obj/../LCD/lcd.c:408
		if (x >= p->width) { x = 0; y = y + 16; }
    287a:	8ade                	mv	s5,s7
    287c:	4a01                	li	s4,0
E:\Works\NSCAM\obj/../LCD/lcd.c:411
				if (getFont(1)[c * 16 + i] & (1 << j))
    287e:	4505                	li	a0,1
    2880:	c632                	sw	a2,12(sp)
    2882:	c42e                	sw	a1,8(sp)
    2884:	f5cff0ef          	jal	ra,1fe0 <getFont>
    2888:	9562                	add	a0,a0,s8
    288a:	00054783          	lbu	a5,0(a0)
    288e:	45a2                	lw	a1,8(sp)
    2890:	4632                	lw	a2,12(sp)
    2892:	4147d7b3          	sra	a5,a5,s4
    2896:	8b85                	andi	a5,a5,1
    2898:	cfd9                	beqz	a5,2936 <_lcd_draw+0x108>
E:\Works\NSCAM\obj/../LCD/lcd.c:412
					_buf[i + j * 8] = p->foreColor;
    289a:	00e45783          	lhu	a5,14(s0)
E:\Works\NSCAM\obj/../LCD/lcd.c:414
				else 
					_buf[i + j * 8] = p->backColor;
    289e:	00fa9023          	sh	a5,0(s5)
    28a2:	0a05                	addi	s4,s4,1
    28a4:	0ac1                	addi	s5,s5,16
E:\Works\NSCAM\obj/../LCD/lcd.c:410
			for (uint8_t j = 0; j < 8; j++) {
    28a6:	fd9a1ce3          	bne	s4,s9,287e <_lcd_draw+0x50>
    28aa:	0b05                	addi	s6,s6,1
    28ac:	0b89                	addi	s7,s7,2
E:\Works\NSCAM\obj/../LCD/lcd.c:409 (discriminator 2)
		for (uint8_t i = 0; i < 8; i++) {
    28ae:	fd4b14e3          	bne	s6,s4,2876 <_lcd_draw+0x48>
    28b2:	00848b13          	addi	s6,s1,8
E:\Works\NSCAM\obj/../LCD/lcd.c:418
			}
		}
		for (uint8_t i = 0; i < 8; i++) {
			for (uint8_t j = 0; j < 8; j++) {
    28b6:	4ba1                	li	s7,8
    28b8:	04c1                	addi	s1,s1,16
E:\Works\NSCAM\obj/../LCD/lcd.c:411
				if (getFont(1)[c * 16 + i] & (1 << j))
    28ba:	8aca                	mv	s5,s2
    28bc:	4a01                	li	s4,0
E:\Works\NSCAM\obj/../LCD/lcd.c:419
				if (getFont(1)[c * 16 + i + 8] & (1 << j))
    28be:	4505                	li	a0,1
    28c0:	c632                	sw	a2,12(sp)
    28c2:	c42e                	sw	a1,8(sp)
    28c4:	f1cff0ef          	jal	ra,1fe0 <getFont>
    28c8:	955a                	add	a0,a0,s6
    28ca:	00054783          	lbu	a5,0(a0)
    28ce:	45a2                	lw	a1,8(sp)
    28d0:	4632                	lw	a2,12(sp)
    28d2:	4147d7b3          	sra	a5,a5,s4
    28d6:	8b85                	andi	a5,a5,1
    28d8:	c3b5                	beqz	a5,293c <_lcd_draw+0x10e>
E:\Works\NSCAM\obj/../LCD/lcd.c:420
					_buf[i + j * 8 + 64] = p->foreColor;
    28da:	00e45783          	lhu	a5,14(s0)
E:\Works\NSCAM\obj/../LCD/lcd.c:422
				else 
					_buf[i + j * 8 + 64] = p->backColor;
    28de:	08fa9023          	sh	a5,128(s5)
    28e2:	0a05                	addi	s4,s4,1
    28e4:	0ac1                	addi	s5,s5,16
E:\Works\NSCAM\obj/../LCD/lcd.c:418
			for (uint8_t j = 0; j < 8; j++) {
    28e6:	fd7a1ce3          	bne	s4,s7,28be <_lcd_draw+0x90>
    28ea:	0b05                	addi	s6,s6,1
    28ec:	0909                	addi	s2,s2,2
E:\Works\NSCAM\obj/../LCD/lcd.c:417 (discriminator 2)
		for (uint8_t i = 0; i < 8; i++) {
    28ee:	fd6496e3          	bne	s1,s6,28ba <_lcd_draw+0x8c>
E:\Works\NSCAM\obj/../LCD/lcd.c:425
			}
		}
		_lcd_setPosition(p, x, y, x + 7, y + 15);
    28f2:	00f60713          	addi	a4,a2,15
    28f6:	00758693          	addi	a3,a1,7
    28fa:	0742                	slli	a4,a4,0x10
    28fc:	06c2                	slli	a3,a3,0x10
    28fe:	8341                	srli	a4,a4,0x10
    2900:	82c1                	srli	a3,a3,0x10
    2902:	8522                	mv	a0,s0
    2904:	abfff0ef          	jal	ra,23c2 <_lcd_setPosition>
E:\Works\NSCAM\obj/../LCD/lcd.c:426
		_lcd_writeCommand(p, ILI9341_RAMWR);
    2908:	02c00513          	li	a0,44
    290c:	f38ff0ef          	jal	ra,2044 <_lcd_writeCommand.constprop.5>
E:\Works\NSCAM\obj/../LCD/lcd.c:427
		_lcd_writeData16s(p, _buf, 128);
    2910:	08000613          	li	a2,128
E:\Works\NSCAM\obj/../LCD/lcd.c:440
					_buf[i + j * 6] = p->backColor;
			}
		}
		_lcd_setPosition(p, x, y, x + 5, y + 7);
		_lcd_writeCommand(p, ILI9341_RAMWR);
		_lcd_writeData16s(p, _buf, 48);
    2914:	8522                	mv	a0,s0
E:\Works\NSCAM\obj/../LCD/lcd.c:442
	}
}
    2916:	5462                	lw	s0,56(sp)
    2918:	50f2                	lw	ra,60(sp)
    291a:	54d2                	lw	s1,52(sp)
    291c:	5942                	lw	s2,48(sp)
    291e:	5a22                	lw	s4,40(sp)
    2920:	5a92                	lw	s5,36(sp)
    2922:	5b02                	lw	s6,32(sp)
    2924:	4bf2                	lw	s7,28(sp)
    2926:	4c62                	lw	s8,24(sp)
    2928:	4cd2                	lw	s9,20(sp)
E:\Works\NSCAM\obj/../LCD/lcd.c:440
		_lcd_writeData16s(p, _buf, 48);
    292a:	ce818593          	addi	a1,gp,-792 # 20000548 <_buf>
E:\Works\NSCAM\obj/../LCD/lcd.c:442
}
    292e:	59b2                	lw	s3,44(sp)
    2930:	6121                	addi	sp,sp,64
E:\Works\NSCAM\obj/../LCD/lcd.c:440
		_lcd_writeData16s(p, _buf, 48);
    2932:	87fff06f          	j	21b0 <_lcd_writeData16s>
E:\Works\NSCAM\obj/../LCD/lcd.c:414
					_buf[i + j * 8] = p->backColor;
    2936:	00c45783          	lhu	a5,12(s0)
    293a:	b795                	j	289e <_lcd_draw+0x70>
E:\Works\NSCAM\obj/../LCD/lcd.c:422
					_buf[i + j * 8 + 64] = p->backColor;
    293c:	00c45783          	lhu	a5,12(s0)
    2940:	bf79                	j	28de <_lcd_draw+0xb0>
E:\Works\NSCAM\obj/../LCD/lcd.c:429
		if (x >= p->width) { x = 0; y = y + 8; }
    2942:	00f5e663          	bltu	a1,a5,294e <_lcd_draw+0x120>
E:\Works\NSCAM\obj/../LCD/lcd.c:429 (discriminator 1)
    2946:	0621                	addi	a2,a2,8
    2948:	0642                	slli	a2,a2,0x10
    294a:	8241                	srli	a2,a2,0x10
    294c:	4581                	li	a1,0
E:\Works\NSCAM\obj/../LCD/lcd.c:432
				if (getFont(0)[c *6 + i] & (1 << j))
    294e:	4699                	li	a3,6
    2950:	02d484b3          	mul	s1,s1,a3
    2954:	4b01                	li	s6,0
E:\Works\NSCAM\obj/../LCD/lcd.c:431
			for (uint8_t j = 0; j < 8; j++) {
    2956:	4c21                	li	s8,8
E:\Works\NSCAM\obj/../LCD/lcd.c:430
		for (uint8_t i = 0; i < 6; i++) {
    2958:	4c99                	li	s9,6
    295a:	01648bb3          	add	s7,s1,s6
E:\Works\NSCAM\obj/../LCD/lcd.c:429
		if (x >= p->width) { x = 0; y = y + 8; }
    295e:	8aca                	mv	s5,s2
    2960:	4a01                	li	s4,0
E:\Works\NSCAM\obj/../LCD/lcd.c:432
				if (getFont(0)[c *6 + i] & (1 << j))
    2962:	4501                	li	a0,0
    2964:	c632                	sw	a2,12(sp)
    2966:	c42e                	sw	a1,8(sp)
    2968:	e78ff0ef          	jal	ra,1fe0 <getFont>
    296c:	955e                	add	a0,a0,s7
    296e:	00054783          	lbu	a5,0(a0)
    2972:	45a2                	lw	a1,8(sp)
    2974:	4632                	lw	a2,12(sp)
    2976:	4147d7b3          	sra	a5,a5,s4
    297a:	8b85                	andi	a5,a5,1
    297c:	cf9d                	beqz	a5,29ba <_lcd_draw+0x18c>
E:\Works\NSCAM\obj/../LCD/lcd.c:433
					_buf[i + j * 6] = p->foreColor;
    297e:	00e45783          	lhu	a5,14(s0)
E:\Works\NSCAM\obj/../LCD/lcd.c:435
					_buf[i + j * 6] = p->backColor;
    2982:	00fa9023          	sh	a5,0(s5)
    2986:	0a05                	addi	s4,s4,1
    2988:	0ab1                	addi	s5,s5,12
E:\Works\NSCAM\obj/../LCD/lcd.c:431
			for (uint8_t j = 0; j < 8; j++) {
    298a:	fd8a1ce3          	bne	s4,s8,2962 <_lcd_draw+0x134>
    298e:	0b05                	addi	s6,s6,1
    2990:	0909                	addi	s2,s2,2
E:\Works\NSCAM\obj/../LCD/lcd.c:430 (discriminator 2)
		for (uint8_t i = 0; i < 6; i++) {
    2992:	fd9b14e3          	bne	s6,s9,295a <_lcd_draw+0x12c>
E:\Works\NSCAM\obj/../LCD/lcd.c:438
		_lcd_setPosition(p, x, y, x + 5, y + 7);
    2996:	00760713          	addi	a4,a2,7
    299a:	00558693          	addi	a3,a1,5
    299e:	0742                	slli	a4,a4,0x10
    29a0:	06c2                	slli	a3,a3,0x10
    29a2:	8341                	srli	a4,a4,0x10
    29a4:	82c1                	srli	a3,a3,0x10
    29a6:	8522                	mv	a0,s0
    29a8:	a1bff0ef          	jal	ra,23c2 <_lcd_setPosition>
E:\Works\NSCAM\obj/../LCD/lcd.c:439
		_lcd_writeCommand(p, ILI9341_RAMWR);
    29ac:	02c00513          	li	a0,44
    29b0:	e94ff0ef          	jal	ra,2044 <_lcd_writeCommand.constprop.5>
E:\Works\NSCAM\obj/../LCD/lcd.c:440
		_lcd_writeData16s(p, _buf, 48);
    29b4:	03000613          	li	a2,48
    29b8:	bfb1                	j	2914 <_lcd_draw+0xe6>
E:\Works\NSCAM\obj/../LCD/lcd.c:435
					_buf[i + j * 6] = p->backColor;
    29ba:	00c45783          	lhu	a5,12(s0)
    29be:	b7d1                	j	2982 <_lcd_draw+0x154>

000029c0 <_lcd_print>:
_lcd_print():
E:\Works\NSCAM\obj/../LCD/lcd.c:543
	}
}

void _lcd_print(pLCD* p, uint16_t x, uint16_t y, char* string) {
	int i = 0;
	if (p->Font == Big) {
    29c0:	4518                	lw	a4,8(a0)
E:\Works\NSCAM\obj/../LCD/lcd.c:541
void _lcd_print(pLCD* p, uint16_t x, uint16_t y, char* string) {
    29c2:	1101                	addi	sp,sp,-32
    29c4:	cc22                	sw	s0,24(sp)
    29c6:	ca26                	sw	s1,20(sp)
    29c8:	c84a                	sw	s2,16(sp)
    29ca:	c64e                	sw	s3,12(sp)
    29cc:	c452                	sw	s4,8(sp)
    29ce:	c256                	sw	s5,4(sp)
    29d0:	c05a                	sw	s6,0(sp)
    29d2:	ce06                	sw	ra,28(sp)
E:\Works\NSCAM\obj/../LCD/lcd.c:543
	if (p->Font == Big) {
    29d4:	4789                	li	a5,2
E:\Works\NSCAM\obj/../LCD/lcd.c:541
void _lcd_print(pLCD* p, uint16_t x, uint16_t y, char* string) {
    29d6:	8b2a                	mv	s6,a0
    29d8:	842e                	mv	s0,a1
    29da:	8ab2                	mv	s5,a2
E:\Works\NSCAM\obj/../LCD/lcd.c:543
	if (p->Font == Big) {
    29dc:	84b6                	mv	s1,a3
E:\Works\NSCAM\obj/../LCD/lcd.c:550
			if (y > p->height - 16) {
				x = 0;
				y = 0;
				_lcd_clear(p);
			}
			if (string[i] == '\n') {
    29de:	4929                	li	s2,10
E:\Works\NSCAM\obj/../LCD/lcd.c:556
				i++;
				x = 0;
				y += 16;
				continue;
			}
			if (string[i] == 0x08) {
    29e0:	49a1                	li	s3,8
E:\Works\NSCAM\obj/../LCD/lcd.c:589
				y += 8;
				continue;
			}
			if (string[i] == 0x08) {
				i++;
				if (x >= 6) x -= 6;
    29e2:	4a15                	li	s4,5
E:\Works\NSCAM\obj/../LCD/lcd.c:543
	if (p->Font == Big) {
    29e4:	0af71b63          	bne	a4,a5,2a9a <_lcd_print+0xda>
E:\Works\NSCAM\obj/../LCD/lcd.c:558
				if (x >= 8) x -= 8;
    29e8:	4a1d                	li	s4,7
E:\Works\NSCAM\obj/../LCD/lcd.c:544
		while (string[i] != '\0') {
    29ea:	00048783          	lb	a5,0(s1)
    29ee:	eb99                	bnez	a5,2a04 <_lcd_print+0x44>
E:\Works\NSCAM\obj/../LCD/lcd.c:606
				y += 8;
			}
			i++;
		}
	}
}
    29f0:	40f2                	lw	ra,28(sp)
    29f2:	4462                	lw	s0,24(sp)
    29f4:	44d2                	lw	s1,20(sp)
    29f6:	4942                	lw	s2,16(sp)
    29f8:	49b2                	lw	s3,12(sp)
    29fa:	4a22                	lw	s4,8(sp)
    29fc:	4a92                	lw	s5,4(sp)
    29fe:	4b02                	lw	s6,0(sp)
    2a00:	6105                	addi	sp,sp,32
    2a02:	8082                	ret
E:\Works\NSCAM\obj/../LCD/lcd.c:545
			if (y > p->height - 16) {
    2a04:	004b5783          	lhu	a5,4(s6)
    2a08:	17c5                	addi	a5,a5,-15
    2a0a:	00fac763          	blt	s5,a5,2a18 <_lcd_print+0x58>
E:\Works\NSCAM\obj/../LCD/lcd.c:548
				_lcd_clear(p);
    2a0e:	855a                	mv	a0,s6
    2a10:	af9ff0ef          	jal	ra,2508 <_lcd_clear>
E:\Works\NSCAM\obj/../LCD/lcd.c:547
				y = 0;
    2a14:	4a81                	li	s5,0
E:\Works\NSCAM\obj/../LCD/lcd.c:546
				x = 0;
    2a16:	4401                	li	s0,0
E:\Works\NSCAM\obj/../LCD/lcd.c:550
			if (string[i] == '\n') {
    2a18:	00048683          	lb	a3,0(s1)
    2a1c:	01269863          	bne	a3,s2,2a2c <_lcd_print+0x6c>
E:\Works\NSCAM\obj/../LCD/lcd.c:570
				y += 16;
    2a20:	0ac1                	addi	s5,s5,16
    2a22:	0ac2                	slli	s5,s5,0x10
    2a24:	010ada93          	srli	s5,s5,0x10
E:\Works\NSCAM\obj/../LCD/lcd.c:569
				x = 0;
    2a28:	4401                	li	s0,0
E:\Works\NSCAM\obj/../LCD/lcd.c:572
			i++;
    2a2a:	a839                	j	2a48 <_lcd_print+0x88>
E:\Works\NSCAM\obj/../LCD/lcd.c:556
			if (string[i] == 0x08) {
    2a2c:	03369a63          	bne	a3,s3,2a60 <_lcd_print+0xa0>
E:\Works\NSCAM\obj/../LCD/lcd.c:558
				if (x >= 8) x -= 8;
    2a30:	008a7e63          	bgeu	s4,s0,2a4c <_lcd_print+0x8c>
E:\Works\NSCAM\obj/../LCD/lcd.c:558 (discriminator 1)
    2a34:	1461                	addi	s0,s0,-8
    2a36:	0442                	slli	s0,s0,0x10
    2a38:	8041                	srli	s0,s0,0x10
E:\Works\NSCAM\obj/../LCD/lcd.c:563
				_lcd_draw(p, x, y, ' ');
    2a3a:	02000693          	li	a3,32
    2a3e:	8656                	mv	a2,s5
    2a40:	85a2                	mv	a1,s0
    2a42:	855a                	mv	a0,s6
    2a44:	debff0ef          	jal	ra,282e <_lcd_draw>
E:\Works\NSCAM\obj/../LCD/lcd.c:564
				continue;
    2a48:	0485                	addi	s1,s1,1
    2a4a:	b745                	j	29ea <_lcd_print+0x2a>
E:\Works\NSCAM\obj/../LCD/lcd.c:560
					x = p->width - 8;
    2a4c:	002b5403          	lhu	s0,2(s6)
E:\Works\NSCAM\obj/../LCD/lcd.c:561
					y -= 16;
    2a50:	1ac1                	addi	s5,s5,-16
    2a52:	0ac2                	slli	s5,s5,0x10
E:\Works\NSCAM\obj/../LCD/lcd.c:560
					x = p->width - 8;
    2a54:	1461                	addi	s0,s0,-8
    2a56:	0442                	slli	s0,s0,0x10
    2a58:	8041                	srli	s0,s0,0x10
E:\Works\NSCAM\obj/../LCD/lcd.c:561
					y -= 16;
    2a5a:	010ada93          	srli	s5,s5,0x10
    2a5e:	bff1                	j	2a3a <_lcd_print+0x7a>
E:\Works\NSCAM\obj/../LCD/lcd.c:566
			_lcd_draw(p, x, y, string[i]);
    2a60:	85a2                	mv	a1,s0
    2a62:	8656                	mv	a2,s5
    2a64:	855a                	mv	a0,s6
    2a66:	dc9ff0ef          	jal	ra,282e <_lcd_draw>
E:\Works\NSCAM\obj/../LCD/lcd.c:568
			if (x > p->width - 8) {
    2a6a:	002b5783          	lhu	a5,2(s6)
E:\Works\NSCAM\obj/../LCD/lcd.c:567
			x += 8;
    2a6e:	0421                	addi	s0,s0,8
    2a70:	0442                	slli	s0,s0,0x10
    2a72:	8041                	srli	s0,s0,0x10
E:\Works\NSCAM\obj/../LCD/lcd.c:568
			if (x > p->width - 8) {
    2a74:	17e5                	addi	a5,a5,-7
    2a76:	fcf449e3          	blt	s0,a5,2a48 <_lcd_print+0x88>
    2a7a:	b75d                	j	2a20 <_lcd_print+0x60>
E:\Works\NSCAM\obj/../LCD/lcd.c:587
			if (string[i] == 0x08) {
    2a7c:	07369063          	bne	a3,s3,2adc <_lcd_print+0x11c>
E:\Works\NSCAM\obj/../LCD/lcd.c:589
				if (x >= 6) x -= 6;
    2a80:	048a7463          	bgeu	s4,s0,2ac8 <_lcd_print+0x108>
E:\Works\NSCAM\obj/../LCD/lcd.c:589 (discriminator 1)
    2a84:	1469                	addi	s0,s0,-6
    2a86:	0442                	slli	s0,s0,0x10
    2a88:	8041                	srli	s0,s0,0x10
E:\Works\NSCAM\obj/../LCD/lcd.c:594
				_lcd_draw(p, x, y, ' ');
    2a8a:	02000693          	li	a3,32
    2a8e:	8656                	mv	a2,s5
    2a90:	85a2                	mv	a1,s0
    2a92:	855a                	mv	a0,s6
    2a94:	d9bff0ef          	jal	ra,282e <_lcd_draw>
E:\Works\NSCAM\obj/../LCD/lcd.c:595
				continue;
    2a98:	0485                	addi	s1,s1,1
E:\Works\NSCAM\obj/../LCD/lcd.c:575
		while (string[i] != '\0') {
    2a9a:	00048783          	lb	a5,0(s1)
    2a9e:	dba9                	beqz	a5,29f0 <_lcd_print+0x30>
E:\Works\NSCAM\obj/../LCD/lcd.c:576
			if (y > p->height - 8) {
    2aa0:	004b5783          	lhu	a5,4(s6)
    2aa4:	17e5                	addi	a5,a5,-7
    2aa6:	00fac763          	blt	s5,a5,2ab4 <_lcd_print+0xf4>
E:\Works\NSCAM\obj/../LCD/lcd.c:579
				_lcd_clear(p);
    2aaa:	855a                	mv	a0,s6
    2aac:	a5dff0ef          	jal	ra,2508 <_lcd_clear>
E:\Works\NSCAM\obj/../LCD/lcd.c:578
				y = 0;
    2ab0:	4a81                	li	s5,0
E:\Works\NSCAM\obj/../LCD/lcd.c:577
				x = 0;
    2ab2:	4401                	li	s0,0
E:\Works\NSCAM\obj/../LCD/lcd.c:581
			if (string[i] == '\n') {
    2ab4:	00048683          	lb	a3,0(s1)
    2ab8:	fd2692e3          	bne	a3,s2,2a7c <_lcd_print+0xbc>
E:\Works\NSCAM\obj/../LCD/lcd.c:601
				y += 8;
    2abc:	0aa1                	addi	s5,s5,8
    2abe:	0ac2                	slli	s5,s5,0x10
    2ac0:	010ada93          	srli	s5,s5,0x10
E:\Works\NSCAM\obj/../LCD/lcd.c:600
				x = 0;
    2ac4:	4401                	li	s0,0
E:\Works\NSCAM\obj/../LCD/lcd.c:603
			i++;
    2ac6:	bfc9                	j	2a98 <_lcd_print+0xd8>
E:\Works\NSCAM\obj/../LCD/lcd.c:591
					x = p->width - 6;
    2ac8:	002b5403          	lhu	s0,2(s6)
E:\Works\NSCAM\obj/../LCD/lcd.c:592
					y -= 8;
    2acc:	1ae1                	addi	s5,s5,-8
    2ace:	0ac2                	slli	s5,s5,0x10
E:\Works\NSCAM\obj/../LCD/lcd.c:591
					x = p->width - 6;
    2ad0:	1469                	addi	s0,s0,-6
    2ad2:	0442                	slli	s0,s0,0x10
    2ad4:	8041                	srli	s0,s0,0x10
E:\Works\NSCAM\obj/../LCD/lcd.c:592
					y -= 8;
    2ad6:	010ada93          	srli	s5,s5,0x10
    2ada:	bf45                	j	2a8a <_lcd_print+0xca>
E:\Works\NSCAM\obj/../LCD/lcd.c:597
			_lcd_draw(p, x, y, string[i]);
    2adc:	85a2                	mv	a1,s0
    2ade:	8656                	mv	a2,s5
    2ae0:	855a                	mv	a0,s6
    2ae2:	d4dff0ef          	jal	ra,282e <_lcd_draw>
E:\Works\NSCAM\obj/../LCD/lcd.c:599
			if (x >= p->width - 6) {
    2ae6:	002b5783          	lhu	a5,2(s6)
E:\Works\NSCAM\obj/../LCD/lcd.c:598
			x += 6;
    2aea:	0419                	addi	s0,s0,6
    2aec:	0442                	slli	s0,s0,0x10
    2aee:	8041                	srli	s0,s0,0x10
E:\Works\NSCAM\obj/../LCD/lcd.c:599
			if (x >= p->width - 6) {
    2af0:	17e9                	addi	a5,a5,-6
    2af2:	faf443e3          	blt	s0,a5,2a98 <_lcd_print+0xd8>
    2af6:	b7d9                	j	2abc <_lcd_print+0xfc>

00002af8 <_lcd_printf>:
_lcd_printf():
E:\Works\NSCAM\obj/../LCD/lcd.c:608

int _lcd_printf(pLCD* p, uint16_t x, uint16_t y, const char* format, ...) {
    2af8:	715d                	addi	sp,sp,-80
    2afa:	d84a                	sw	s2,48(sp)
    2afc:	892a                	mv	s2,a0
E:\Works\NSCAM\obj/../LCD/lcd.c:609
	char* iobuf = malloc(sizeof(char) * IOBUF_SIZE);
    2afe:	08000513          	li	a0,128
E:\Works\NSCAM\obj/../LCD/lcd.c:608
int _lcd_printf(pLCD* p, uint16_t x, uint16_t y, const char* format, ...) {
    2b02:	de06                	sw	ra,60(sp)
    2b04:	dc22                	sw	s0,56(sp)
    2b06:	da26                	sw	s1,52(sp)
    2b08:	d64e                	sw	s3,44(sp)
    2b0a:	d452                	sw	s4,40(sp)
    2b0c:	c0ba                	sw	a4,64(sp)
    2b0e:	c2be                	sw	a5,68(sp)
    2b10:	c4c2                	sw	a6,72(sp)
    2b12:	c6c6                	sw	a7,76(sp)
    2b14:	89ae                	mv	s3,a1
    2b16:	8a32                	mv	s4,a2
    2b18:	c636                	sw	a3,12(sp)
E:\Works\NSCAM\obj/../LCD/lcd.c:609
	char* iobuf = malloc(sizeof(char) * IOBUF_SIZE);
    2b1a:	7cb030ef          	jal	ra,6ae4 <malloc>
E:\Works\NSCAM\obj/../LCD/lcd.c:612
	va_list args;
	va_start(args, format);
	int result = vsprintf(iobuf, format, args);
    2b1e:	46b2                	lw	a3,12(sp)
E:\Works\NSCAM\obj/../LCD/lcd.c:611
	va_start(args, format);
    2b20:	0090                	addi	a2,sp,64
E:\Works\NSCAM\obj/../LCD/lcd.c:609
	char* iobuf = malloc(sizeof(char) * IOBUF_SIZE);
    2b22:	842a                	mv	s0,a0
E:\Works\NSCAM\obj/../LCD/lcd.c:612
	int result = vsprintf(iobuf, format, args);
    2b24:	85b6                	mv	a1,a3
E:\Works\NSCAM\obj/../LCD/lcd.c:611
	va_start(args, format);
    2b26:	ce32                	sw	a2,28(sp)
E:\Works\NSCAM\obj/../LCD/lcd.c:612
	int result = vsprintf(iobuf, format, args);
    2b28:	2a8040ef          	jal	ra,6dd0 <vsiprintf>
    2b2c:	84aa                	mv	s1,a0
E:\Works\NSCAM\obj/../LCD/lcd.c:614
	va_end(args);
	_lcd_print(p, x, y, iobuf);
    2b2e:	86a2                	mv	a3,s0
    2b30:	8652                	mv	a2,s4
    2b32:	85ce                	mv	a1,s3
    2b34:	854a                	mv	a0,s2
    2b36:	e8bff0ef          	jal	ra,29c0 <_lcd_print>
E:\Works\NSCAM\obj/../LCD/lcd.c:615
	free(iobuf);
    2b3a:	8522                	mv	a0,s0
    2b3c:	7b7030ef          	jal	ra,6af2 <free>
E:\Works\NSCAM\obj/../LCD/lcd.c:617
	return result;
}
    2b40:	50f2                	lw	ra,60(sp)
    2b42:	5462                	lw	s0,56(sp)
    2b44:	8526                	mv	a0,s1
    2b46:	5942                	lw	s2,48(sp)
    2b48:	54d2                	lw	s1,52(sp)
    2b4a:	59b2                	lw	s3,44(sp)
    2b4c:	5a22                	lw	s4,40(sp)
    2b4e:	6161                	addi	sp,sp,80
    2b50:	8082                	ret

00002b52 <_lcd_printfc>:
_lcd_printfc():
E:\Works\NSCAM\obj/../LCD/lcd.c:619

int _lcd_printfc(pLCD* p, uint16_t y, const char* format, ...) {
    2b52:	711d                	addi	sp,sp,-96
    2b54:	d84a                	sw	s2,48(sp)
    2b56:	892a                	mv	s2,a0
E:\Works\NSCAM\obj/../LCD/lcd.c:620
	char* iobuf = malloc(sizeof(char) * IOBUF_SIZE);
    2b58:	08000513          	li	a0,128
E:\Works\NSCAM\obj/../LCD/lcd.c:619
int _lcd_printfc(pLCD* p, uint16_t y, const char* format, ...) {
    2b5c:	c8ba                	sw	a4,80(sp)
    2b5e:	cabe                	sw	a5,84(sp)
    2b60:	de06                	sw	ra,60(sp)
    2b62:	c6b6                	sw	a3,76(sp)
    2b64:	ccc2                	sw	a6,88(sp)
    2b66:	cec6                	sw	a7,92(sp)
    2b68:	dc22                	sw	s0,56(sp)
    2b6a:	da26                	sw	s1,52(sp)
    2b6c:	d64e                	sw	s3,44(sp)
    2b6e:	d452                	sw	s4,40(sp)
    2b70:	c632                	sw	a2,12(sp)
    2b72:	8a2e                	mv	s4,a1
E:\Works\NSCAM\obj/../LCD/lcd.c:620
	char* iobuf = malloc(sizeof(char) * IOBUF_SIZE);
    2b74:	771030ef          	jal	ra,6ae4 <malloc>
E:\Works\NSCAM\obj/../LCD/lcd.c:623
	va_list args;
	va_start(args, format);
	int result = vsprintf(iobuf, format, args);
    2b78:	45b2                	lw	a1,12(sp)
E:\Works\NSCAM\obj/../LCD/lcd.c:622
	va_start(args, format);
    2b7a:	00f0                	addi	a2,sp,76
E:\Works\NSCAM\obj/../LCD/lcd.c:620
	char* iobuf = malloc(sizeof(char) * IOBUF_SIZE);
    2b7c:	84aa                	mv	s1,a0
E:\Works\NSCAM\obj/../LCD/lcd.c:622
	va_start(args, format);
    2b7e:	ce32                	sw	a2,28(sp)
E:\Works\NSCAM\obj/../LCD/lcd.c:623
	int result = vsprintf(iobuf, format, args);
    2b80:	250040ef          	jal	ra,6dd0 <vsiprintf>
    2b84:	89aa                	mv	s3,a0
E:\Works\NSCAM\obj/../LCD/lcd.c:625
	va_end(args);
	uint16_t x = (p->width - strlen(iobuf) * ((p->Font == Big) ? 8 : 6)) / 2;
    2b86:	8526                	mv	a0,s1
    2b88:	20a040ef          	jal	ra,6d92 <strlen>
    2b8c:	00892703          	lw	a4,8(s2)
    2b90:	4789                	li	a5,2
    2b92:	00295403          	lhu	s0,2(s2)
    2b96:	4599                	li	a1,6
    2b98:	00f71363          	bne	a4,a5,2b9e <_lcd_printfc+0x4c>
    2b9c:	45a1                	li	a1,8
E:\Works\NSCAM\obj/../LCD/lcd.c:625 (discriminator 4)
    2b9e:	02b505b3          	mul	a1,a0,a1
E:\Works\NSCAM\obj/../LCD/lcd.c:626 (discriminator 4)
	_lcd_print(p, x, y, iobuf);
    2ba2:	86a6                	mv	a3,s1
    2ba4:	8652                	mv	a2,s4
    2ba6:	854a                	mv	a0,s2
E:\Works\NSCAM\obj/../LCD/lcd.c:625 (discriminator 4)
	uint16_t x = (p->width - strlen(iobuf) * ((p->Font == Big) ? 8 : 6)) / 2;
    2ba8:	40b405b3          	sub	a1,s0,a1
    2bac:	8185                	srli	a1,a1,0x1
E:\Works\NSCAM\obj/../LCD/lcd.c:626 (discriminator 4)
	_lcd_print(p, x, y, iobuf);
    2bae:	05c2                	slli	a1,a1,0x10
    2bb0:	81c1                	srli	a1,a1,0x10
    2bb2:	e0fff0ef          	jal	ra,29c0 <_lcd_print>
E:\Works\NSCAM\obj/../LCD/lcd.c:627 (discriminator 4)
	free(iobuf);
    2bb6:	8526                	mv	a0,s1
    2bb8:	73b030ef          	jal	ra,6af2 <free>
E:\Works\NSCAM\obj/../LCD/lcd.c:629 (discriminator 4)
	return result;
}
    2bbc:	50f2                	lw	ra,60(sp)
    2bbe:	5462                	lw	s0,56(sp)
    2bc0:	854e                	mv	a0,s3
    2bc2:	54d2                	lw	s1,52(sp)
    2bc4:	5942                	lw	s2,48(sp)
    2bc6:	59b2                	lw	s3,44(sp)
    2bc8:	5a22                	lw	s4,40(sp)
    2bca:	6125                	addi	sp,sp,96
    2bcc:	8082                	ret

00002bce <_lcd_scroll>:
_lcd_scroll():
E:\Works\NSCAM\obj/../LCD/lcd.c:445
	_lcd_setPosition(p, 0, 0, p->width - 1, p->height - 1);
    2bce:	00455703          	lhu	a4,4(a0)
    2bd2:	00255683          	lhu	a3,2(a0)
E:\Works\NSCAM\obj/../LCD/lcd.c:444
void _lcd_scroll(pLCD* p, uint16_t pos) {
    2bd6:	1101                	addi	sp,sp,-32
E:\Works\NSCAM\obj/../LCD/lcd.c:445
	_lcd_setPosition(p, 0, 0, p->width - 1, p->height - 1);
    2bd8:	177d                	addi	a4,a4,-1
    2bda:	16fd                	addi	a3,a3,-1
    2bdc:	0742                	slli	a4,a4,0x10
    2bde:	06c2                	slli	a3,a3,0x10
    2be0:	8341                	srli	a4,a4,0x10
    2be2:	82c1                	srli	a3,a3,0x10
    2be4:	4601                	li	a2,0
E:\Works\NSCAM\obj/../LCD/lcd.c:444
void _lcd_scroll(pLCD* p, uint16_t pos) {
    2be6:	c84a                	sw	s2,16(sp)
    2be8:	892e                	mv	s2,a1
E:\Works\NSCAM\obj/../LCD/lcd.c:445
	_lcd_setPosition(p, 0, 0, p->width - 1, p->height - 1);
    2bea:	4581                	li	a1,0
E:\Works\NSCAM\obj/../LCD/lcd.c:444
void _lcd_scroll(pLCD* p, uint16_t pos) {
    2bec:	ce06                	sw	ra,28(sp)
    2bee:	cc22                	sw	s0,24(sp)
    2bf0:	ca26                	sw	s1,20(sp)
    2bf2:	842a                	mv	s0,a0
    2bf4:	c64e                	sw	s3,12(sp)
    2bf6:	c452                	sw	s4,8(sp)
    2bf8:	c256                	sw	s5,4(sp)
    2bfa:	c05a                	sw	s6,0(sp)
E:\Works\NSCAM\obj/../LCD/lcd.c:445
	_lcd_setPosition(p, 0, 0, p->width - 1, p->height - 1);
    2bfc:	fc6ff0ef          	jal	ra,23c2 <_lcd_setPosition>
E:\Works\NSCAM\obj/../LCD/lcd.c:446
	_lcd_writeCommand(p, ILI9341_RAMWR);
    2c00:	02c00513          	li	a0,44
    2c04:	c40ff0ef          	jal	ra,2044 <_lcd_writeCommand.constprop.5>
E:\Works\NSCAM\obj/../LCD/lcd.c:447
	_lcd_flashData16(p, p->backColor, p->width * p->height);
    2c08:	00445783          	lhu	a5,4(s0)
    2c0c:	00245603          	lhu	a2,2(s0)
    2c10:	00c45583          	lhu	a1,12(s0)
    2c14:	8522                	mv	a0,s0
    2c16:	02f60633          	mul	a2,a2,a5
    2c1a:	03c00493          	li	s1,60
    2c1e:	ec6ff0ef          	jal	ra,22e4 <_lcd_flashData16>
E:\Works\NSCAM\obj/../LCD/lcd.c:448
	if (pos > 60) pos = 60;
    2c22:	03c00793          	li	a5,60
    2c26:	0127e363          	bltu	a5,s2,2c2c <_lcd_scroll+0x5e>
    2c2a:	84ca                	mv	s1,s2
E:\Works\NSCAM\obj/../LCD/lcd.c:449
	if (p->Font == Big) {
    2c2c:	4418                	lw	a4,8(s0)
    2c2e:	04c2                	slli	s1,s1,0x10
    2c30:	4789                	li	a5,2
    2c32:	80c1                	srli	s1,s1,0x10
E:\Works\NSCAM\obj/../LCD/lcd.c:450
		for (uint16_t i = 0; i < p->height / 16 - pos; i++) {
    2c34:	4901                	li	s2,0
    2c36:	02800a93          	li	s5,40
E:\Works\NSCAM\obj/../LCD/lcd.c:449
	if (p->Font == Big) {
    2c3a:	08f70563          	beq	a4,a5,2cc4 <_lcd_scroll+0xf6>
E:\Works\NSCAM\obj/../LCD/lcd.c:459 (discriminator 1)
		for (uint16_t i = 0; i < p->height / 8 - pos; i++) {
    2c3e:	00445503          	lhu	a0,4(s0)
    2c42:	810d                	srli	a0,a0,0x3
    2c44:	8d05                	sub	a0,a0,s1
    2c46:	08a95563          	bge	s2,a0,2cd0 <_lcd_scroll+0x102>
E:\Works\NSCAM\obj/../LCD/lcd.c:460
			memcpy(p->buffer[i], p->buffer[i + pos], IOBUF_WIDTH);
    2c4a:	009905b3          	add	a1,s2,s1
    2c4e:	035909b3          	mul	s3,s2,s5
    2c52:	00391b13          	slli	s6,s2,0x3
    2c56:	02800613          	li	a2,40
    2c5a:	0b42                	slli	s6,s6,0x10
    2c5c:	010b5b13          	srli	s6,s6,0x10
E:\Works\NSCAM\obj/../LCD/lcd.c:461
			for (uint16_t j = 0; p->buffer[i][j] != '\0'; j++) {
    2c60:	4a01                	li	s4,0
E:\Works\NSCAM\obj/../LCD/lcd.c:460
			memcpy(p->buffer[i], p->buffer[i + pos], IOBUF_WIDTH);
    2c62:	035585b3          	mul	a1,a1,s5
    2c66:	01698513          	addi	a0,s3,22
    2c6a:	9522                	add	a0,a0,s0
    2c6c:	99a2                	add	s3,s3,s0
    2c6e:	05d9                	addi	a1,a1,22
    2c70:	95a2                	add	a1,a1,s0
    2c72:	6b5030ef          	jal	ra,6b26 <memcpy>
E:\Works\NSCAM\obj/../LCD/lcd.c:461
			for (uint16_t j = 0; p->buffer[i][j] != '\0'; j++) {
    2c76:	0985                	addi	s3,s3,1
E:\Works\NSCAM\obj/../LCD/lcd.c:461 (discriminator 1)
    2c78:	01598683          	lb	a3,21(s3)
    2c7c:	eac1                	bnez	a3,2d0c <_lcd_scroll+0x13e>
E:\Works\NSCAM\obj/../LCD/lcd.c:459 (discriminator 2)
		for (uint16_t i = 0; i < p->height / 8 - pos; i++) {
    2c7e:	0905                	addi	s2,s2,1
    2c80:	0942                	slli	s2,s2,0x10
    2c82:	01095913          	srli	s2,s2,0x10
    2c86:	bf65                	j	2c3e <_lcd_scroll+0x70>
E:\Works\NSCAM\obj/../LCD/lcd.c:451
			memcpy(p->buffer[i], p->buffer[i + pos], IOBUF_WIDTH);
    2c88:	009905b3          	add	a1,s2,s1
    2c8c:	035909b3          	mul	s3,s2,s5
    2c90:	00491b13          	slli	s6,s2,0x4
    2c94:	02800613          	li	a2,40
    2c98:	0b42                	slli	s6,s6,0x10
    2c9a:	010b5b13          	srli	s6,s6,0x10
E:\Works\NSCAM\obj/../LCD/lcd.c:452
			for (uint16_t j = 0; p->buffer[i][j] != '\0'; j++) {
    2c9e:	4a01                	li	s4,0
E:\Works\NSCAM\obj/../LCD/lcd.c:451
			memcpy(p->buffer[i], p->buffer[i + pos], IOBUF_WIDTH);
    2ca0:	035585b3          	mul	a1,a1,s5
    2ca4:	01698513          	addi	a0,s3,22
    2ca8:	9522                	add	a0,a0,s0
    2caa:	99a2                	add	s3,s3,s0
    2cac:	05d9                	addi	a1,a1,22
    2cae:	95a2                	add	a1,a1,s0
    2cb0:	677030ef          	jal	ra,6b26 <memcpy>
E:\Works\NSCAM\obj/../LCD/lcd.c:452
			for (uint16_t j = 0; p->buffer[i][j] != '\0'; j++) {
    2cb4:	0985                	addi	s3,s3,1
E:\Works\NSCAM\obj/../LCD/lcd.c:452 (discriminator 1)
    2cb6:	01598683          	lb	a3,21(s3)
    2cba:	ee9d                	bnez	a3,2cf8 <_lcd_scroll+0x12a>
E:\Works\NSCAM\obj/../LCD/lcd.c:450 (discriminator 2)
		for (uint16_t i = 0; i < p->height / 16 - pos; i++) {
    2cbc:	0905                	addi	s2,s2,1
    2cbe:	0942                	slli	s2,s2,0x10
    2cc0:	01095913          	srli	s2,s2,0x10
E:\Works\NSCAM\obj/../LCD/lcd.c:450 (discriminator 1)
    2cc4:	00445503          	lhu	a0,4(s0)
    2cc8:	8111                	srli	a0,a0,0x4
    2cca:	8d05                	sub	a0,a0,s1
    2ccc:	faa94ee3          	blt	s2,a0,2c88 <_lcd_scroll+0xba>
E:\Works\NSCAM\obj/../LCD/lcd.c:466
		memset(p->buffer[p->height / 8 - pos], 0, IOBUF_WIDTH * pos);
    2cd0:	02800613          	li	a2,40
    2cd4:	02c50533          	mul	a0,a0,a2
E:\Works\NSCAM\obj/../LCD/lcd.c:468
}
    2cd8:	40f2                	lw	ra,28(sp)
    2cda:	4942                	lw	s2,16(sp)
    2cdc:	49b2                	lw	s3,12(sp)
    2cde:	4a22                	lw	s4,8(sp)
    2ce0:	4a92                	lw	s5,4(sp)
    2ce2:	4b02                	lw	s6,0(sp)
E:\Works\NSCAM\obj/../LCD/lcd.c:466
		memset(p->buffer[p->height / 8 - pos], 0, IOBUF_WIDTH * pos);
    2ce4:	4581                	li	a1,0
    2ce6:	02c48633          	mul	a2,s1,a2
    2cea:	0559                	addi	a0,a0,22
    2cec:	9522                	add	a0,a0,s0
E:\Works\NSCAM\obj/../LCD/lcd.c:468
}
    2cee:	4462                	lw	s0,24(sp)
    2cf0:	44d2                	lw	s1,20(sp)
    2cf2:	6105                	addi	sp,sp,32
E:\Works\NSCAM\obj/../LCD/lcd.c:466
		memset(p->buffer[p->height / 8 - pos], 0, IOBUF_WIDTH * pos);
    2cf4:	bccfd06f          	j	c0 <memset>
E:\Works\NSCAM\obj/../LCD/lcd.c:454 (discriminator 2)
				_lcd_draw(p, j * 8, i * 16, p->buffer[i][j]);
    2cf8:	85d2                	mv	a1,s4
    2cfa:	0a21                	addi	s4,s4,8
    2cfc:	865a                	mv	a2,s6
    2cfe:	8522                	mv	a0,s0
    2d00:	0a42                	slli	s4,s4,0x10
    2d02:	b2dff0ef          	jal	ra,282e <_lcd_draw>
    2d06:	010a5a13          	srli	s4,s4,0x10
    2d0a:	b76d                	j	2cb4 <_lcd_scroll+0xe6>
E:\Works\NSCAM\obj/../LCD/lcd.c:463 (discriminator 2)
				_lcd_draw(p, j * 6, i * 8, p->buffer[i][j]);
    2d0c:	85d2                	mv	a1,s4
    2d0e:	0a19                	addi	s4,s4,6
    2d10:	865a                	mv	a2,s6
    2d12:	8522                	mv	a0,s0
    2d14:	0a42                	slli	s4,s4,0x10
    2d16:	b19ff0ef          	jal	ra,282e <_lcd_draw>
    2d1a:	010a5a13          	srli	s4,s4,0x10
    2d1e:	bfa1                	j	2c76 <_lcd_scroll+0xa8>

00002d20 <_lcd_line>:
_lcd_line():
E:\Works\NSCAM\obj/../LCD/lcd.c:251
void _lcd_line(pLCD* p, uint16_t x1, uint16_t y1, uint16_t x2, uint16_t y2) {
    2d20:	715d                	addi	sp,sp,-80
    2d22:	c2a6                	sw	s1,68(sp)
    2d24:	84aa                	mv	s1,a0
    2d26:	40c70533          	sub	a0,a4,a2
    2d2a:	de4e                	sw	s3,60(sp)
    2d2c:	da56                	sw	s5,52(sp)
    2d2e:	d65e                	sw	s7,44(sp)
    2d30:	c636                	sw	a3,12(sp)
    2d32:	c686                	sw	ra,76(sp)
    2d34:	c4a2                	sw	s0,72(sp)
    2d36:	c0ca                	sw	s2,64(sp)
    2d38:	dc52                	sw	s4,56(sp)
    2d3a:	d85a                	sw	s6,48(sp)
    2d3c:	d462                	sw	s8,40(sp)
    2d3e:	d266                	sw	s9,36(sp)
    2d40:	d06a                	sw	s10,32(sp)
    2d42:	ce6e                	sw	s11,28(sp)
    2d44:	8aae                	mv	s5,a1
    2d46:	8bb2                	mv	s7,a2
    2d48:	393030ef          	jal	ra,68da <__floatsisf>
E:\Works\NSCAM\obj/../LCD/lcd.c:252
	if (x1 == x2) {
    2d4c:	46b2                	lw	a3,12(sp)
    2d4e:	89aa                	mv	s3,a0
    2d50:	0ada9563          	bne	s5,a3,2dfa <_lcd_line+0xda>
_lcd_abs():
E:\Works\NSCAM\obj/../LCD/lcd.c:236
	return v > 0 ? v : -v;
    2d54:	00000593          	li	a1,0
    2d58:	3a0030ef          	jal	ra,60f8 <__gesf2>
    2d5c:	894e                	mv	s2,s3
    2d5e:	00a04663          	bgtz	a0,2d6a <_lcd_line+0x4a>
    2d62:	80000937          	lui	s2,0x80000
    2d66:	01394933          	xor	s2,s2,s3
_lcd_line():
E:\Works\NSCAM\obj/../LCD/lcd.c:253
		float absY = _lcd_abs(y2 - y1), sig = (y2 - y1) / absY;
    2d6a:	854e                	mv	a0,s3
    2d6c:	85ca                	mv	a1,s2
    2d6e:	07c030ef          	jal	ra,5dea <__divsf3>
    2d72:	89aa                	mv	s3,a0
E:\Works\NSCAM\obj/../LCD/lcd.c:254
		for (float dy = 0; _lcd_abs(dy) <= absY; dy += sig) {
    2d74:	00000413          	li	s0,0
_lcd_abs():
E:\Works\NSCAM\obj/../LCD/lcd.c:236
	return v > 0 ? v : -v;
    2d78:	80000a37          	lui	s4,0x80000
E:\Works\NSCAM\obj/../LCD/lcd.c:236 (discriminator 1)
    2d7c:	00000593          	li	a1,0
    2d80:	8522                	mv	a0,s0
    2d82:	376030ef          	jal	ra,60f8 <__gesf2>
    2d86:	87a2                	mv	a5,s0
    2d88:	00a04463          	bgtz	a0,2d90 <_lcd_line+0x70>
E:\Works\NSCAM\obj/../LCD/lcd.c:236
    2d8c:	008a47b3          	xor	a5,s4,s0
_lcd_line():
E:\Works\NSCAM\obj/../LCD/lcd.c:254
		for (float dy = 0; _lcd_abs(dy) <= absY; dy += sig) {
    2d90:	85ca                	mv	a1,s2
    2d92:	853e                	mv	a0,a5
    2d94:	3ea030ef          	jal	ra,617e <__lesf2>
    2d98:	02a05163          	blez	a0,2dba <_lcd_line+0x9a>
E:\Works\NSCAM\obj/../LCD/lcd.c:270
}
    2d9c:	40b6                	lw	ra,76(sp)
    2d9e:	4426                	lw	s0,72(sp)
    2da0:	4496                	lw	s1,68(sp)
    2da2:	4906                	lw	s2,64(sp)
    2da4:	59f2                	lw	s3,60(sp)
    2da6:	5a62                	lw	s4,56(sp)
    2da8:	5ad2                	lw	s5,52(sp)
    2daa:	5b42                	lw	s6,48(sp)
    2dac:	5bb2                	lw	s7,44(sp)
    2dae:	5c22                	lw	s8,40(sp)
    2db0:	5c92                	lw	s9,36(sp)
    2db2:	5d02                	lw	s10,32(sp)
    2db4:	4df2                	lw	s11,28(sp)
    2db6:	6161                	addi	sp,sp,80
    2db8:	8082                	ret
E:\Works\NSCAM\obj/../LCD/lcd.c:255 (discriminator 3)
			_lcd_setPosition(p, x1, y1 + dy, x1, y1 + dy);
    2dba:	855e                	mv	a0,s7
    2dbc:	31f030ef          	jal	ra,68da <__floatsisf>
    2dc0:	85a2                	mv	a1,s0
    2dc2:	4bf020ef          	jal	ra,5a80 <__addsf3>
    2dc6:	2bf030ef          	jal	ra,6884 <__fixunssfsi>
    2dca:	01051713          	slli	a4,a0,0x10
    2dce:	8341                	srli	a4,a4,0x10
    2dd0:	86d6                	mv	a3,s5
    2dd2:	863a                	mv	a2,a4
    2dd4:	85d6                	mv	a1,s5
    2dd6:	8526                	mv	a0,s1
    2dd8:	deaff0ef          	jal	ra,23c2 <_lcd_setPosition>
E:\Works\NSCAM\obj/../LCD/lcd.c:256 (discriminator 3)
			_lcd_writeCommand(p, ILI9341_RAMWR);
    2ddc:	02c00513          	li	a0,44
    2de0:	a64ff0ef          	jal	ra,2044 <_lcd_writeCommand.constprop.5>
E:\Works\NSCAM\obj/../LCD/lcd.c:257 (discriminator 3)
			_lcd_writeData16(p, p->foreColor);
    2de4:	00e4d583          	lhu	a1,14(s1)
    2de8:	8526                	mv	a0,s1
    2dea:	b86ff0ef          	jal	ra,2170 <_lcd_writeData16>
E:\Works\NSCAM\obj/../LCD/lcd.c:254 (discriminator 3)
		for (float dy = 0; _lcd_abs(dy) <= absY; dy += sig) {
    2dee:	8522                	mv	a0,s0
    2df0:	85ce                	mv	a1,s3
    2df2:	48f020ef          	jal	ra,5a80 <__addsf3>
    2df6:	842a                	mv	s0,a0
    2df8:	b751                	j	2d7c <_lcd_line+0x5c>
E:\Works\NSCAM\obj/../LCD/lcd.c:260
		float k = (float)(y2 - y1) / (float)(x2 - x1), absX = _lcd_abs(x2 - x1);
    2dfa:	41568533          	sub	a0,a3,s5
    2dfe:	2dd030ef          	jal	ra,68da <__floatsisf>
    2e02:	842a                	mv	s0,a0
    2e04:	85aa                	mv	a1,a0
    2e06:	854e                	mv	a0,s3
    2e08:	7e3020ef          	jal	ra,5dea <__divsf3>
    2e0c:	8a2a                	mv	s4,a0
_lcd_abs():
E:\Works\NSCAM\obj/../LCD/lcd.c:236
	return v > 0 ? v : -v;
    2e0e:	00000593          	li	a1,0
    2e12:	8522                	mv	a0,s0
    2e14:	2e4030ef          	jal	ra,60f8 <__gesf2>
    2e18:	89a2                	mv	s3,s0
    2e1a:	00a04663          	bgtz	a0,2e26 <_lcd_line+0x106>
    2e1e:	800009b7          	lui	s3,0x80000
    2e22:	0089c9b3          	xor	s3,s3,s0
_lcd_line():
E:\Works\NSCAM\obj/../LCD/lcd.c:261
		float sig = (x2 - x1) / absX;
    2e26:	85ce                	mv	a1,s3
    2e28:	8522                	mv	a0,s0
    2e2a:	7c1020ef          	jal	ra,5dea <__divsf3>
    2e2e:	8daa                	mv	s11,a0
E:\Works\NSCAM\obj/../LCD/lcd.c:262
		for (float dx = 0, dy = 0; _lcd_abs(dx) <= absX; dx += sig, dy += k) {
    2e30:	00000593          	li	a1,0
    2e34:	8552                	mv	a0,s4
    2e36:	2c2030ef          	jal	ra,60f8 <__gesf2>
    2e3a:	8b52                	mv	s6,s4
    2e3c:	00a04663          	bgtz	a0,2e48 <_lcd_line+0x128>
_lcd_abs():
E:\Works\NSCAM\obj/../LCD/lcd.c:236
	return v > 0 ? v : -v;
    2e40:	80000b37          	lui	s6,0x80000
    2e44:	014b4b33          	xor	s6,s6,s4
    2e48:	00000593          	li	a1,0
    2e4c:	8552                	mv	a0,s4
    2e4e:	2aa030ef          	jal	ra,60f8 <__gesf2>
    2e52:	02a05d63          	blez	a0,2e8c <_lcd_line+0x16c>
    2e56:	000077b7          	lui	a5,0x7
    2e5a:	5fc7ac83          	lw	s9,1532(a5) # 75fc <_sbrk+0x26>
_lcd_line():
E:\Works\NSCAM\obj/../LCD/lcd.c:262
		for (float dx = 0, dy = 0; _lcd_abs(dx) <= absX; dx += sig, dy += k) {
    2e5e:	00000c13          	li	s8,0
    2e62:	8462                	mv	s0,s8
_lcd_abs():
E:\Works\NSCAM\obj/../LCD/lcd.c:236
	return v > 0 ? v : -v;
    2e64:	80000d37          	lui	s10,0x80000
    2e68:	00000593          	li	a1,0
    2e6c:	8522                	mv	a0,s0
    2e6e:	28a030ef          	jal	ra,60f8 <__gesf2>
    2e72:	85a2                	mv	a1,s0
    2e74:	00a04463          	bgtz	a0,2e7c <_lcd_line+0x15c>
    2e78:	008d45b3          	xor	a1,s10,s0
_lcd_line():
E:\Works\NSCAM\obj/../LCD/lcd.c:262
		for (float dx = 0, dy = 0; _lcd_abs(dx) <= absX; dx += sig, dy += k) {
    2e7c:	854e                	mv	a0,s3
    2e7e:	27a030ef          	jal	ra,60f8 <__gesf2>
    2e82:	f0054de3          	bltz	a0,2d9c <_lcd_line+0x7c>
E:\Works\NSCAM\obj/../LCD/lcd.c:263
			for (float dk = 0; _lcd_abs(dk) <= _lcd_abs(k); dk += (k > 0 ? 1 : -1)) {
    2e86:	00000913          	li	s2,0
    2e8a:	a0a5                	j	2ef2 <_lcd_line+0x1d2>
    2e8c:	000097b7          	lui	a5,0x9
    2e90:	ac87ac83          	lw	s9,-1336(a5) # 8ac8 <__FONTS_SMALL_+0x228>
    2e94:	b7e9                	j	2e5e <_lcd_line+0x13e>
E:\Works\NSCAM\obj/../LCD/lcd.c:264
				_lcd_setPosition(p, x1 + dx, y1 + dy + dk, x1 + dx, y1 + dy + dk);
    2e96:	8556                	mv	a0,s5
    2e98:	243030ef          	jal	ra,68da <__floatsisf>
    2e9c:	85a2                	mv	a1,s0
    2e9e:	3e3020ef          	jal	ra,5a80 <__addsf3>
    2ea2:	1e3030ef          	jal	ra,6884 <__fixunssfsi>
    2ea6:	01051693          	slli	a3,a0,0x10
    2eaa:	82c1                	srli	a3,a3,0x10
    2eac:	855e                	mv	a0,s7
    2eae:	c636                	sw	a3,12(sp)
    2eb0:	22b030ef          	jal	ra,68da <__floatsisf>
    2eb4:	85e2                	mv	a1,s8
    2eb6:	3cb020ef          	jal	ra,5a80 <__addsf3>
    2eba:	85ca                	mv	a1,s2
    2ebc:	3c5020ef          	jal	ra,5a80 <__addsf3>
    2ec0:	1c5030ef          	jal	ra,6884 <__fixunssfsi>
    2ec4:	46b2                	lw	a3,12(sp)
    2ec6:	01051713          	slli	a4,a0,0x10
    2eca:	8341                	srli	a4,a4,0x10
    2ecc:	85b6                	mv	a1,a3
    2ece:	863a                	mv	a2,a4
    2ed0:	8526                	mv	a0,s1
    2ed2:	cf0ff0ef          	jal	ra,23c2 <_lcd_setPosition>
E:\Works\NSCAM\obj/../LCD/lcd.c:265
				_lcd_writeCommand(p, ILI9341_RAMWR);
    2ed6:	02c00513          	li	a0,44
    2eda:	96aff0ef          	jal	ra,2044 <_lcd_writeCommand.constprop.5>
E:\Works\NSCAM\obj/../LCD/lcd.c:266
				_lcd_writeData16(p, p->foreColor);
    2ede:	00e4d583          	lhu	a1,14(s1)
    2ee2:	8526                	mv	a0,s1
    2ee4:	a8cff0ef          	jal	ra,2170 <_lcd_writeData16>
E:\Works\NSCAM\obj/../LCD/lcd.c:263
			for (float dk = 0; _lcd_abs(dk) <= _lcd_abs(k); dk += (k > 0 ? 1 : -1)) {
    2ee8:	854a                	mv	a0,s2
    2eea:	85e6                	mv	a1,s9
    2eec:	395020ef          	jal	ra,5a80 <__addsf3>
    2ef0:	892a                	mv	s2,a0
_lcd_abs():
E:\Works\NSCAM\obj/../LCD/lcd.c:236
	return v > 0 ? v : -v;
    2ef2:	00000593          	li	a1,0
    2ef6:	854a                	mv	a0,s2
    2ef8:	200030ef          	jal	ra,60f8 <__gesf2>
    2efc:	85ca                	mv	a1,s2
    2efe:	00a04463          	bgtz	a0,2f06 <_lcd_line+0x1e6>
    2f02:	012d45b3          	xor	a1,s10,s2
_lcd_line():
E:\Works\NSCAM\obj/../LCD/lcd.c:263
			for (float dk = 0; _lcd_abs(dk) <= _lcd_abs(k); dk += (k > 0 ? 1 : -1)) {
    2f06:	855a                	mv	a0,s6
    2f08:	1f0030ef          	jal	ra,60f8 <__gesf2>
    2f0c:	f80555e3          	bgez	a0,2e96 <_lcd_line+0x176>
E:\Works\NSCAM\obj/../LCD/lcd.c:262
		for (float dx = 0, dy = 0; _lcd_abs(dx) <= absX; dx += sig, dy += k) {
    2f10:	85ee                	mv	a1,s11
    2f12:	8522                	mv	a0,s0
    2f14:	36d020ef          	jal	ra,5a80 <__addsf3>
    2f18:	842a                	mv	s0,a0
    2f1a:	85d2                	mv	a1,s4
    2f1c:	8562                	mv	a0,s8
    2f1e:	363020ef          	jal	ra,5a80 <__addsf3>
    2f22:	8c2a                	mv	s8,a0
    2f24:	b791                	j	2e68 <_lcd_line+0x148>

00002f26 <_lcd_tri>:
_lcd_tri():
E:\Works\NSCAM\obj/../LCD/lcd.c:272
void _lcd_tri(pLCD* p, uint16_t x1, uint16_t y1, uint16_t x2, uint16_t y2, uint16_t x3, uint16_t y3, uint8_t fill) {
    2f26:	715d                	addi	sp,sp,-80
    2f28:	c4a2                	sw	s0,72(sp)
    2f2a:	c2a6                	sw	s1,68(sp)
    2f2c:	c0ca                	sw	s2,64(sp)
    2f2e:	de4e                	sw	s3,60(sp)
    2f30:	dc52                	sw	s4,56(sp)
    2f32:	da56                	sw	s5,52(sp)
    2f34:	d85a                	sw	s6,48(sp)
    2f36:	c686                	sw	ra,76(sp)
    2f38:	d65e                	sw	s7,44(sp)
    2f3a:	d462                	sw	s8,40(sp)
    2f3c:	d266                	sw	s9,36(sp)
    2f3e:	d06a                	sw	s10,32(sp)
    2f40:	ce6e                	sw	s11,28(sp)
    2f42:	8a2a                	mv	s4,a0
    2f44:	8b2e                	mv	s6,a1
    2f46:	89b2                	mv	s3,a2
    2f48:	8ab6                	mv	s5,a3
    2f4a:	893a                	mv	s2,a4
    2f4c:	84be                	mv	s1,a5
    2f4e:	8442                	mv	s0,a6
E:\Works\NSCAM\obj/../LCD/lcd.c:273
	if (fill) {
    2f50:	1c088263          	beqz	a7,3114 <_lcd_tri+0x1ee>
E:\Works\NSCAM\obj/../LCD/lcd.c:274
		uint16_t maxy = (y1 > y2) ? ((y1 > y3) ? y1 : y3) : ((y1 > y3) ? (y2) : ((y2 > y3) ? y2 : y3));
    2f54:	00c77763          	bgeu	a4,a2,2f62 <_lcd_tri+0x3c>
    2f58:	8832                	mv	a6,a2
    2f5a:	00867963          	bgeu	a2,s0,2f6c <_lcd_tri+0x46>
    2f5e:	8822                	mv	a6,s0
    2f60:	a031                	j	2f6c <_lcd_tri+0x46>
    2f62:	2ac86163          	bltu	a6,a2,3204 <_lcd_tri+0x2de>
    2f66:	883a                	mv	a6,a4
    2f68:	fe876be3          	bltu	a4,s0,2f5e <_lcd_tri+0x38>
    2f6c:	01081d13          	slli	s10,a6,0x10
    2f70:	010d5d13          	srli	s10,s10,0x10
E:\Works\NSCAM\obj/../LCD/lcd.c:275
		uint16_t miny = (y1 < y2) ? ((y1 < y3) ? y1 : y3) : ((y1 < y3) ? (y2) : ((y2 < y3) ? y2 : y3));
    2f74:	0129f763          	bgeu	s3,s2,2f82 <_lcd_tri+0x5c>
    2f78:	87ce                	mv	a5,s3
    2f7a:	01347963          	bgeu	s0,s3,2f8c <_lcd_tri+0x66>
    2f7e:	87a2                	mv	a5,s0
    2f80:	a031                	j	2f8c <_lcd_tri+0x66>
    2f82:	2489ef63          	bltu	s3,s0,31e0 <_lcd_tri+0x2ba>
    2f86:	87ca                	mv	a5,s2
    2f88:	ff246be3          	bltu	s0,s2,2f7e <_lcd_tri+0x58>
    2f8c:	01079d93          	slli	s11,a5,0x10
    2f90:	010ddd93          	srli	s11,s11,0x10
E:\Works\NSCAM\obj/../LCD/lcd.c:276
		uint16_t midy = (y1 == maxy) ? ((y2 == miny) ? y3 : y2) : ((y1 == miny) ? ((y2 == maxy) ? y3 : y2) : y1);
    2f94:	25a99963          	bne	s3,s10,31e6 <_lcd_tri+0x2c0>
    2f98:	25b90b63          	beq	s2,s11,31ee <_lcd_tri+0x2c8>
    2f9c:	844a                	mv	s0,s2
    2f9e:	ac81                	j	31ee <_lcd_tri+0x2c8>
    2fa0:	844e                	mv	s0,s3
    2fa2:	a4b1                	j	31ee <_lcd_tri+0x2c8>
E:\Works\NSCAM\obj/../LCD/lcd.c:277
		uint16_t maxx = (x1 > x2) ? ((x1 > x3) ? x1 : x3) : ((x1 > x3) ? (x2) : ((x2 > x3) ? x2 : x3));
    2fa4:	2564ec63          	bltu	s1,s6,31fc <_lcd_tri+0x2d6>
    2fa8:	89d6                	mv	s3,s5
    2faa:	249ae763          	bltu	s5,s1,31f8 <_lcd_tri+0x2d2>
    2fae:	09c2                	slli	s3,s3,0x10
    2fb0:	0109d993          	srli	s3,s3,0x10
E:\Works\NSCAM\obj/../LCD/lcd.c:278
		uint16_t minx = (x1 < x2) ? ((x1 < x3) ? x1 : x3) : ((x1 < x3) ? (x2) : ((x2 < x3) ? x2 : x3));
    2fb4:	015b7763          	bgeu	s6,s5,2fc2 <_lcd_tri+0x9c>
    2fb8:	895a                	mv	s2,s6
    2fba:	0164f963          	bgeu	s1,s6,2fcc <_lcd_tri+0xa6>
    2fbe:	8926                	mv	s2,s1
    2fc0:	a031                	j	2fcc <_lcd_tri+0xa6>
    2fc2:	189b6763          	bltu	s6,s1,3150 <_lcd_tri+0x22a>
    2fc6:	8956                	mv	s2,s5
    2fc8:	ff54ebe3          	bltu	s1,s5,2fbe <_lcd_tri+0x98>
    2fcc:	0942                	slli	s2,s2,0x10
    2fce:	01095913          	srli	s2,s2,0x10
E:\Works\NSCAM\obj/../LCD/lcd.c:279
		uint16_t midx = (x1 == maxx) ? ((x2 == minx) ? x3 : x2) : ((x1 == minx) ? ((x2 == maxx) ? x3 : x2) : x1);
    2fd2:	193b1263          	bne	s6,s3,3156 <_lcd_tri+0x230>
    2fd6:	192a8463          	beq	s5,s2,315e <_lcd_tri+0x238>
    2fda:	84d6                	mv	s1,s5
    2fdc:	a249                	j	315e <_lcd_tri+0x238>
    2fde:	84da                	mv	s1,s6
    2fe0:	aabd                	j	315e <_lcd_tri+0x238>
E:\Works\NSCAM\obj/../LCD/lcd.c:286
			xs = (float)(i - miny) / k1 + (float)minx;
    2fe2:	4792                	lw	a5,4(sp)
    2fe4:	40fd8533          	sub	a0,s11,a5
    2fe8:	0f3030ef          	jal	ra,68da <__floatsisf>
    2fec:	8caa                	mv	s9,a0
    2fee:	854a                	mv	a0,s2
    2ff0:	1b1030ef          	jal	ra,69a0 <__floatunsisf>
    2ff4:	8c2a                	mv	s8,a0
    2ff6:	85da                	mv	a1,s6
    2ff8:	8566                	mv	a0,s9
    2ffa:	5f1020ef          	jal	ra,5dea <__divsf3>
    2ffe:	85e2                	mv	a1,s8
    3000:	281020ef          	jal	ra,5a80 <__addsf3>
    3004:	081030ef          	jal	ra,6884 <__fixunssfsi>
E:\Works\NSCAM\obj/../LCD/lcd.c:287
			xe = (float)(i - miny) / k2 + (float)minx;
    3008:	45b2                	lw	a1,12(sp)
E:\Works\NSCAM\obj/../LCD/lcd.c:286
			xs = (float)(i - miny) / k1 + (float)minx;
    300a:	01051a93          	slli	s5,a0,0x10
E:\Works\NSCAM\obj/../LCD/lcd.c:287
			xe = (float)(i - miny) / k2 + (float)minx;
    300e:	8566                	mv	a0,s9
    3010:	5db020ef          	jal	ra,5dea <__divsf3>
    3014:	85e2                	mv	a1,s8
    3016:	26b020ef          	jal	ra,5a80 <__addsf3>
    301a:	06b030ef          	jal	ra,6884 <__fixunssfsi>
    301e:	01051c13          	slli	s8,a0,0x10
E:\Works\NSCAM\obj/../LCD/lcd.c:286
			xs = (float)(i - miny) / k1 + (float)minx;
    3022:	010ada93          	srli	s5,s5,0x10
E:\Works\NSCAM\obj/../LCD/lcd.c:287
			xe = (float)(i - miny) / k2 + (float)minx;
    3026:	010c5c13          	srli	s8,s8,0x10
E:\Works\NSCAM\obj/../LCD/lcd.c:288
			if (xe < xs) { tmp = xe; xe = xs; xs = tmp; }
    302a:	015c7563          	bgeu	s8,s5,3034 <_lcd_tri+0x10e>
    302e:	8756                	mv	a4,s5
    3030:	8ae2                	mv	s5,s8
    3032:	8c3a                	mv	s8,a4
E:\Works\NSCAM\obj/../LCD/lcd.c:289
			_lcd_setPosition(p, xs, i, xe, i);
    3034:	86e2                	mv	a3,s8
    3036:	876e                	mv	a4,s11
    3038:	866e                	mv	a2,s11
    303a:	85d6                	mv	a1,s5
    303c:	8552                	mv	a0,s4
    303e:	b84ff0ef          	jal	ra,23c2 <_lcd_setPosition>
E:\Works\NSCAM\obj/../LCD/lcd.c:290
			_lcd_writeCommand(p, ILI9341_RAMWR);
    3042:	02c00513          	li	a0,44
    3046:	ffffe0ef          	jal	ra,2044 <_lcd_writeCommand.constprop.5>
E:\Works\NSCAM\obj/../LCD/lcd.c:291
			for (uint16_t j = 0; j <= xe - xs; j++) {
    304a:	4c81                	li	s9,0
    304c:	415c0c33          	sub	s8,s8,s5
    3050:	019c5963          	bge	s8,s9,3062 <_lcd_tri+0x13c>
E:\Works\NSCAM\obj/../LCD/lcd.c:285
		for (uint16_t i = miny; i <= midy - miny; i++) {
    3054:	001d8793          	addi	a5,s11,1
    3058:	01079d93          	slli	s11,a5,0x10
    305c:	010ddd93          	srli	s11,s11,0x10
    3060:	aa35                	j	319c <_lcd_tri+0x276>
E:\Works\NSCAM\obj/../LCD/lcd.c:292
				_lcd_writeData16(p, p->foreColor);
    3062:	00ea5583          	lhu	a1,14(s4) # 8000000e <sensor_lcd_map+0x5ffdf60e>
E:\Works\NSCAM\obj/../LCD/lcd.c:291
			for (uint16_t j = 0; j <= xe - xs; j++) {
    3066:	0c85                	addi	s9,s9,1
E:\Works\NSCAM\obj/../LCD/lcd.c:292
				_lcd_writeData16(p, p->foreColor);
    3068:	8552                	mv	a0,s4
E:\Works\NSCAM\obj/../LCD/lcd.c:291
			for (uint16_t j = 0; j <= xe - xs; j++) {
    306a:	0cc2                	slli	s9,s9,0x10
E:\Works\NSCAM\obj/../LCD/lcd.c:292
				_lcd_writeData16(p, p->foreColor);
    306c:	904ff0ef          	jal	ra,2170 <_lcd_writeData16>
E:\Works\NSCAM\obj/../LCD/lcd.c:291
			for (uint16_t j = 0; j <= xe - xs; j++) {
    3070:	010cdc93          	srli	s9,s9,0x10
    3074:	bff1                	j	3050 <_lcd_tri+0x12a>
E:\Works\NSCAM\obj/../LCD/lcd.c:298
			xs = (i - miny) / k1 + minx;
    3076:	4792                	lw	a5,4(sp)
    3078:	40f40533          	sub	a0,s0,a5
    307c:	05f030ef          	jal	ra,68da <__floatsisf>
    3080:	85da                	mv	a1,s6
    3082:	569020ef          	jal	ra,5dea <__divsf3>
    3086:	89aa                	mv	s3,a0
    3088:	854a                	mv	a0,s2
    308a:	051030ef          	jal	ra,68da <__floatsisf>
    308e:	85aa                	mv	a1,a0
    3090:	854e                	mv	a0,s3
    3092:	1ef020ef          	jal	ra,5a80 <__addsf3>
    3096:	7ee030ef          	jal	ra,6884 <__fixunssfsi>
E:\Works\NSCAM\obj/../LCD/lcd.c:299
			xe = (i - midy) / k2 + midx;
    309a:	47a2                	lw	a5,8(sp)
E:\Works\NSCAM\obj/../LCD/lcd.c:298
			xs = (i - miny) / k1 + minx;
    309c:	01051d93          	slli	s11,a0,0x10
    30a0:	010ddd93          	srli	s11,s11,0x10
E:\Works\NSCAM\obj/../LCD/lcd.c:299
			xe = (i - midy) / k2 + midx;
    30a4:	40f40533          	sub	a0,s0,a5
    30a8:	033030ef          	jal	ra,68da <__floatsisf>
    30ac:	85e6                	mv	a1,s9
    30ae:	53d020ef          	jal	ra,5dea <__divsf3>
    30b2:	89aa                	mv	s3,a0
    30b4:	8526                	mv	a0,s1
    30b6:	025030ef          	jal	ra,68da <__floatsisf>
    30ba:	85aa                	mv	a1,a0
    30bc:	854e                	mv	a0,s3
    30be:	1c3020ef          	jal	ra,5a80 <__addsf3>
    30c2:	7c2030ef          	jal	ra,6884 <__fixunssfsi>
    30c6:	01051993          	slli	s3,a0,0x10
    30ca:	0109d993          	srli	s3,s3,0x10
E:\Works\NSCAM\obj/../LCD/lcd.c:300
			if (xe < xs) { tmp = xe; xe = xs; xs = tmp; }
    30ce:	01b9f563          	bgeu	s3,s11,30d8 <_lcd_tri+0x1b2>
    30d2:	87ee                	mv	a5,s11
    30d4:	8dce                	mv	s11,s3
    30d6:	89be                	mv	s3,a5
E:\Works\NSCAM\obj/../LCD/lcd.c:301
			_lcd_setPosition(p, xs, i, xe, i);
    30d8:	86ce                	mv	a3,s3
    30da:	8722                	mv	a4,s0
    30dc:	8622                	mv	a2,s0
    30de:	85ee                	mv	a1,s11
    30e0:	8552                	mv	a0,s4
    30e2:	ae0ff0ef          	jal	ra,23c2 <_lcd_setPosition>
E:\Works\NSCAM\obj/../LCD/lcd.c:302
			_lcd_writeCommand(p, ILI9341_RAMWR);
    30e6:	02c00513          	li	a0,44
    30ea:	f5bfe0ef          	jal	ra,2044 <_lcd_writeCommand.constprop.5>
E:\Works\NSCAM\obj/../LCD/lcd.c:303
			for (uint16_t j = 0; j <= xe - xs; j++) {
    30ee:	4c01                	li	s8,0
    30f0:	41b989b3          	sub	s3,s3,s11
    30f4:	0189d663          	bge	s3,s8,3100 <_lcd_tri+0x1da>
E:\Works\NSCAM\obj/../LCD/lcd.c:297
		for (uint16_t i = midy; i <= maxy - midy; i++) {
    30f8:	0405                	addi	s0,s0,1
    30fa:	0442                	slli	s0,s0,0x10
    30fc:	8041                	srli	s0,s0,0x10
    30fe:	a0c1                	j	31be <_lcd_tri+0x298>
E:\Works\NSCAM\obj/../LCD/lcd.c:304
				_lcd_writeData16(p, p->foreColor);
    3100:	00ea5583          	lhu	a1,14(s4)
E:\Works\NSCAM\obj/../LCD/lcd.c:303
			for (uint16_t j = 0; j <= xe - xs; j++) {
    3104:	0c05                	addi	s8,s8,1
E:\Works\NSCAM\obj/../LCD/lcd.c:304
				_lcd_writeData16(p, p->foreColor);
    3106:	8552                	mv	a0,s4
E:\Works\NSCAM\obj/../LCD/lcd.c:303
			for (uint16_t j = 0; j <= xe - xs; j++) {
    3108:	0c42                	slli	s8,s8,0x10
E:\Works\NSCAM\obj/../LCD/lcd.c:304
				_lcd_writeData16(p, p->foreColor);
    310a:	866ff0ef          	jal	ra,2170 <_lcd_writeData16>
E:\Works\NSCAM\obj/../LCD/lcd.c:303
			for (uint16_t j = 0; j <= xe - xs; j++) {
    310e:	010c5c13          	srli	s8,s8,0x10
    3112:	b7cd                	j	30f4 <_lcd_tri+0x1ce>
E:\Works\NSCAM\obj/../LCD/lcd.c:308
		_lcd_line(p, x1, y1, x2, y2);
    3114:	c0dff0ef          	jal	ra,2d20 <_lcd_line>
E:\Works\NSCAM\obj/../LCD/lcd.c:309
		_lcd_line(p, x2, y2, x3, y3);
    3118:	8722                	mv	a4,s0
    311a:	86a6                	mv	a3,s1
    311c:	864a                	mv	a2,s2
    311e:	85d6                	mv	a1,s5
    3120:	8552                	mv	a0,s4
    3122:	bffff0ef          	jal	ra,2d20 <_lcd_line>
E:\Works\NSCAM\obj/../LCD/lcd.c:310
		_lcd_line(p, x3, y3, x1, y1);
    3126:	8622                	mv	a2,s0
E:\Works\NSCAM\obj/../LCD/lcd.c:312
}
    3128:	4426                	lw	s0,72(sp)
    312a:	40b6                	lw	ra,76(sp)
    312c:	4906                	lw	s2,64(sp)
    312e:	5ad2                	lw	s5,52(sp)
    3130:	5bb2                	lw	s7,44(sp)
    3132:	5c22                	lw	s8,40(sp)
    3134:	5c92                	lw	s9,36(sp)
    3136:	5d02                	lw	s10,32(sp)
    3138:	4df2                	lw	s11,28(sp)
E:\Works\NSCAM\obj/../LCD/lcd.c:310
		_lcd_line(p, x3, y3, x1, y1);
    313a:	874e                	mv	a4,s3
    313c:	86da                	mv	a3,s6
E:\Works\NSCAM\obj/../LCD/lcd.c:312
}
    313e:	59f2                	lw	s3,60(sp)
    3140:	5b42                	lw	s6,48(sp)
E:\Works\NSCAM\obj/../LCD/lcd.c:310
		_lcd_line(p, x3, y3, x1, y1);
    3142:	85a6                	mv	a1,s1
    3144:	8552                	mv	a0,s4
E:\Works\NSCAM\obj/../LCD/lcd.c:312
}
    3146:	4496                	lw	s1,68(sp)
    3148:	5a62                	lw	s4,56(sp)
    314a:	6161                	addi	sp,sp,80
E:\Works\NSCAM\obj/../LCD/lcd.c:310
		_lcd_line(p, x3, y3, x1, y1);
    314c:	bd5ff06f          	j	2d20 <_lcd_line>
E:\Works\NSCAM\obj/../LCD/lcd.c:279
		uint16_t midx = (x1 == maxx) ? ((x2 == minx) ? x3 : x2) : ((x1 == minx) ? ((x2 == maxx) ? x3 : x2) : x1);
    3150:	8956                	mv	s2,s5
    3152:	013b0663          	beq	s6,s3,315e <_lcd_tri+0x238>
    3156:	e92b14e3          	bne	s6,s2,2fde <_lcd_tri+0xb8>
    315a:	e93a90e3          	bne	s5,s3,2fda <_lcd_tri+0xb4>
E:\Works\NSCAM\obj/../LCD/lcd.c:282
		k1 = (float)(maxy - miny) / (float)(maxx - minx);
    315e:	41bd0533          	sub	a0,s10,s11
    3162:	c26e                	sw	s11,4(sp)
    3164:	776030ef          	jal	ra,68da <__floatsisf>
    3168:	8b2a                	mv	s6,a0
    316a:	41298533          	sub	a0,s3,s2
    316e:	76c030ef          	jal	ra,68da <__floatsisf>
    3172:	85aa                	mv	a1,a0
    3174:	855a                	mv	a0,s6
    3176:	475020ef          	jal	ra,5dea <__divsf3>
E:\Works\NSCAM\obj/../LCD/lcd.c:284
		k2 = (float)(midy - miny) / (float)(midx - minx);
    317a:	41b40bb3          	sub	s7,s0,s11
E:\Works\NSCAM\obj/../LCD/lcd.c:282
		k1 = (float)(maxy - miny) / (float)(maxx - minx);
    317e:	8b2a                	mv	s6,a0
E:\Works\NSCAM\obj/../LCD/lcd.c:284
		k2 = (float)(midy - miny) / (float)(midx - minx);
    3180:	855e                	mv	a0,s7
    3182:	c422                	sw	s0,8(sp)
    3184:	756030ef          	jal	ra,68da <__floatsisf>
    3188:	8c2a                	mv	s8,a0
    318a:	41248533          	sub	a0,s1,s2
    318e:	74c030ef          	jal	ra,68da <__floatsisf>
    3192:	85aa                	mv	a1,a0
    3194:	8562                	mv	a0,s8
    3196:	455020ef          	jal	ra,5dea <__divsf3>
    319a:	c62a                	sw	a0,12(sp)
E:\Works\NSCAM\obj/../LCD/lcd.c:285
		for (uint16_t i = miny; i <= midy - miny; i++) {
    319c:	e5bbd3e3          	bge	s7,s11,2fe2 <_lcd_tri+0xbc>
E:\Works\NSCAM\obj/../LCD/lcd.c:296
		k2 = (float)(maxy - midy) / (float)(maxx - midx);
    31a0:	408d0d33          	sub	s10,s10,s0
    31a4:	856a                	mv	a0,s10
    31a6:	734030ef          	jal	ra,68da <__floatsisf>
    31aa:	8c2a                	mv	s8,a0
    31ac:	40998533          	sub	a0,s3,s1
    31b0:	72a030ef          	jal	ra,68da <__floatsisf>
    31b4:	85aa                	mv	a1,a0
    31b6:	8562                	mv	a0,s8
    31b8:	433020ef          	jal	ra,5dea <__divsf3>
    31bc:	8caa                	mv	s9,a0
E:\Works\NSCAM\obj/../LCD/lcd.c:297
		for (uint16_t i = midy; i <= maxy - midy; i++) {
    31be:	ea8d5ce3          	bge	s10,s0,3076 <_lcd_tri+0x150>
E:\Works\NSCAM\obj/../LCD/lcd.c:312
}
    31c2:	40b6                	lw	ra,76(sp)
    31c4:	4426                	lw	s0,72(sp)
    31c6:	4496                	lw	s1,68(sp)
    31c8:	4906                	lw	s2,64(sp)
    31ca:	59f2                	lw	s3,60(sp)
    31cc:	5a62                	lw	s4,56(sp)
    31ce:	5ad2                	lw	s5,52(sp)
    31d0:	5b42                	lw	s6,48(sp)
    31d2:	5bb2                	lw	s7,44(sp)
    31d4:	5c22                	lw	s8,40(sp)
    31d6:	5c92                	lw	s9,36(sp)
    31d8:	5d02                	lw	s10,32(sp)
    31da:	4df2                	lw	s11,28(sp)
    31dc:	6161                	addi	sp,sp,80
    31de:	8082                	ret
E:\Works\NSCAM\obj/../LCD/lcd.c:276
		uint16_t midy = (y1 == maxy) ? ((y2 == miny) ? y3 : y2) : ((y1 == miny) ? ((y2 == maxy) ? y3 : y2) : y1);
    31e0:	8dca                	mv	s11,s2
    31e2:	01a98663          	beq	s3,s10,31ee <_lcd_tri+0x2c8>
    31e6:	dbb99de3          	bne	s3,s11,2fa0 <_lcd_tri+0x7a>
    31ea:	dba919e3          	bne	s2,s10,2f9c <_lcd_tri+0x76>
E:\Works\NSCAM\obj/../LCD/lcd.c:277
		uint16_t maxx = (x1 > x2) ? ((x1 > x3) ? x1 : x3) : ((x1 > x3) ? (x2) : ((x2 > x3) ? x2 : x3));
    31ee:	db6afbe3          	bgeu	s5,s6,2fa4 <_lcd_tri+0x7e>
    31f2:	89da                	mv	s3,s6
    31f4:	da9b7de3          	bgeu	s6,s1,2fae <_lcd_tri+0x88>
    31f8:	89a6                	mv	s3,s1
    31fa:	bb55                	j	2fae <_lcd_tri+0x88>
E:\Works\NSCAM\obj/../LCD/lcd.c:278
		uint16_t minx = (x1 < x2) ? ((x1 < x3) ? x1 : x3) : ((x1 < x3) ? (x2) : ((x2 < x3) ? x2 : x3));
    31fc:	89d6                	mv	s3,s5
    31fe:	db5b6de3          	bltu	s6,s5,2fb8 <_lcd_tri+0x92>
    3202:	b3d1                	j	2fc6 <_lcd_tri+0xa0>
E:\Works\NSCAM\obj/../LCD/lcd.c:275
		uint16_t miny = (y1 < y2) ? ((y1 < y3) ? y1 : y3) : ((y1 < y3) ? (y2) : ((y2 < y3) ? y2 : y3));
    3204:	8d3a                	mv	s10,a4
    3206:	d6e669e3          	bltu	a2,a4,2f78 <_lcd_tri+0x52>
    320a:	bbb5                	j	2f86 <_lcd_tri+0x60>

0000320c <_lcd_rect>:
_lcd_rect():
E:\Works\NSCAM\obj/../LCD/lcd.c:314
void _lcd_rect(pLCD* p, uint16_t x1, uint16_t y1, uint16_t x2, uint16_t y2, uint8_t fill) {
    320c:	1101                	addi	sp,sp,-32
    320e:	cc22                	sw	s0,24(sp)
    3210:	ca26                	sw	s1,20(sp)
    3212:	c84a                	sw	s2,16(sp)
    3214:	c64e                	sw	s3,12(sp)
    3216:	c452                	sw	s4,8(sp)
    3218:	ce06                	sw	ra,28(sp)
    321a:	c256                	sw	s5,4(sp)
    321c:	842a                	mv	s0,a0
    321e:	8a2e                	mv	s4,a1
    3220:	8932                	mv	s2,a2
    3222:	89b6                	mv	s3,a3
    3224:	84ba                	mv	s1,a4
E:\Works\NSCAM\obj/../LCD/lcd.c:315
	if (fill) {
    3226:	c7c9                	beqz	a5,32b0 <_lcd_rect+0xa4>
E:\Works\NSCAM\obj/../LCD/lcd.c:316
		_lcd_setPosition(p, x1, y1, x2, y2);
    3228:	99aff0ef          	jal	ra,23c2 <_lcd_setPosition>
E:\Works\NSCAM\obj/../LCD/lcd.c:317
		_lcd_writeCommand(p, ILI9341_RAMWR);
    322c:	02c00513          	li	a0,44
    3230:	e15fe0ef          	jal	ra,2044 <_lcd_writeCommand.constprop.5>
E:\Works\NSCAM\obj/../LCD/lcd.c:319
		(_lcd_abs((uint16_t)x2 - (uint16_t)x1) + 1) * (_lcd_abs((uint16_t)y2 - (uint16_t)y1) + 1));
    3234:	41498533          	sub	a0,s3,s4
    3238:	6a2030ef          	jal	ra,68da <__floatsisf>
_lcd_abs():
E:\Works\NSCAM\obj/../LCD/lcd.c:236
	return v > 0 ? v : -v;
    323c:	00000593          	li	a1,0
_lcd_rect():
E:\Works\NSCAM\obj/../LCD/lcd.c:318
		_lcd_flashData16(p, p->foreColor,
    3240:	00e45a83          	lhu	s5,14(s0)
E:\Works\NSCAM\obj/../LCD/lcd.c:319
		(_lcd_abs((uint16_t)x2 - (uint16_t)x1) + 1) * (_lcd_abs((uint16_t)y2 - (uint16_t)y1) + 1));
    3244:	8a2a                	mv	s4,a0
_lcd_abs():
E:\Works\NSCAM\obj/../LCD/lcd.c:236
	return v > 0 ? v : -v;
    3246:	6b3020ef          	jal	ra,60f8 <__gesf2>
    324a:	00a04663          	bgtz	a0,3256 <_lcd_rect+0x4a>
    324e:	800007b7          	lui	a5,0x80000
    3252:	0147ca33          	xor	s4,a5,s4
_lcd_rect():
E:\Works\NSCAM\obj/../LCD/lcd.c:319
		(_lcd_abs((uint16_t)x2 - (uint16_t)x1) + 1) * (_lcd_abs((uint16_t)y2 - (uint16_t)y1) + 1));
    3256:	000079b7          	lui	s3,0x7
    325a:	5fc9a583          	lw	a1,1532(s3) # 75fc <_sbrk+0x26>
    325e:	8552                	mv	a0,s4
    3260:	021020ef          	jal	ra,5a80 <__addsf3>
    3264:	8a2a                	mv	s4,a0
    3266:	41248533          	sub	a0,s1,s2
    326a:	670030ef          	jal	ra,68da <__floatsisf>
_lcd_abs():
E:\Works\NSCAM\obj/../LCD/lcd.c:236
	return v > 0 ? v : -v;
    326e:	00000593          	li	a1,0
_lcd_rect():
E:\Works\NSCAM\obj/../LCD/lcd.c:319
		(_lcd_abs((uint16_t)x2 - (uint16_t)x1) + 1) * (_lcd_abs((uint16_t)y2 - (uint16_t)y1) + 1));
    3272:	84aa                	mv	s1,a0
_lcd_abs():
E:\Works\NSCAM\obj/../LCD/lcd.c:236
	return v > 0 ? v : -v;
    3274:	685020ef          	jal	ra,60f8 <__gesf2>
    3278:	00a04563          	bgtz	a0,3282 <_lcd_rect+0x76>
    327c:	800007b7          	lui	a5,0x80000
    3280:	8cbd                	xor	s1,s1,a5
_lcd_rect():
E:\Works\NSCAM\obj/../LCD/lcd.c:319
		(_lcd_abs((uint16_t)x2 - (uint16_t)x1) + 1) * (_lcd_abs((uint16_t)y2 - (uint16_t)y1) + 1));
    3282:	5fc9a583          	lw	a1,1532(s3)
    3286:	8526                	mv	a0,s1
    3288:	7f8020ef          	jal	ra,5a80 <__addsf3>
    328c:	85d2                	mv	a1,s4
    328e:	77d020ef          	jal	ra,620a <__mulsf3>
E:\Works\NSCAM\obj/../LCD/lcd.c:318
		_lcd_flashData16(p, p->foreColor,
    3292:	5f2030ef          	jal	ra,6884 <__fixunssfsi>
    3296:	862a                	mv	a2,a0
    3298:	8522                	mv	a0,s0
E:\Works\NSCAM\obj/../LCD/lcd.c:326
}
    329a:	4462                	lw	s0,24(sp)
    329c:	40f2                	lw	ra,28(sp)
    329e:	44d2                	lw	s1,20(sp)
    32a0:	4942                	lw	s2,16(sp)
    32a2:	49b2                	lw	s3,12(sp)
    32a4:	4a22                	lw	s4,8(sp)
E:\Works\NSCAM\obj/../LCD/lcd.c:318
		_lcd_flashData16(p, p->foreColor,
    32a6:	85d6                	mv	a1,s5
E:\Works\NSCAM\obj/../LCD/lcd.c:326
}
    32a8:	4a92                	lw	s5,4(sp)
    32aa:	6105                	addi	sp,sp,32
E:\Works\NSCAM\obj/../LCD/lcd.c:318
		_lcd_flashData16(p, p->foreColor,
    32ac:	838ff06f          	j	22e4 <_lcd_flashData16>
E:\Works\NSCAM\obj/../LCD/lcd.c:321
		_lcd_line(p, x1, y1, x2, y1);
    32b0:	8732                	mv	a4,a2
    32b2:	a6fff0ef          	jal	ra,2d20 <_lcd_line>
E:\Works\NSCAM\obj/../LCD/lcd.c:322
		_lcd_line(p, x2, y1, x2, y2);
    32b6:	8726                	mv	a4,s1
    32b8:	86ce                	mv	a3,s3
    32ba:	864a                	mv	a2,s2
    32bc:	85ce                	mv	a1,s3
    32be:	8522                	mv	a0,s0
    32c0:	a61ff0ef          	jal	ra,2d20 <_lcd_line>
E:\Works\NSCAM\obj/../LCD/lcd.c:323
		_lcd_line(p, x2, y2, x1, y2);
    32c4:	8726                	mv	a4,s1
    32c6:	86d2                	mv	a3,s4
    32c8:	8626                	mv	a2,s1
    32ca:	85ce                	mv	a1,s3
    32cc:	8522                	mv	a0,s0
    32ce:	a53ff0ef          	jal	ra,2d20 <_lcd_line>
E:\Works\NSCAM\obj/../LCD/lcd.c:324
		_lcd_line(p, x1, y2, x1, y1);
    32d2:	8522                	mv	a0,s0
E:\Works\NSCAM\obj/../LCD/lcd.c:326
}
    32d4:	4462                	lw	s0,24(sp)
    32d6:	40f2                	lw	ra,28(sp)
    32d8:	49b2                	lw	s3,12(sp)
    32da:	4a92                	lw	s5,4(sp)
E:\Works\NSCAM\obj/../LCD/lcd.c:324
		_lcd_line(p, x1, y2, x1, y1);
    32dc:	874a                	mv	a4,s2
    32de:	86d2                	mv	a3,s4
E:\Works\NSCAM\obj/../LCD/lcd.c:326
}
    32e0:	4942                	lw	s2,16(sp)
E:\Works\NSCAM\obj/../LCD/lcd.c:324
		_lcd_line(p, x1, y2, x1, y1);
    32e2:	8626                	mv	a2,s1
    32e4:	85d2                	mv	a1,s4
E:\Works\NSCAM\obj/../LCD/lcd.c:326
}
    32e6:	44d2                	lw	s1,20(sp)
    32e8:	4a22                	lw	s4,8(sp)
    32ea:	6105                	addi	sp,sp,32
E:\Works\NSCAM\obj/../LCD/lcd.c:324
		_lcd_line(p, x1, y2, x1, y1);
    32ec:	a35ff06f          	j	2d20 <_lcd_line>

000032f0 <rgb_565>:
rgb_565():
E:\Works\NSCAM\obj/../LCD/lcd.c:214
	c <<= 6;
    32f0:	00d55793          	srli	a5,a0,0xd
E:\Works\NSCAM\obj/../LCD/lcd.c:215
	c |= (((color & 0x00FF00) >> 8 ) & 0xFF) >> 2;
    32f4:	00a55713          	srli	a4,a0,0xa
    32f8:	03f77713          	andi	a4,a4,63
E:\Works\NSCAM\obj/../LCD/lcd.c:214
	c <<= 6;
    32fc:	7c07f793          	andi	a5,a5,1984
E:\Works\NSCAM\obj/../LCD/lcd.c:215
	c |= (((color & 0x00FF00) >> 8 ) & 0xFF) >> 2;
    3300:	8fd9                	or	a5,a5,a4
E:\Works\NSCAM\obj/../LCD/lcd.c:217
	c |= (((color & 0x0000FF)      ) & 0xFF) >> 3;
    3302:	810d                	srli	a0,a0,0x3
    3304:	897d                	andi	a0,a0,31
E:\Works\NSCAM\obj/../LCD/lcd.c:216
	c <<= 5;
    3306:	0796                	slli	a5,a5,0x5
E:\Works\NSCAM\obj/../LCD/lcd.c:217
	c |= (((color & 0x0000FF)      ) & 0xFF) >> 3;
    3308:	8fc9                	or	a5,a5,a0
E:\Works\NSCAM\obj/../LCD/lcd.c:219
	return c >> 8 | c << 8;
    330a:	00879513          	slli	a0,a5,0x8
    330e:	83a1                	srli	a5,a5,0x8
    3310:	8d5d                	or	a0,a0,a5
E:\Works\NSCAM\obj/../LCD/lcd.c:220
}
    3312:	0542                	slli	a0,a0,0x10
    3314:	8141                	srli	a0,a0,0x10
    3316:	8082                	ret

00003318 <_lcd_back_color>:
_lcd_back_color():
E:\Works\NSCAM\obj/../LCD/lcd.c:222
void _lcd_back_color(pLCD* p, uint32_t color) { p->backColor = rgb_565(color); }
    3318:	1141                	addi	sp,sp,-16
    331a:	c422                	sw	s0,8(sp)
    331c:	842a                	mv	s0,a0
    331e:	852e                	mv	a0,a1
    3320:	c606                	sw	ra,12(sp)
    3322:	fcfff0ef          	jal	ra,32f0 <rgb_565>
    3326:	00a41623          	sh	a0,12(s0)
    332a:	40b2                	lw	ra,12(sp)
    332c:	4422                	lw	s0,8(sp)
    332e:	0141                	addi	sp,sp,16
    3330:	8082                	ret

00003332 <_lcd_fore_color>:
_lcd_fore_color():
E:\Works\NSCAM\obj/../LCD/lcd.c:224
void _lcd_fore_color(pLCD* p, uint32_t color) { p->foreColor = rgb_565(color); }
    3332:	1141                	addi	sp,sp,-16
    3334:	c422                	sw	s0,8(sp)
    3336:	842a                	mv	s0,a0
    3338:	852e                	mv	a0,a1
    333a:	c606                	sw	ra,12(sp)
    333c:	fb5ff0ef          	jal	ra,32f0 <rgb_565>
    3340:	00a41723          	sh	a0,14(s0)
    3344:	40b2                	lw	ra,12(sp)
    3346:	4422                	lw	s0,8(sp)
    3348:	0141                	addi	sp,sp,16
    334a:	8082                	ret

0000334c <_lcd_bitmapt>:
_lcd_bitmapt():
E:\Works\NSCAM\obj/../LCD/lcd.c:358
void _lcd_bitmapt(pLCD* p, uint16_t x, uint16_t y, uint16_t w, uint16_t h, uint32_t trans, uint16_t* data) {
    334c:	7139                	addi	sp,sp,-64
    334e:	d64e                	sw	s3,44(sp)
    3350:	d256                	sw	s5,36(sp)
    3352:	89ba                	mv	s3,a4
    3354:	8ab6                	mv	s5,a3
E:\Works\NSCAM\obj/../LCD/lcd.c:359
	_lcd_setPosition(p, x, y, x + w - 1, y + h - 1);
    3356:	177d                	addi	a4,a4,-1
    3358:	16fd                	addi	a3,a3,-1
    335a:	9732                	add	a4,a4,a2
    335c:	96ae                	add	a3,a3,a1
    335e:	0742                	slli	a4,a4,0x10
    3360:	06c2                	slli	a3,a3,0x10
    3362:	8341                	srli	a4,a4,0x10
    3364:	82c1                	srli	a3,a3,0x10
E:\Works\NSCAM\obj/../LCD/lcd.c:358
void _lcd_bitmapt(pLCD* p, uint16_t x, uint16_t y, uint16_t w, uint16_t h, uint32_t trans, uint16_t* data) {
    3366:	de06                	sw	ra,60(sp)
    3368:	c63e                	sw	a5,12(sp)
    336a:	dc22                	sw	s0,56(sp)
    336c:	da26                	sw	s1,52(sp)
    336e:	d05a                	sw	s6,32(sp)
    3370:	84c2                	mv	s1,a6
    3372:	ce5e                	sw	s7,28(sp)
    3374:	cc62                	sw	s8,24(sp)
    3376:	8b2a                	mv	s6,a0
    3378:	d84a                	sw	s2,48(sp)
    337a:	d452                	sw	s4,40(sp)
E:\Works\NSCAM\obj/../LCD/lcd.c:359
	_lcd_setPosition(p, x, y, x + w - 1, y + h - 1);
    337c:	846ff0ef          	jal	ra,23c2 <_lcd_setPosition>
E:\Works\NSCAM\obj/../LCD/lcd.c:360
	_lcd_writeCommand(p, ILI9341_RAMWR);
    3380:	02c00513          	li	a0,44
    3384:	cc1fe0ef          	jal	ra,2044 <_lcd_writeCommand.constprop.5>
E:\Works\NSCAM\obj/../LCD/lcd.c:361
	uint32_t c = 0; uint32_t colort = rgb_565(trans & 0xFFFFFF);
    3388:	47b2                	lw	a5,12(sp)
    338a:	00199c13          	slli	s8,s3,0x1
E:\Works\NSCAM\obj/../LCD/lcd.c:362
	for (uint16_t i = 0; i < w; i++) {
    338e:	4401                	li	s0,0
E:\Works\NSCAM\obj/../LCD/lcd.c:361
	uint32_t c = 0; uint32_t colort = rgb_565(trans & 0xFFFFFF);
    3390:	07a2                	slli	a5,a5,0x8
    3392:	0087d513          	srli	a0,a5,0x8
    3396:	f5bff0ef          	jal	ra,32f0 <rgb_565>
    339a:	8baa                	mv	s7,a0
E:\Works\NSCAM\obj/../LCD/lcd.c:362 (discriminator 1)
	for (uint16_t i = 0; i < w; i++) {
    339c:	05541163          	bne	s0,s5,33de <_lcd_bitmapt+0x92>
E:\Works\NSCAM\obj/../LCD/lcd.c:368
}
    33a0:	50f2                	lw	ra,60(sp)
    33a2:	5462                	lw	s0,56(sp)
    33a4:	54d2                	lw	s1,52(sp)
    33a6:	5942                	lw	s2,48(sp)
    33a8:	59b2                	lw	s3,44(sp)
    33aa:	5a22                	lw	s4,40(sp)
    33ac:	5a92                	lw	s5,36(sp)
    33ae:	5b02                	lw	s6,32(sp)
    33b0:	4bf2                	lw	s7,28(sp)
    33b2:	4c62                	lw	s8,24(sp)
    33b4:	6121                	addi	sp,sp,64
    33b6:	8082                	ret
E:\Works\NSCAM\obj/../LCD/lcd.c:364
			if (data[c] != colort) _lcd_writeData16(p, data[c]);
    33b8:	000a5583          	lhu	a1,0(s4)
    33bc:	00bb8563          	beq	s7,a1,33c6 <_lcd_bitmapt+0x7a>
E:\Works\NSCAM\obj/../LCD/lcd.c:364 (discriminator 1)
    33c0:	855a                	mv	a0,s6
    33c2:	daffe0ef          	jal	ra,2170 <_lcd_writeData16>
E:\Works\NSCAM\obj/../LCD/lcd.c:363 (discriminator 2)
		for (uint16_t j = 0; j < h; j++) {
    33c6:	0905                	addi	s2,s2,1
    33c8:	0942                	slli	s2,s2,0x10
    33ca:	01095913          	srli	s2,s2,0x10
    33ce:	0a09                	addi	s4,s4,2
E:\Works\NSCAM\obj/../LCD/lcd.c:363 (discriminator 1)
    33d0:	ff3914e3          	bne	s2,s3,33b8 <_lcd_bitmapt+0x6c>
E:\Works\NSCAM\obj/../LCD/lcd.c:362 (discriminator 2)
	for (uint16_t i = 0; i < w; i++) {
    33d4:	0405                	addi	s0,s0,1
    33d6:	0442                	slli	s0,s0,0x10
    33d8:	8041                	srli	s0,s0,0x10
    33da:	94e2                	add	s1,s1,s8
    33dc:	b7c1                	j	339c <_lcd_bitmapt+0x50>
    33de:	8a26                	mv	s4,s1
E:\Works\NSCAM\obj/../LCD/lcd.c:363
		for (uint16_t j = 0; j < h; j++) {
    33e0:	4901                	li	s2,0
    33e2:	b7fd                	j	33d0 <_lcd_bitmapt+0x84>

000033e4 <_lcd_bitmaptc>:
_lcd_bitmaptc():
E:\Works\NSCAM\obj/../LCD/lcd.c:370
void _lcd_bitmaptc(pLCD* p, uint16_t x, uint16_t y, uint16_t w, uint16_t h, uint32_t trans, uint16_t* data) {
    33e4:	7139                	addi	sp,sp,-64
E:\Works\NSCAM\obj/../LCD/lcd.c:371
	_lcd_setPosition(p, x - w / 2, y - h / 2, x + w / 2 - 1, y + h / 2 - 1);
    33e6:	00175893          	srli	a7,a4,0x1
E:\Works\NSCAM\obj/../LCD/lcd.c:370
void _lcd_bitmaptc(pLCD* p, uint16_t x, uint16_t y, uint16_t w, uint16_t h, uint32_t trans, uint16_t* data) {
    33ea:	da26                	sw	s1,52(sp)
    33ec:	d64e                	sw	s3,44(sp)
    33ee:	d256                	sw	s5,36(sp)
    33f0:	89b6                	mv	s3,a3
    33f2:	8aba                	mv	s5,a4
    33f4:	84c2                	mv	s1,a6
E:\Works\NSCAM\obj/../LCD/lcd.c:371
	_lcd_setPosition(p, x - w / 2, y - h / 2, x + w / 2 - 1, y + h / 2 - 1);
    33f6:	fff60713          	addi	a4,a2,-1
    33fa:	0016d813          	srli	a6,a3,0x1
    33fe:	fff58693          	addi	a3,a1,-1
    3402:	9746                	add	a4,a4,a7
    3404:	96c2                	add	a3,a3,a6
    3406:	41160633          	sub	a2,a2,a7
    340a:	410585b3          	sub	a1,a1,a6
    340e:	0742                	slli	a4,a4,0x10
    3410:	06c2                	slli	a3,a3,0x10
    3412:	0642                	slli	a2,a2,0x10
    3414:	05c2                	slli	a1,a1,0x10
    3416:	8341                	srli	a4,a4,0x10
    3418:	82c1                	srli	a3,a3,0x10
    341a:	8241                	srli	a2,a2,0x10
    341c:	81c1                	srli	a1,a1,0x10
E:\Works\NSCAM\obj/../LCD/lcd.c:370
void _lcd_bitmaptc(pLCD* p, uint16_t x, uint16_t y, uint16_t w, uint16_t h, uint32_t trans, uint16_t* data) {
    341e:	de06                	sw	ra,60(sp)
    3420:	c63e                	sw	a5,12(sp)
    3422:	dc22                	sw	s0,56(sp)
    3424:	d452                	sw	s4,40(sp)
    3426:	ce5e                	sw	s7,28(sp)
    3428:	cc62                	sw	s8,24(sp)
    342a:	8a2a                	mv	s4,a0
    342c:	d84a                	sw	s2,48(sp)
    342e:	d05a                	sw	s6,32(sp)
E:\Works\NSCAM\obj/../LCD/lcd.c:371
	_lcd_setPosition(p, x - w / 2, y - h / 2, x + w / 2 - 1, y + h / 2 - 1);
    3430:	f93fe0ef          	jal	ra,23c2 <_lcd_setPosition>
E:\Works\NSCAM\obj/../LCD/lcd.c:372
	_lcd_writeCommand(p, ILI9341_RAMWR);
    3434:	02c00513          	li	a0,44
    3438:	c0dfe0ef          	jal	ra,2044 <_lcd_writeCommand.constprop.5>
E:\Works\NSCAM\obj/../LCD/lcd.c:373
	uint32_t c = 0; uint32_t colort = rgb_565(trans & 0xFFFFFF);
    343c:	47b2                	lw	a5,12(sp)
    343e:	001a9c13          	slli	s8,s5,0x1
E:\Works\NSCAM\obj/../LCD/lcd.c:374
	for (uint16_t i = 0; i < w; i++) {
    3442:	4401                	li	s0,0
E:\Works\NSCAM\obj/../LCD/lcd.c:373
	uint32_t c = 0; uint32_t colort = rgb_565(trans & 0xFFFFFF);
    3444:	07a2                	slli	a5,a5,0x8
    3446:	0087d513          	srli	a0,a5,0x8
    344a:	ea7ff0ef          	jal	ra,32f0 <rgb_565>
    344e:	8baa                	mv	s7,a0
E:\Works\NSCAM\obj/../LCD/lcd.c:374 (discriminator 1)
	for (uint16_t i = 0; i < w; i++) {
    3450:	05341163          	bne	s0,s3,3492 <_lcd_bitmaptc+0xae>
E:\Works\NSCAM\obj/../LCD/lcd.c:380
}
    3454:	50f2                	lw	ra,60(sp)
    3456:	5462                	lw	s0,56(sp)
    3458:	54d2                	lw	s1,52(sp)
    345a:	5942                	lw	s2,48(sp)
    345c:	59b2                	lw	s3,44(sp)
    345e:	5a22                	lw	s4,40(sp)
    3460:	5a92                	lw	s5,36(sp)
    3462:	5b02                	lw	s6,32(sp)
    3464:	4bf2                	lw	s7,28(sp)
    3466:	4c62                	lw	s8,24(sp)
    3468:	6121                	addi	sp,sp,64
    346a:	8082                	ret
E:\Works\NSCAM\obj/../LCD/lcd.c:376
			if (data[c] != colort) _lcd_writeData16(p, data[c]);
    346c:	000b5583          	lhu	a1,0(s6) # 80000000 <sensor_lcd_map+0x5ffdf600>
    3470:	00bb8563          	beq	s7,a1,347a <_lcd_bitmaptc+0x96>
E:\Works\NSCAM\obj/../LCD/lcd.c:376 (discriminator 1)
    3474:	8552                	mv	a0,s4
    3476:	cfbfe0ef          	jal	ra,2170 <_lcd_writeData16>
E:\Works\NSCAM\obj/../LCD/lcd.c:375 (discriminator 2)
		for (uint16_t j = 0; j < h; j++) {
    347a:	0905                	addi	s2,s2,1
    347c:	0942                	slli	s2,s2,0x10
    347e:	01095913          	srli	s2,s2,0x10
    3482:	0b09                	addi	s6,s6,2
E:\Works\NSCAM\obj/../LCD/lcd.c:375 (discriminator 1)
    3484:	ff5914e3          	bne	s2,s5,346c <_lcd_bitmaptc+0x88>
E:\Works\NSCAM\obj/../LCD/lcd.c:374 (discriminator 2)
	for (uint16_t i = 0; i < w; i++) {
    3488:	0405                	addi	s0,s0,1
    348a:	0442                	slli	s0,s0,0x10
    348c:	8041                	srli	s0,s0,0x10
    348e:	94e2                	add	s1,s1,s8
    3490:	b7c1                	j	3450 <_lcd_bitmaptc+0x6c>
    3492:	8b26                	mv	s6,s1
E:\Works\NSCAM\obj/../LCD/lcd.c:375
		for (uint16_t j = 0; j < h; j++) {
    3494:	4901                	li	s2,0
    3496:	b7fd                	j	3484 <_lcd_bitmaptc+0xa0>

00003498 <_lcd_printa_>:
_lcd_printa_():
E:\Works\NSCAM\obj/../LCD/lcd.c:472
	if (p->Font == Big) {
    3498:	4518                	lw	a4,8(a0)
E:\Works\NSCAM\obj/../LCD/lcd.c:470
void _lcd_printa_(pLCD* p, char* string) {
    349a:	1101                	addi	sp,sp,-32
    349c:	cc22                	sw	s0,24(sp)
    349e:	ca26                	sw	s1,20(sp)
    34a0:	c84a                	sw	s2,16(sp)
    34a2:	c64e                	sw	s3,12(sp)
    34a4:	ce06                	sw	ra,28(sp)
    34a6:	c452                	sw	s4,8(sp)
    34a8:	c256                	sw	s5,4(sp)
    34aa:	c05a                	sw	s6,0(sp)
E:\Works\NSCAM\obj/../LCD/lcd.c:472
	if (p->Font == Big) {
    34ac:	4789                	li	a5,2
E:\Works\NSCAM\obj/../LCD/lcd.c:470
void _lcd_printa_(pLCD* p, char* string) {
    34ae:	842a                	mv	s0,a0
E:\Works\NSCAM\obj/../LCD/lcd.c:472
	if (p->Font == Big) {
    34b0:	84ae                	mv	s1,a1
E:\Works\NSCAM\obj/../LCD/lcd.c:479
			if (string[i] == '\n') {
    34b2:	4929                	li	s2,10
E:\Works\NSCAM\obj/../LCD/lcd.c:485
			if (string[i] == 0x08) {
    34b4:	49a1                	li	s3,8
E:\Works\NSCAM\obj/../LCD/lcd.c:472
	if (p->Font == Big) {
    34b6:	02f70363          	beq	a4,a5,34dc <_lcd_printa_+0x44>
E:\Works\NSCAM\obj/../LCD/lcd.c:529
			p->buffer[p->ptrY / 8][p->ptrX / 6] = string[i];
    34ba:	4a19                	li	s4,6
    34bc:	02800a93          	li	s5,40
E:\Works\NSCAM\obj/../LCD/lcd.c:520
				if (p->ptrX >= 6) p->ptrX -= 6;
    34c0:	4b15                	li	s6,5
E:\Works\NSCAM\obj/../LCD/lcd.c:506
		while (string[i] != '\0') {
    34c2:	00048703          	lb	a4,0(s1)
    34c6:	01445783          	lhu	a5,20(s0)
    34ca:	10071263          	bnez	a4,35ce <_lcd_printa_+0x136>
E:\Works\NSCAM\obj/../LCD/lcd.c:537 (discriminator 1)
		if (string[i] == '\0') p->buffer[p->ptrY / 8][p->ptrX / 6] = string[i];
    34ce:	01245703          	lhu	a4,18(s0)
    34d2:	4699                	li	a3,6
    34d4:	838d                	srli	a5,a5,0x3
    34d6:	02d75733          	divu	a4,a4,a3
    34da:	a829                	j	34f4 <_lcd_printa_+0x5c>
E:\Works\NSCAM\obj/../LCD/lcd.c:496
			p->buffer[p->ptrY / 16][p->ptrX / 8] = string[i];
    34dc:	02800a13          	li	s4,40
E:\Works\NSCAM\obj/../LCD/lcd.c:487
				if (p->ptrX >= 8) p->ptrX -= 8;
    34e0:	4a9d                	li	s5,7
E:\Works\NSCAM\obj/../LCD/lcd.c:473
		while (string[i] != '\0') {
    34e2:	00048703          	lb	a4,0(s1)
    34e6:	01445783          	lhu	a5,20(s0)
    34ea:	e71d                	bnez	a4,3518 <_lcd_printa_+0x80>
E:\Works\NSCAM\obj/../LCD/lcd.c:504 (discriminator 1)
		if (string[i] == '\0') p->buffer[p->ptrY / 16][p->ptrX / 8] = string[i];
    34ec:	01245703          	lhu	a4,18(s0)
    34f0:	8391                	srli	a5,a5,0x4
    34f2:	830d                	srli	a4,a4,0x3
E:\Works\NSCAM\obj/../LCD/lcd.c:537 (discriminator 1)
		if (string[i] == '\0') p->buffer[p->ptrY / 8][p->ptrX / 6] = string[i];
    34f4:	02800693          	li	a3,40
    34f8:	02d787b3          	mul	a5,a5,a3
    34fc:	943e                	add	s0,s0,a5
    34fe:	943a                	add	s0,s0,a4
    3500:	00040b23          	sb	zero,22(s0)
E:\Works\NSCAM\obj/../LCD/lcd.c:539 (discriminator 1)
}
    3504:	40f2                	lw	ra,28(sp)
    3506:	4462                	lw	s0,24(sp)
    3508:	44d2                	lw	s1,20(sp)
    350a:	4942                	lw	s2,16(sp)
    350c:	49b2                	lw	s3,12(sp)
    350e:	4a22                	lw	s4,8(sp)
    3510:	4a92                	lw	s5,4(sp)
    3512:	4b02                	lw	s6,0(sp)
    3514:	6105                	addi	sp,sp,32
    3516:	8082                	ret
E:\Works\NSCAM\obj/../LCD/lcd.c:474
			if (p->ptrY > p->height - 16) {
    3518:	00445703          	lhu	a4,4(s0)
    351c:	ff170693          	addi	a3,a4,-15 # 40000ff1 <sensor_lcd_map+0x1ffe05f1>
    3520:	00d7cb63          	blt	a5,a3,3536 <_lcd_printa_+0x9e>
E:\Works\NSCAM\obj/../LCD/lcd.c:476
				p->ptrY = p->height - 16;
    3524:	1741                	addi	a4,a4,-16
E:\Works\NSCAM\obj/../LCD/lcd.c:475
				p->ptrX = 0;
    3526:	00041923          	sh	zero,18(s0)
E:\Works\NSCAM\obj/../LCD/lcd.c:476
				p->ptrY = p->height - 16;
    352a:	00e41a23          	sh	a4,20(s0)
E:\Works\NSCAM\obj/../LCD/lcd.c:477
				_lcd_scroll(p, 1);
    352e:	4585                	li	a1,1
    3530:	8522                	mv	a0,s0
    3532:	e9cff0ef          	jal	ra,2bce <_lcd_scroll>
E:\Works\NSCAM\obj/../LCD/lcd.c:479
			if (string[i] == '\n') {
    3536:	00048683          	lb	a3,0(s1)
    353a:	01445603          	lhu	a2,20(s0)
    353e:	01269963          	bne	a3,s2,3550 <_lcd_printa_+0xb8>
E:\Works\NSCAM\obj/../LCD/lcd.c:482
				p->ptrY += 16;
    3542:	0641                	addi	a2,a2,16
E:\Works\NSCAM\obj/../LCD/lcd.c:481
				p->ptrX = 0;
    3544:	00041923          	sh	zero,18(s0)
E:\Works\NSCAM\obj/../LCD/lcd.c:482
				p->ptrY += 16;
    3548:	00c41a23          	sh	a2,20(s0)
E:\Works\NSCAM\obj/../LCD/lcd.c:483
				continue;
    354c:	0485                	addi	s1,s1,1
    354e:	bf51                	j	34e2 <_lcd_printa_+0x4a>
E:\Works\NSCAM\obj/../LCD/lcd.c:485
			if (string[i] == 0x08) {
    3550:	01245583          	lhu	a1,18(s0)
    3554:	03369a63          	bne	a3,s3,3588 <_lcd_printa_+0xf0>
E:\Works\NSCAM\obj/../LCD/lcd.c:487
				if (p->ptrX >= 8) p->ptrX -= 8;
    3558:	00baff63          	bgeu	s5,a1,3576 <_lcd_printa_+0xde>
E:\Works\NSCAM\obj/../LCD/lcd.c:487 (discriminator 1)
    355c:	15e1                	addi	a1,a1,-8
    355e:	00b41923          	sh	a1,18(s0)
E:\Works\NSCAM\obj/../LCD/lcd.c:492
				_lcd_draw(p, p->ptrX, p->ptrY, ' ');
    3562:	01445603          	lhu	a2,20(s0)
    3566:	01245583          	lhu	a1,18(s0)
    356a:	02000693          	li	a3,32
    356e:	8522                	mv	a0,s0
    3570:	abeff0ef          	jal	ra,282e <_lcd_draw>
E:\Works\NSCAM\obj/../LCD/lcd.c:493
				continue;
    3574:	bfe1                	j	354c <_lcd_printa_+0xb4>
E:\Works\NSCAM\obj/../LCD/lcd.c:489
					p->ptrX = p->width - 8;
    3576:	00245783          	lhu	a5,2(s0)
E:\Works\NSCAM\obj/../LCD/lcd.c:490
					p->ptrY -= 16;
    357a:	1641                	addi	a2,a2,-16
    357c:	00c41a23          	sh	a2,20(s0)
E:\Works\NSCAM\obj/../LCD/lcd.c:489
					p->ptrX = p->width - 8;
    3580:	17e1                	addi	a5,a5,-8
    3582:	00f41923          	sh	a5,18(s0)
E:\Works\NSCAM\obj/../LCD/lcd.c:490
					p->ptrY -= 16;
    3586:	bff1                	j	3562 <_lcd_printa_+0xca>
E:\Works\NSCAM\obj/../LCD/lcd.c:495
			_lcd_draw(p, p->ptrX, p->ptrY, string[i]);
    3588:	8522                	mv	a0,s0
    358a:	aa4ff0ef          	jal	ra,282e <_lcd_draw>
E:\Works\NSCAM\obj/../LCD/lcd.c:496
			p->buffer[p->ptrY / 16][p->ptrX / 8] = string[i];
    358e:	01445683          	lhu	a3,20(s0)
    3592:	01245783          	lhu	a5,18(s0)
    3596:	00048603          	lb	a2,0(s1)
    359a:	0046d713          	srli	a4,a3,0x4
    359e:	03470733          	mul	a4,a4,s4
    35a2:	0037d593          	srli	a1,a5,0x3
E:\Works\NSCAM\obj/../LCD/lcd.c:497
			p->ptrX += 8;
    35a6:	07a1                	addi	a5,a5,8
    35a8:	07c2                	slli	a5,a5,0x10
    35aa:	83c1                	srli	a5,a5,0x10
E:\Works\NSCAM\obj/../LCD/lcd.c:496
			p->buffer[p->ptrY / 16][p->ptrX / 8] = string[i];
    35ac:	9722                	add	a4,a4,s0
    35ae:	972e                	add	a4,a4,a1
    35b0:	00c70b23          	sb	a2,22(a4)
E:\Works\NSCAM\obj/../LCD/lcd.c:498
			if (p->ptrX > p->width - 8) {
    35b4:	00245703          	lhu	a4,2(s0)
E:\Works\NSCAM\obj/../LCD/lcd.c:497
			p->ptrX += 8;
    35b8:	00f41923          	sh	a5,18(s0)
E:\Works\NSCAM\obj/../LCD/lcd.c:498
			if (p->ptrX > p->width - 8) {
    35bc:	1765                	addi	a4,a4,-7
    35be:	f8e7c7e3          	blt	a5,a4,354c <_lcd_printa_+0xb4>
E:\Works\NSCAM\obj/../LCD/lcd.c:500
				p->ptrY += 16;
    35c2:	06c1                	addi	a3,a3,16
E:\Works\NSCAM\obj/../LCD/lcd.c:499
				p->ptrX = 0;
    35c4:	00041923          	sh	zero,18(s0)
E:\Works\NSCAM\obj/../LCD/lcd.c:500
				p->ptrY += 16;
    35c8:	00d41a23          	sh	a3,20(s0)
E:\Works\NSCAM\obj/../LCD/lcd.c:502
			i++;
    35cc:	b741                	j	354c <_lcd_printa_+0xb4>
E:\Works\NSCAM\obj/../LCD/lcd.c:507
			if (p->ptrY > p->height - 8) {
    35ce:	00445703          	lhu	a4,4(s0)
    35d2:	ff970693          	addi	a3,a4,-7
    35d6:	00d7cb63          	blt	a5,a3,35ec <_lcd_printa_+0x154>
E:\Works\NSCAM\obj/../LCD/lcd.c:509
				p->ptrY = p->height - 8;
    35da:	1761                	addi	a4,a4,-8
E:\Works\NSCAM\obj/../LCD/lcd.c:508
				p->ptrX = 0;
    35dc:	00041923          	sh	zero,18(s0)
E:\Works\NSCAM\obj/../LCD/lcd.c:509
				p->ptrY = p->height - 8;
    35e0:	00e41a23          	sh	a4,20(s0)
E:\Works\NSCAM\obj/../LCD/lcd.c:510
				_lcd_scroll(p, 1);
    35e4:	4585                	li	a1,1
    35e6:	8522                	mv	a0,s0
    35e8:	de6ff0ef          	jal	ra,2bce <_lcd_scroll>
E:\Works\NSCAM\obj/../LCD/lcd.c:512
			if (string[i] == '\n') {
    35ec:	00048683          	lb	a3,0(s1)
    35f0:	01445603          	lhu	a2,20(s0)
    35f4:	01269963          	bne	a3,s2,3606 <_lcd_printa_+0x16e>
E:\Works\NSCAM\obj/../LCD/lcd.c:515
				p->ptrY += 8;
    35f8:	0621                	addi	a2,a2,8
E:\Works\NSCAM\obj/../LCD/lcd.c:514
				p->ptrX = 0;
    35fa:	00041923          	sh	zero,18(s0)
E:\Works\NSCAM\obj/../LCD/lcd.c:515
				p->ptrY += 8;
    35fe:	00c41a23          	sh	a2,20(s0)
E:\Works\NSCAM\obj/../LCD/lcd.c:516
				continue;
    3602:	0485                	addi	s1,s1,1
    3604:	bd7d                	j	34c2 <_lcd_printa_+0x2a>
E:\Works\NSCAM\obj/../LCD/lcd.c:518
			if (string[i] == 0x08) {
    3606:	01245583          	lhu	a1,18(s0)
    360a:	03369a63          	bne	a3,s3,363e <_lcd_printa_+0x1a6>
E:\Works\NSCAM\obj/../LCD/lcd.c:520
				if (p->ptrX >= 6) p->ptrX -= 6;
    360e:	00bb7f63          	bgeu	s6,a1,362c <_lcd_printa_+0x194>
E:\Works\NSCAM\obj/../LCD/lcd.c:520 (discriminator 1)
    3612:	15e9                	addi	a1,a1,-6
    3614:	00b41923          	sh	a1,18(s0)
E:\Works\NSCAM\obj/../LCD/lcd.c:525
				_lcd_draw(p, p->ptrX, p->ptrY, ' ');
    3618:	01445603          	lhu	a2,20(s0)
    361c:	01245583          	lhu	a1,18(s0)
    3620:	02000693          	li	a3,32
    3624:	8522                	mv	a0,s0
    3626:	a08ff0ef          	jal	ra,282e <_lcd_draw>
E:\Works\NSCAM\obj/../LCD/lcd.c:526
				continue;
    362a:	bfe1                	j	3602 <_lcd_printa_+0x16a>
E:\Works\NSCAM\obj/../LCD/lcd.c:522
					p->ptrX = p->width - 6;
    362c:	00245783          	lhu	a5,2(s0)
E:\Works\NSCAM\obj/../LCD/lcd.c:523
					p->ptrY -= 8;
    3630:	1661                	addi	a2,a2,-8
    3632:	00c41a23          	sh	a2,20(s0)
E:\Works\NSCAM\obj/../LCD/lcd.c:522
					p->ptrX = p->width - 6;
    3636:	17e9                	addi	a5,a5,-6
    3638:	00f41923          	sh	a5,18(s0)
E:\Works\NSCAM\obj/../LCD/lcd.c:523
					p->ptrY -= 8;
    363c:	bff1                	j	3618 <_lcd_printa_+0x180>
E:\Works\NSCAM\obj/../LCD/lcd.c:528
			_lcd_draw(p, p->ptrX, p->ptrY, string[i]);
    363e:	8522                	mv	a0,s0
    3640:	9eeff0ef          	jal	ra,282e <_lcd_draw>
E:\Works\NSCAM\obj/../LCD/lcd.c:529
			p->buffer[p->ptrY / 8][p->ptrX / 6] = string[i];
    3644:	01245783          	lhu	a5,18(s0)
    3648:	01445683          	lhu	a3,20(s0)
    364c:	00048603          	lb	a2,0(s1)
    3650:	0347d5b3          	divu	a1,a5,s4
    3654:	0036d713          	srli	a4,a3,0x3
E:\Works\NSCAM\obj/../LCD/lcd.c:530
			p->ptrX += 6;
    3658:	0799                	addi	a5,a5,6
    365a:	07c2                	slli	a5,a5,0x10
    365c:	83c1                	srli	a5,a5,0x10
E:\Works\NSCAM\obj/../LCD/lcd.c:529
			p->buffer[p->ptrY / 8][p->ptrX / 6] = string[i];
    365e:	03570733          	mul	a4,a4,s5
    3662:	9722                	add	a4,a4,s0
    3664:	972e                	add	a4,a4,a1
    3666:	00c70b23          	sb	a2,22(a4)
E:\Works\NSCAM\obj/../LCD/lcd.c:531
			if (p->ptrX >= p->width - 6) {
    366a:	00245703          	lhu	a4,2(s0)
E:\Works\NSCAM\obj/../LCD/lcd.c:530
			p->ptrX += 6;
    366e:	00f41923          	sh	a5,18(s0)
E:\Works\NSCAM\obj/../LCD/lcd.c:531
			if (p->ptrX >= p->width - 6) {
    3672:	1769                	addi	a4,a4,-6
    3674:	f8e7c7e3          	blt	a5,a4,3602 <_lcd_printa_+0x16a>
E:\Works\NSCAM\obj/../LCD/lcd.c:533
				p->ptrY += 8;
    3678:	06a1                	addi	a3,a3,8
E:\Works\NSCAM\obj/../LCD/lcd.c:532
				p->ptrX = 0;
    367a:	00041923          	sh	zero,18(s0)
E:\Works\NSCAM\obj/../LCD/lcd.c:533
				p->ptrY += 8;
    367e:	00d41a23          	sh	a3,20(s0)
E:\Works\NSCAM\obj/../LCD/lcd.c:535
			i++;
    3682:	b741                	j	3602 <_lcd_printa_+0x16a>

00003684 <_lcd_printfa>:
_lcd_printfa():
E:\Works\NSCAM\obj/../LCD/lcd.c:631

int _lcd_printfa(pLCD* p, const char* format, ...) {
    3684:	715d                	addi	sp,sp,-80
    3686:	d04a                	sw	s2,32(sp)
    3688:	892a                	mv	s2,a0
E:\Works\NSCAM\obj/../LCD/lcd.c:632
	char* iobuf = malloc(sizeof(char) * IOBUF_SIZE);
    368a:	08000513          	li	a0,128
E:\Works\NSCAM\obj/../LCD/lcd.c:631
int _lcd_printfa(pLCD* p, const char* format, ...) {
    368e:	d606                	sw	ra,44(sp)
    3690:	d422                	sw	s0,40(sp)
    3692:	d226                	sw	s1,36(sp)
    3694:	de36                	sw	a3,60(sp)
    3696:	c0ba                	sw	a4,64(sp)
    3698:	c2be                	sw	a5,68(sp)
    369a:	c4c2                	sw	a6,72(sp)
    369c:	c6c6                	sw	a7,76(sp)
    369e:	c62e                	sw	a1,12(sp)
    36a0:	dc32                	sw	a2,56(sp)
E:\Works\NSCAM\obj/../LCD/lcd.c:632
	char* iobuf = malloc(sizeof(char) * IOBUF_SIZE);
    36a2:	442030ef          	jal	ra,6ae4 <malloc>
E:\Works\NSCAM\obj/../LCD/lcd.c:635
	va_list args;
	va_start(args, format);
	int result = vsprintf(iobuf, format, args);
    36a6:	45b2                	lw	a1,12(sp)
E:\Works\NSCAM\obj/../LCD/lcd.c:634
	va_start(args, format);
    36a8:	1830                	addi	a2,sp,56
E:\Works\NSCAM\obj/../LCD/lcd.c:632
	char* iobuf = malloc(sizeof(char) * IOBUF_SIZE);
    36aa:	842a                	mv	s0,a0
E:\Works\NSCAM\obj/../LCD/lcd.c:634
	va_start(args, format);
    36ac:	ce32                	sw	a2,28(sp)
E:\Works\NSCAM\obj/../LCD/lcd.c:635
	int result = vsprintf(iobuf, format, args);
    36ae:	722030ef          	jal	ra,6dd0 <vsiprintf>
    36b2:	84aa                	mv	s1,a0
E:\Works\NSCAM\obj/../LCD/lcd.c:637
	va_end(args);
	_lcd_printa_(p, iobuf);
    36b4:	85a2                	mv	a1,s0
    36b6:	854a                	mv	a0,s2
    36b8:	de1ff0ef          	jal	ra,3498 <_lcd_printa_>
E:\Works\NSCAM\obj/../LCD/lcd.c:638
	free(iobuf);
    36bc:	8522                	mv	a0,s0
    36be:	434030ef          	jal	ra,6af2 <free>
E:\Works\NSCAM\obj/../LCD/lcd.c:640
	return result;
}
    36c2:	50b2                	lw	ra,44(sp)
    36c4:	5422                	lw	s0,40(sp)
    36c6:	8526                	mv	a0,s1
    36c8:	5902                	lw	s2,32(sp)
    36ca:	5492                	lw	s1,36(sp)
    36cc:	6161                	addi	sp,sp,80
    36ce:	8082                	ret

000036d0 <LCDInit>:
LCDInit():
E:\Works\NSCAM\obj/../LCD/lcd.c:642

LCD* LCDInit() {
    36d0:	1141                	addi	sp,sp,-16
E:\Works\NSCAM\obj/../LCD/lcd.c:643
	pLCD* p = malloc(sizeof(pLCD));
    36d2:	4c800513          	li	a0,1224
E:\Works\NSCAM\obj/../LCD/lcd.c:642
LCD* LCDInit() {
    36d6:	c606                	sw	ra,12(sp)
    36d8:	c422                	sw	s0,8(sp)
E:\Works\NSCAM\obj/../LCD/lcd.c:643
	pLCD* p = malloc(sizeof(pLCD));
    36da:	40a030ef          	jal	ra,6ae4 <malloc>
E:\Works\NSCAM\obj/../LCD/lcd.c:644
	p->width = ILI9341_TFTWIDTH;
    36de:	0f000793          	li	a5,240
    36e2:	00f51123          	sh	a5,2(a0)
E:\Works\NSCAM\obj/../LCD/lcd.c:645
	p->height = ILI9341_TFTHEIGHT;
    36e6:	14000793          	li	a5,320
    36ea:	00f51223          	sh	a5,4(a0)
E:\Works\NSCAM\obj/../LCD/lcd.c:646
	p->Font = Small;
    36ee:	4785                	li	a5,1
    36f0:	c51c                	sw	a5,8(a0)
E:\Works\NSCAM\obj/../LCD/lcd.c:647
	p->backColor = 0x0000;
    36f2:	77c1                	lui	a5,0xffff0
    36f4:	c55c                	sw	a5,12(a0)
E:\Works\NSCAM\obj/../LCD/lcd.c:649
	p->foreColor = 0xFFFF;
	p->rotate = 3;
    36f6:	478d                	li	a5,3
E:\Works\NSCAM\obj/../LCD/lcd.c:643
	pLCD* p = malloc(sizeof(pLCD));
    36f8:	842a                	mv	s0,a0
E:\Works\NSCAM\obj/../LCD/lcd.c:649
	p->rotate = 3;
    36fa:	00f50823          	sb	a5,16(a0)
E:\Works\NSCAM\obj/../LCD/lcd.c:650
	p->ptrX = p->ptrY = 0;
    36fe:	00051a23          	sh	zero,20(a0)
    3702:	00051923          	sh	zero,18(a0)
E:\Works\NSCAM\obj/../LCD/lcd.c:651
	memset(p->buffer, 0, IOBUF_WIDTH * IOBUF_HEIGHT);
    3706:	4b000613          	li	a2,1200
    370a:	4581                	li	a1,0
    370c:	0559                	addi	a0,a0,22
    370e:	9b3fc0ef          	jal	ra,c0 <memset>
E:\Works\NSCAM\obj/../LCD/lcd.c:653
			
	LCD* c = malloc(sizeof(LCD));
    3712:	07000513          	li	a0,112
    3716:	3ce030ef          	jal	ra,6ae4 <malloc>
E:\Works\NSCAM\obj/../LCD/lcd.c:661
	c->writeCommand = &_lcd_writeCommand;
	c->writeData = &_lcd_writeData;
	c->writeData16 = &_lcd_writeData16;
	c->setPosition = &_lcd_setPosition;
	#endif
	c->init = &_lcd_init;
    371a:	00002737          	lui	a4,0x2
    371e:	49470713          	addi	a4,a4,1172 # 2494 <_lcd_init>
    3722:	c158                	sw	a4,4(a0)
E:\Works\NSCAM\obj/../LCD/lcd.c:662
	c->reset = &_lcd_reset;
    3724:	00002737          	lui	a4,0x2
    3728:	ffa70713          	addi	a4,a4,-6 # 1ffa <_lcd_reset>
    372c:	c518                	sw	a4,8(a0)
E:\Works\NSCAM\obj/../LCD/lcd.c:663
	c->light = &_lcd_backLight;
    372e:	00002737          	lui	a4,0x2
    3732:	02a70713          	addi	a4,a4,42 # 202a <_lcd_backLight>
    3736:	c558                	sw	a4,12(a0)
E:\Works\NSCAM\obj/../LCD/lcd.c:664
	c->ctrl = &_lcd_dispControl;
    3738:	00002737          	lui	a4,0x2
    373c:	07870713          	addi	a4,a4,120 # 2078 <_lcd_dispControl>
    3740:	c918                	sw	a4,16(a0)
E:\Works\NSCAM\obj/../LCD/lcd.c:665
	c->colorb = &_lcd_back_color;
    3742:	00003737          	lui	a4,0x3
    3746:	31870713          	addi	a4,a4,792 # 3318 <_lcd_back_color>
    374a:	c958                	sw	a4,20(a0)
E:\Works\NSCAM\obj/../LCD/lcd.c:666
	c->colorf = &_lcd_fore_color;
    374c:	00003737          	lui	a4,0x3
    3750:	33270713          	addi	a4,a4,818 # 3332 <_lcd_fore_color>
    3754:	cd18                	sw	a4,24(a0)
E:\Works\NSCAM\obj/../LCD/lcd.c:667
	c->font = &_lcd_font;
    3756:	00002737          	lui	a4,0x2
    375a:	ff670713          	addi	a4,a4,-10 # 1ff6 <_lcd_font>
    375e:	cd58                	sw	a4,28(a0)
E:\Works\NSCAM\obj/../LCD/lcd.c:668
	c->clear = &_lcd_clear;
    3760:	00002737          	lui	a4,0x2
    3764:	50870713          	addi	a4,a4,1288 # 2508 <_lcd_clear>
    3768:	d118                	sw	a4,32(a0)
E:\Works\NSCAM\obj/../LCD/lcd.c:669
	c->scroll = *_lcd_scroll;
    376a:	00003737          	lui	a4,0x3
    376e:	bce70713          	addi	a4,a4,-1074 # 2bce <_lcd_scroll>
    3772:	d158                	sw	a4,36(a0)
E:\Works\NSCAM\obj/../LCD/lcd.c:670
	c->rotate = &_lcd_rotate;
    3774:	00002737          	lui	a4,0x2
    3778:	3f470713          	addi	a4,a4,1012 # 23f4 <_lcd_rotate>
    377c:	d518                	sw	a4,40(a0)
E:\Works\NSCAM\obj/../LCD/lcd.c:671
	c->pixel = &_lcd_pixel;
    377e:	00002737          	lui	a4,0x2
    3782:	55a70713          	addi	a4,a4,1370 # 255a <_lcd_pixel>
    3786:	d558                	sw	a4,44(a0)
E:\Works\NSCAM\obj/../LCD/lcd.c:672
	c->row = &_lcd_row;
    3788:	00002737          	lui	a4,0x2
    378c:	58270713          	addi	a4,a4,1410 # 2582 <_lcd_row>
    3790:	d918                	sw	a4,48(a0)
E:\Works\NSCAM\obj/../LCD/lcd.c:673
	c->line = &_lcd_line;
    3792:	00003737          	lui	a4,0x3
    3796:	d2070713          	addi	a4,a4,-736 # 2d20 <_lcd_line>
    379a:	d958                	sw	a4,52(a0)
E:\Works\NSCAM\obj/../LCD/lcd.c:674
	c->tri = &_lcd_tri;
    379c:	00003737          	lui	a4,0x3
    37a0:	f2670713          	addi	a4,a4,-218 # 2f26 <_lcd_tri>
    37a4:	dd18                	sw	a4,56(a0)
E:\Works\NSCAM\obj/../LCD/lcd.c:675
	c->rect = &_lcd_rect;
    37a6:	00003737          	lui	a4,0x3
    37aa:	20c70713          	addi	a4,a4,524 # 320c <_lcd_rect>
    37ae:	dd58                	sw	a4,60(a0)
E:\Works\NSCAM\obj/../LCD/lcd.c:676
	c->bitmap = &_lcd_bitmap;
    37b0:	00002737          	lui	a4,0x2
    37b4:	5b070713          	addi	a4,a4,1456 # 25b0 <_lcd_bitmap>
    37b8:	c138                	sw	a4,64(a0)
E:\Works\NSCAM\obj/../LCD/lcd.c:677
	c->bitmapf = &_lcd_bitmapf;
    37ba:	00002737          	lui	a4,0x2
    37be:	63070713          	addi	a4,a4,1584 # 2630 <_lcd_bitmapf>
    37c2:	c178                	sw	a4,68(a0)
E:\Works\NSCAM\obj/../LCD/lcd.c:678
	c->bitmapc = &_lcd_bitmapc;
    37c4:	00002737          	lui	a4,0x2
    37c8:	67670713          	addi	a4,a4,1654 # 2676 <_lcd_bitmapc>
    37cc:	c538                	sw	a4,72(a0)
E:\Works\NSCAM\obj/../LCD/lcd.c:679
	c->bitmapt = &_lcd_bitmapt;
    37ce:	00003737          	lui	a4,0x3
    37d2:	34c70713          	addi	a4,a4,844 # 334c <_lcd_bitmapt>
    37d6:	c578                	sw	a4,76(a0)
E:\Works\NSCAM\obj/../LCD/lcd.c:680
	c->bitmaptc = &_lcd_bitmaptc;
    37d8:	00003737          	lui	a4,0x3
    37dc:	3e470713          	addi	a4,a4,996 # 33e4 <_lcd_bitmaptc>
    37e0:	c938                	sw	a4,80(a0)
E:\Works\NSCAM\obj/../LCD/lcd.c:681
	c->bitmaps = &_lcd_bitmaps;
    37e2:	00002737          	lui	a4,0x2
    37e6:	71070713          	addi	a4,a4,1808 # 2710 <_lcd_bitmaps>
    37ea:	c978                	sw	a4,84(a0)
E:\Works\NSCAM\obj/../LCD/lcd.c:682
	c->bitmapsc = &_lcd_bitmapsc;
    37ec:	00003737          	lui	a4,0x3
    37f0:	81270713          	addi	a4,a4,-2030 # 2812 <_lcd_bitmapsc>
    37f4:	cd38                	sw	a4,88(a0)
E:\Works\NSCAM\obj/../LCD/lcd.c:683
	c->draw = &_lcd_draw;
    37f6:	00003737          	lui	a4,0x3
    37fa:	82e70713          	addi	a4,a4,-2002 # 282e <_lcd_draw>
    37fe:	cd78                	sw	a4,92(a0)
E:\Works\NSCAM\obj/../LCD/lcd.c:684
	c->print = &_lcd_print;
    3800:	00003737          	lui	a4,0x3
    3804:	9c070713          	addi	a4,a4,-1600 # 29c0 <_lcd_print>
    3808:	d138                	sw	a4,96(a0)
E:\Works\NSCAM\obj/../LCD/lcd.c:685
	c->printf = &_lcd_printf;
    380a:	00003737          	lui	a4,0x3
    380e:	af870713          	addi	a4,a4,-1288 # 2af8 <_lcd_printf>
    3812:	d178                	sw	a4,100(a0)
E:\Works\NSCAM\obj/../LCD/lcd.c:686
	c->printfc = &_lcd_printfc;
    3814:	00003737          	lui	a4,0x3
    3818:	b5270713          	addi	a4,a4,-1198 # 2b52 <_lcd_printfc>
E:\Works\NSCAM\obj/../LCD/lcd.c:654
	c->p = p;
    381c:	c100                	sw	s0,0(a0)
E:\Works\NSCAM\obj/../LCD/lcd.c:686
	c->printfc = &_lcd_printfc;
    381e:	d538                	sw	a4,104(a0)
E:\Works\NSCAM\obj/../LCD/lcd.c:690
	c->printfa = &_lcd_printfa;
	
	return c;
}
    3820:	40b2                	lw	ra,12(sp)
    3822:	4422                	lw	s0,8(sp)
E:\Works\NSCAM\obj/../LCD/lcd.c:687
	c->printfa = &_lcd_printfa;
    3824:	00003737          	lui	a4,0x3
    3828:	68470713          	addi	a4,a4,1668 # 3684 <_lcd_printfa>
    382c:	d578                	sw	a4,108(a0)
E:\Works\NSCAM\obj/../LCD/lcd.c:690
}
    382e:	0141                	addi	sp,sp,16
    3830:	8082                	ret

00003832 <_oled_trans>:
_oled_trans():
E:\Works\NSCAM\obj/../LCD/oled.c:87
    mDelaymS(10);
}


void _oled_trans(pOLED* p, uint8_t addr) {
    p->Addr = addr;
    3832:	00b50023          	sb	a1,0(a0)
E:\Works\NSCAM\obj/../LCD/oled.c:88
}
    3836:	8082                	ret

00003838 <_oled_color>:
_oled_color():
E:\Works\NSCAM\obj/../LCD/oled.c:118
    _oled_writeCommand(p, 0xb0 + y);
    _oled_writeCommand(p, (((x + 2) & 0xf0) >> 4) | 0x10);
    _oled_writeCommand(p, (x + 2) & 0x0f);
}

void _oled_color(pOLED* p, OLEDColor color) { p->Color = color; }
    3838:	c14c                	sw	a1,4(a0)
    383a:	8082                	ret

0000383c <_oled_font>:
_oled_font():
E:\Works\NSCAM\obj/../LCD/oled.c:120

void _oled_font(pOLED* p, OLEDFontSize size) { p->FontSize = size; }
    383c:	c50c                	sw	a1,8(a0)
    383e:	8082                	ret

00003840 <__oled_start>:
__oled_start():
E:\Works\NSCAM\obj/../LCD/oled.c:12
void __oled_start() {
    3840:	1141                	addi	sp,sp,-16
    3842:	c422                	sw	s0,8(sp)
E:\Works\NSCAM\obj/../LCD/oled.c:13
    OLED_DAT_SET();
    3844:	40001437          	lui	s0,0x40001
    3848:	443c                	lw	a5,72(s0)
E:\Works\NSCAM\obj/../LCD/oled.c:12
void __oled_start() {
    384a:	c226                	sw	s1,4(sp)
E:\Works\NSCAM\obj/../LCD/oled.c:13
    OLED_DAT_SET();
    384c:	6485                	lui	s1,0x1
    384e:	80048493          	addi	s1,s1,-2048 # 800 <__stack_size>
E:\Works\NSCAM\obj/../LCD/oled.c:12
void __oled_start() {
    3852:	c606                	sw	ra,12(sp)
E:\Works\NSCAM\obj/../LCD/oled.c:13
    OLED_DAT_SET();
    3854:	8fc5                	or	a5,a5,s1
    3856:	c43c                	sw	a5,72(s0)
E:\Works\NSCAM\obj/../LCD/oled.c:14
    OLED_CLK_SET(); OLED_DELAY();
    3858:	443c                	lw	a5,72(s0)
    385a:	4505                	li	a0,1
    385c:	4007e793          	ori	a5,a5,1024
    3860:	c43c                	sw	a5,72(s0)
    3862:	f0cfe0ef          	jal	ra,1f6e <mDelayuS>
E:\Works\NSCAM\obj/../LCD/oled.c:15
    OLED_DAT_CLR(); OLED_DELAY();
    3866:	447c                	lw	a5,76(s0)
E:\Works\NSCAM\obj/../LCD/oled.c:16
}
    3868:	40b2                	lw	ra,12(sp)
E:\Works\NSCAM\obj/../LCD/oled.c:15
    OLED_DAT_CLR(); OLED_DELAY();
    386a:	4505                	li	a0,1
    386c:	8cdd                	or	s1,s1,a5
    386e:	c464                	sw	s1,76(s0)
E:\Works\NSCAM\obj/../LCD/oled.c:16
}
    3870:	4422                	lw	s0,8(sp)
    3872:	4492                	lw	s1,4(sp)
    3874:	0141                	addi	sp,sp,16
E:\Works\NSCAM\obj/../LCD/oled.c:15
    OLED_DAT_CLR(); OLED_DELAY();
    3876:	ef8fe06f          	j	1f6e <mDelayuS>

0000387a <__oled_stop>:
__oled_stop():
E:\Works\NSCAM\obj/../LCD/oled.c:18
void __oled_stop() {
    387a:	1141                	addi	sp,sp,-16
    387c:	c422                	sw	s0,8(sp)
E:\Works\NSCAM\obj/../LCD/oled.c:19
    OLED_DAT_CLR();
    387e:	40001437          	lui	s0,0x40001
    3882:	447c                	lw	a5,76(s0)
E:\Works\NSCAM\obj/../LCD/oled.c:18
void __oled_stop() {
    3884:	c226                	sw	s1,4(sp)
E:\Works\NSCAM\obj/../LCD/oled.c:19
    OLED_DAT_CLR();
    3886:	6485                	lui	s1,0x1
    3888:	80048493          	addi	s1,s1,-2048 # 800 <__stack_size>
E:\Works\NSCAM\obj/../LCD/oled.c:18
void __oled_stop() {
    388c:	c606                	sw	ra,12(sp)
E:\Works\NSCAM\obj/../LCD/oled.c:19
    OLED_DAT_CLR();
    388e:	8fc5                	or	a5,a5,s1
    3890:	c47c                	sw	a5,76(s0)
E:\Works\NSCAM\obj/../LCD/oled.c:20
    OLED_CLK_SET(); OLED_DELAY();
    3892:	443c                	lw	a5,72(s0)
    3894:	4505                	li	a0,1
    3896:	4007e793          	ori	a5,a5,1024
    389a:	c43c                	sw	a5,72(s0)
    389c:	ed2fe0ef          	jal	ra,1f6e <mDelayuS>
E:\Works\NSCAM\obj/../LCD/oled.c:21
    OLED_DAT_SET(); OLED_DELAY();
    38a0:	443c                	lw	a5,72(s0)
E:\Works\NSCAM\obj/../LCD/oled.c:22
}
    38a2:	40b2                	lw	ra,12(sp)
E:\Works\NSCAM\obj/../LCD/oled.c:21
    OLED_DAT_SET(); OLED_DELAY();
    38a4:	4505                	li	a0,1
    38a6:	8cdd                	or	s1,s1,a5
    38a8:	c424                	sw	s1,72(s0)
E:\Works\NSCAM\obj/../LCD/oled.c:22
}
    38aa:	4422                	lw	s0,8(sp)
    38ac:	4492                	lw	s1,4(sp)
    38ae:	0141                	addi	sp,sp,16
E:\Works\NSCAM\obj/../LCD/oled.c:21
    OLED_DAT_SET(); OLED_DELAY();
    38b0:	ebefe06f          	j	1f6e <mDelayuS>

000038b4 <__oled_ack>:
__oled_ack():
E:\Works\NSCAM\obj/../LCD/oled.c:25
    OLED_CLK_CLR();
    38b4:	400017b7          	lui	a5,0x40001
    38b8:	47f8                	lw	a4,76(a5)
E:\Works\NSCAM\obj/../LCD/oled.c:24
void __oled_ack() {
    38ba:	1141                	addi	sp,sp,-16
    38bc:	c422                	sw	s0,8(sp)
    38be:	c226                	sw	s1,4(sp)
    38c0:	c04a                	sw	s2,0(sp)
    38c2:	c606                	sw	ra,12(sp)
E:\Works\NSCAM\obj/../LCD/oled.c:25
    OLED_CLK_CLR();
    38c4:	40076713          	ori	a4,a4,1024
    38c8:	c7f8                	sw	a4,76(a5)
E:\Works\NSCAM\obj/../LCD/oled.c:26
    OLED_DAT_SET();
    38ca:	47b8                	lw	a4,72(a5)
    38cc:	6405                	lui	s0,0x1
    38ce:	80040413          	addi	s0,s0,-2048 # 800 <__stack_size>
    38d2:	8f41                	or	a4,a4,s0
    38d4:	c7b8                	sw	a4,72(a5)
E:\Works\NSCAM\obj/../LCD/oled.c:27
    OLED_CLK_SET(); OLED_DELAY();
    38d6:	47b8                	lw	a4,72(a5)
    38d8:	4505                	li	a0,1
    38da:	0ff00493          	li	s1,255
    38de:	40076713          	ori	a4,a4,1024
    38e2:	c7b8                	sw	a4,72(a5)
    38e4:	e8afe0ef          	jal	ra,1f6e <mDelayuS>
E:\Works\NSCAM\obj/../LCD/oled.c:29
        if (OLED_DAT_GET() == 0)
    38e8:	40001937          	lui	s2,0x40001
    38ec:	04492783          	lw	a5,68(s2) # 40001044 <sensor_lcd_map+0x1ffe0644>
    38f0:	8fe1                	and	a5,a5,s0
    38f2:	cb81                	beqz	a5,3902 <__oled_ack+0x4e>
E:\Works\NSCAM\obj/../LCD/oled.c:31 (discriminator 2)
        OLED_DELAY();
    38f4:	14fd                	addi	s1,s1,-1
    38f6:	4505                	li	a0,1
    38f8:	0ff4f493          	andi	s1,s1,255
    38fc:	e72fe0ef          	jal	ra,1f6e <mDelayuS>
E:\Works\NSCAM\obj/../LCD/oled.c:28 (discriminator 2)
    for (uint8_t i = 0; i < 0xFF; i++) {
    3900:	f4f5                	bnez	s1,38ec <__oled_ack+0x38>
E:\Works\NSCAM\obj/../LCD/oled.c:33
    OLED_CLK_CLR(); OLED_DELAY();
    3902:	40001737          	lui	a4,0x40001
    3906:	477c                	lw	a5,76(a4)
E:\Works\NSCAM\obj/../LCD/oled.c:34
}
    3908:	4422                	lw	s0,8(sp)
    390a:	40b2                	lw	ra,12(sp)
    390c:	4492                	lw	s1,4(sp)
    390e:	4902                	lw	s2,0(sp)
E:\Works\NSCAM\obj/../LCD/oled.c:33
    OLED_CLK_CLR(); OLED_DELAY();
    3910:	4007e793          	ori	a5,a5,1024
    3914:	c77c                	sw	a5,76(a4)
    3916:	4505                	li	a0,1
E:\Works\NSCAM\obj/../LCD/oled.c:34
}
    3918:	0141                	addi	sp,sp,16
E:\Works\NSCAM\obj/../LCD/oled.c:33
    OLED_CLK_CLR(); OLED_DELAY();
    391a:	e54fe06f          	j	1f6e <mDelayuS>

0000391e <__oled_wr>:
__oled_wr():
E:\Works\NSCAM\obj/../LCD/oled.c:43
void __oled_wr(uint8_t data) {
    391e:	1101                	addi	sp,sp,-32
    3920:	c84a                	sw	s2,16(sp)
    3922:	6905                	lui	s2,0x1
    3924:	cc22                	sw	s0,24(sp)
    3926:	ca26                	sw	s1,20(sp)
    3928:	c64e                	sw	s3,12(sp)
    392a:	c452                	sw	s4,8(sp)
    392c:	ce06                	sw	ra,28(sp)
    392e:	c256                	sw	s5,4(sp)
    3930:	8a2a                	mv	s4,a0
    3932:	449d                	li	s1,7
E:\Works\NSCAM\obj/../LCD/oled.c:45
        OLED_CLK_CLR(); OLED_DELAY();
    3934:	40001437          	lui	s0,0x40001
    3938:	80090913          	addi	s2,s2,-2048 # 800 <__stack_size>
E:\Works\NSCAM\obj/../LCD/oled.c:44
    for (uint8_t i = 0; i < 8; i++) {
    393c:	59fd                	li	s3,-1
E:\Works\NSCAM\obj/../LCD/oled.c:45
        OLED_CLK_CLR(); OLED_DELAY();
    393e:	447c                	lw	a5,76(s0)
    3940:	4505                	li	a0,1
    3942:	4007e793          	ori	a5,a5,1024
    3946:	c47c                	sw	a5,76(s0)
    3948:	e26fe0ef          	jal	ra,1f6e <mDelayuS>
E:\Works\NSCAM\obj/../LCD/oled.c:46
        if (data & (1 << (7 - i)))
    394c:	409a57b3          	sra	a5,s4,s1
    3950:	8b85                	andi	a5,a5,1
    3952:	c7b9                	beqz	a5,39a0 <__oled_wr+0x82>
E:\Works\NSCAM\obj/../LCD/oled.c:47
            OLED_DAT_SET();
    3954:	443c                	lw	a5,72(s0)
    3956:	0127e7b3          	or	a5,a5,s2
    395a:	c43c                	sw	a5,72(s0)
E:\Works\NSCAM\obj/../LCD/oled.c:50 (discriminator 2)
        OLED_DELAY();
    395c:	4505                	li	a0,1
    395e:	e10fe0ef          	jal	ra,1f6e <mDelayuS>
E:\Works\NSCAM\obj/../LCD/oled.c:51 (discriminator 2)
        OLED_CLK_SET(); OLED_DELAY();
    3962:	443c                	lw	a5,72(s0)
    3964:	4505                	li	a0,1
    3966:	14fd                	addi	s1,s1,-1
    3968:	4007e793          	ori	a5,a5,1024
    396c:	c43c                	sw	a5,72(s0)
    396e:	e00fe0ef          	jal	ra,1f6e <mDelayuS>
E:\Works\NSCAM\obj/../LCD/oled.c:44 (discriminator 2)
    for (uint8_t i = 0; i < 8; i++) {
    3972:	fd3496e3          	bne	s1,s3,393e <__oled_wr+0x20>
E:\Works\NSCAM\obj/../LCD/oled.c:53
    OLED_CLK_CLR();
    3976:	447c                	lw	a5,76(s0)
E:\Works\NSCAM\obj/../LCD/oled.c:54
    OLED_DAT_SET();
    3978:	6705                	lui	a4,0x1
    397a:	80070713          	addi	a4,a4,-2048 # 800 <__stack_size>
E:\Works\NSCAM\obj/../LCD/oled.c:53
    OLED_CLK_CLR();
    397e:	4007e793          	ori	a5,a5,1024
    3982:	c47c                	sw	a5,76(s0)
E:\Works\NSCAM\obj/../LCD/oled.c:54
    OLED_DAT_SET();
    3984:	443c                	lw	a5,72(s0)
E:\Works\NSCAM\obj/../LCD/oled.c:56
}
    3986:	40f2                	lw	ra,28(sp)
    3988:	44d2                	lw	s1,20(sp)
E:\Works\NSCAM\obj/../LCD/oled.c:54
    OLED_DAT_SET();
    398a:	8fd9                	or	a5,a5,a4
    398c:	c43c                	sw	a5,72(s0)
E:\Works\NSCAM\obj/../LCD/oled.c:56
}
    398e:	4462                	lw	s0,24(sp)
    3990:	4942                	lw	s2,16(sp)
    3992:	49b2                	lw	s3,12(sp)
    3994:	4a22                	lw	s4,8(sp)
    3996:	4a92                	lw	s5,4(sp)
E:\Works\NSCAM\obj/../LCD/oled.c:55
    OLED_DELAY();
    3998:	4505                	li	a0,1
E:\Works\NSCAM\obj/../LCD/oled.c:56
}
    399a:	6105                	addi	sp,sp,32
E:\Works\NSCAM\obj/../LCD/oled.c:55
    OLED_DELAY();
    399c:	dd2fe06f          	j	1f6e <mDelayuS>
E:\Works\NSCAM\obj/../LCD/oled.c:49
            OLED_DAT_CLR();
    39a0:	447c                	lw	a5,76(s0)
    39a2:	0127e7b3          	or	a5,a5,s2
    39a6:	c47c                	sw	a5,76(s0)
    39a8:	bf55                	j	395c <__oled_wr+0x3e>

000039aa <iic_init>:
iic_init():
E:\Works\NSCAM\obj/../LCD/oled.c:80
    GPIOA_SetBits(pins);
    39aa:	40001737          	lui	a4,0x40001
    39ae:	473c                	lw	a5,72(a4)
    39b0:	6505                	lui	a0,0x1
E:\Works\NSCAM\obj/../LCD/oled.c:74
void iic_init() {
    39b2:	1141                	addi	sp,sp,-16
E:\Works\NSCAM\obj/../LCD/oled.c:80
    GPIOA_SetBits(pins);
    39b4:	c0050513          	addi	a0,a0,-1024 # c00 <sensor_init+0x5a>
E:\Works\NSCAM\obj/../LCD/oled.c:74
void iic_init() {
    39b8:	c606                	sw	ra,12(sp)
E:\Works\NSCAM\obj/../LCD/oled.c:80
    GPIOA_SetBits(pins);
    39ba:	8fc9                	or	a5,a5,a0
    39bc:	c73c                	sw	a5,72(a4)
E:\Works\NSCAM\obj/../LCD/oled.c:81
    GPIOA_ModeCfg(pins, GPIO_ModeOut_OP_8mA);
    39be:	45a5                	li	a1,9
    39c0:	9bcfe0ef          	jal	ra,1b7c <GPIOA_ModeCfg>
E:\Works\NSCAM\obj/../LCD/oled.c:83
}
    39c4:	40b2                	lw	ra,12(sp)
E:\Works\NSCAM\obj/../LCD/oled.c:82
    mDelaymS(10);
    39c6:	4529                	li	a0,10
E:\Works\NSCAM\obj/../LCD/oled.c:83
}
    39c8:	0141                	addi	sp,sp,16
E:\Works\NSCAM\obj/../LCD/oled.c:82
    mDelaymS(10);
    39ca:	dcefe06f          	j	1f98 <mDelaymS>

000039ce <_oled_writeCommand>:
_oled_writeCommand():
E:\Works\NSCAM\obj/../LCD/oled.c:90
void _oled_writeCommand(pOLED* p, uint8_t cmd) {
    39ce:	1101                	addi	sp,sp,-32
    39d0:	ce06                	sw	ra,28(sp)
    39d2:	c42e                	sw	a1,8(sp)
    39d4:	c62a                	sw	a0,12(sp)
E:\Works\NSCAM\obj/../LCD/oled.c:91
    __oled_start();
    39d6:	e6bff0ef          	jal	ra,3840 <__oled_start>
E:\Works\NSCAM\obj/../LCD/oled.c:92
    __oled_wr(p->Addr);
    39da:	4532                	lw	a0,12(sp)
    39dc:	00054503          	lbu	a0,0(a0)
    39e0:	f3fff0ef          	jal	ra,391e <__oled_wr>
E:\Works\NSCAM\obj/../LCD/oled.c:93
    __oled_ack();
    39e4:	ed1ff0ef          	jal	ra,38b4 <__oled_ack>
E:\Works\NSCAM\obj/../LCD/oled.c:94
    __oled_wr(0x00);
    39e8:	4501                	li	a0,0
    39ea:	f35ff0ef          	jal	ra,391e <__oled_wr>
E:\Works\NSCAM\obj/../LCD/oled.c:95
    __oled_ack();
    39ee:	ec7ff0ef          	jal	ra,38b4 <__oled_ack>
E:\Works\NSCAM\obj/../LCD/oled.c:96
    __oled_wr(cmd);
    39f2:	45a2                	lw	a1,8(sp)
    39f4:	852e                	mv	a0,a1
    39f6:	f29ff0ef          	jal	ra,391e <__oled_wr>
E:\Works\NSCAM\obj/../LCD/oled.c:97
    __oled_ack();
    39fa:	ebbff0ef          	jal	ra,38b4 <__oled_ack>
E:\Works\NSCAM\obj/../LCD/oled.c:99
}
    39fe:	40f2                	lw	ra,28(sp)
    3a00:	6105                	addi	sp,sp,32
E:\Works\NSCAM\obj/../LCD/oled.c:98
    __oled_stop();
    3a02:	e79ff06f          	j	387a <__oled_stop>

00003a06 <_oled_bright>:
_oled_bright():
E:\Works\NSCAM\obj/../LCD/oled.c:189
    else _oled_writeCommand(p, 0x03); //3

    _oled_clear(p);
}

void _oled_bright(pOLED* p, uint8_t brightness) {
    3a06:	1141                	addi	sp,sp,-16
    3a08:	c226                	sw	s1,4(sp)
    3a0a:	84ae                	mv	s1,a1
E:\Works\NSCAM\obj/../LCD/oled.c:190
    _oled_writeCommand(p, 0x81);
    3a0c:	08100593          	li	a1,129
E:\Works\NSCAM\obj/../LCD/oled.c:189
void _oled_bright(pOLED* p, uint8_t brightness) {
    3a10:	c422                	sw	s0,8(sp)
    3a12:	c606                	sw	ra,12(sp)
    3a14:	842a                	mv	s0,a0
E:\Works\NSCAM\obj/../LCD/oled.c:190
    _oled_writeCommand(p, 0x81);
    3a16:	fb9ff0ef          	jal	ra,39ce <_oled_writeCommand>
E:\Works\NSCAM\obj/../LCD/oled.c:191
    _oled_writeCommand(p, brightness & 0x7F);
    3a1a:	8522                	mv	a0,s0
E:\Works\NSCAM\obj/../LCD/oled.c:192
}
    3a1c:	4422                	lw	s0,8(sp)
    3a1e:	40b2                	lw	ra,12(sp)
E:\Works\NSCAM\obj/../LCD/oled.c:191
    _oled_writeCommand(p, brightness & 0x7F);
    3a20:	07f4f593          	andi	a1,s1,127
E:\Works\NSCAM\obj/../LCD/oled.c:192
}
    3a24:	4492                	lw	s1,4(sp)
    3a26:	0141                	addi	sp,sp,16
E:\Works\NSCAM\obj/../LCD/oled.c:191
    _oled_writeCommand(p, brightness & 0x7F);
    3a28:	fa7ff06f          	j	39ce <_oled_writeCommand>

00003a2c <_oled_open>:
_oled_open():
E:\Works\NSCAM\obj/../LCD/oled.c:194

void _oled_open(pOLED* p) {
    3a2c:	1141                	addi	sp,sp,-16
E:\Works\NSCAM\obj/../LCD/oled.c:195
    _oled_writeCommand(p, 0X8D);
    3a2e:	08d00593          	li	a1,141
E:\Works\NSCAM\obj/../LCD/oled.c:194
void _oled_open(pOLED* p) {
    3a32:	c606                	sw	ra,12(sp)
    3a34:	c422                	sw	s0,8(sp)
    3a36:	842a                	mv	s0,a0
E:\Works\NSCAM\obj/../LCD/oled.c:195
    _oled_writeCommand(p, 0X8D);
    3a38:	f97ff0ef          	jal	ra,39ce <_oled_writeCommand>
E:\Works\NSCAM\obj/../LCD/oled.c:196
    _oled_writeCommand(p, 0X14);
    3a3c:	8522                	mv	a0,s0
    3a3e:	45d1                	li	a1,20
    3a40:	f8fff0ef          	jal	ra,39ce <_oled_writeCommand>
E:\Works\NSCAM\obj/../LCD/oled.c:197
    _oled_writeCommand(p, 0XAF);
    3a44:	8522                	mv	a0,s0
E:\Works\NSCAM\obj/../LCD/oled.c:198
}
    3a46:	4422                	lw	s0,8(sp)
    3a48:	40b2                	lw	ra,12(sp)
E:\Works\NSCAM\obj/../LCD/oled.c:197
    _oled_writeCommand(p, 0XAF);
    3a4a:	0af00593          	li	a1,175
E:\Works\NSCAM\obj/../LCD/oled.c:198
}
    3a4e:	0141                	addi	sp,sp,16
E:\Works\NSCAM\obj/../LCD/oled.c:197
    _oled_writeCommand(p, 0XAF);
    3a50:	f7fff06f          	j	39ce <_oled_writeCommand>

00003a54 <_oled_close>:
_oled_close():
E:\Works\NSCAM\obj/../LCD/oled.c:200

void _oled_close(pOLED* p) {
    3a54:	1141                	addi	sp,sp,-16
E:\Works\NSCAM\obj/../LCD/oled.c:201
    _oled_writeCommand(p, 0X8D);
    3a56:	08d00593          	li	a1,141
E:\Works\NSCAM\obj/../LCD/oled.c:200
void _oled_close(pOLED* p) {
    3a5a:	c606                	sw	ra,12(sp)
    3a5c:	c422                	sw	s0,8(sp)
    3a5e:	842a                	mv	s0,a0
E:\Works\NSCAM\obj/../LCD/oled.c:201
    _oled_writeCommand(p, 0X8D);
    3a60:	f6fff0ef          	jal	ra,39ce <_oled_writeCommand>
E:\Works\NSCAM\obj/../LCD/oled.c:202
    _oled_writeCommand(p, 0X10);
    3a64:	8522                	mv	a0,s0
    3a66:	45c1                	li	a1,16
    3a68:	f67ff0ef          	jal	ra,39ce <_oled_writeCommand>
E:\Works\NSCAM\obj/../LCD/oled.c:203
    _oled_writeCommand(p, 0XAE);
    3a6c:	8522                	mv	a0,s0
E:\Works\NSCAM\obj/../LCD/oled.c:204
}
    3a6e:	4422                	lw	s0,8(sp)
    3a70:	40b2                	lw	ra,12(sp)
E:\Works\NSCAM\obj/../LCD/oled.c:203
    _oled_writeCommand(p, 0XAE);
    3a72:	0ae00593          	li	a1,174
E:\Works\NSCAM\obj/../LCD/oled.c:204
}
    3a76:	0141                	addi	sp,sp,16
E:\Works\NSCAM\obj/../LCD/oled.c:203
    _oled_writeCommand(p, 0XAE);
    3a78:	f57ff06f          	j	39ce <_oled_writeCommand>

00003a7c <_oled_writeData>:
_oled_writeData():
E:\Works\NSCAM\obj/../LCD/oled.c:101
void _oled_writeData(pOLED* p, uint8_t data) {
    3a7c:	1101                	addi	sp,sp,-32
    3a7e:	ce06                	sw	ra,28(sp)
    3a80:	c42e                	sw	a1,8(sp)
    3a82:	c62a                	sw	a0,12(sp)
E:\Works\NSCAM\obj/../LCD/oled.c:102
    __oled_start();
    3a84:	dbdff0ef          	jal	ra,3840 <__oled_start>
E:\Works\NSCAM\obj/../LCD/oled.c:103
    __oled_wr(p->Addr);
    3a88:	4532                	lw	a0,12(sp)
    3a8a:	00054503          	lbu	a0,0(a0)
    3a8e:	e91ff0ef          	jal	ra,391e <__oled_wr>
E:\Works\NSCAM\obj/../LCD/oled.c:104
    __oled_ack();
    3a92:	e23ff0ef          	jal	ra,38b4 <__oled_ack>
E:\Works\NSCAM\obj/../LCD/oled.c:105
    __oled_wr(0x40);
    3a96:	04000513          	li	a0,64
    3a9a:	e85ff0ef          	jal	ra,391e <__oled_wr>
E:\Works\NSCAM\obj/../LCD/oled.c:106
    __oled_ack();
    3a9e:	e17ff0ef          	jal	ra,38b4 <__oled_ack>
E:\Works\NSCAM\obj/../LCD/oled.c:107
    __oled_wr(data);
    3aa2:	45a2                	lw	a1,8(sp)
    3aa4:	852e                	mv	a0,a1
    3aa6:	e79ff0ef          	jal	ra,391e <__oled_wr>
E:\Works\NSCAM\obj/../LCD/oled.c:108
    __oled_ack();
    3aaa:	e0bff0ef          	jal	ra,38b4 <__oled_ack>
E:\Works\NSCAM\obj/../LCD/oled.c:110
}
    3aae:	40f2                	lw	ra,28(sp)
    3ab0:	6105                	addi	sp,sp,32
E:\Works\NSCAM\obj/../LCD/oled.c:109
    __oled_stop();
    3ab2:	dc9ff06f          	j	387a <__oled_stop>

00003ab6 <_oled_setPosition>:
_oled_setPosition():
E:\Works\NSCAM\obj/../LCD/oled.c:112
void _oled_setPosition(pOLED* p, uint8_t x, uint8_t y) {
    3ab6:	1141                	addi	sp,sp,-16
E:\Works\NSCAM\obj/../LCD/oled.c:113
    _oled_writeCommand(p, 0xb0 + y);
    3ab8:	fb060613          	addi	a2,a2,-80
E:\Works\NSCAM\obj/../LCD/oled.c:112
void _oled_setPosition(pOLED* p, uint8_t x, uint8_t y) {
    3abc:	c422                	sw	s0,8(sp)
    3abe:	842e                	mv	s0,a1
E:\Works\NSCAM\obj/../LCD/oled.c:113
    _oled_writeCommand(p, 0xb0 + y);
    3ac0:	0ff67593          	andi	a1,a2,255
E:\Works\NSCAM\obj/../LCD/oled.c:112
void _oled_setPosition(pOLED* p, uint8_t x, uint8_t y) {
    3ac4:	c606                	sw	ra,12(sp)
    3ac6:	c226                	sw	s1,4(sp)
E:\Works\NSCAM\obj/../LCD/oled.c:114
    _oled_writeCommand(p, (((x + 2) & 0xf0) >> 4) | 0x10);
    3ac8:	0409                	addi	s0,s0,2
E:\Works\NSCAM\obj/../LCD/oled.c:112
void _oled_setPosition(pOLED* p, uint8_t x, uint8_t y) {
    3aca:	84aa                	mv	s1,a0
E:\Works\NSCAM\obj/../LCD/oled.c:113
    _oled_writeCommand(p, 0xb0 + y);
    3acc:	f03ff0ef          	jal	ra,39ce <_oled_writeCommand>
E:\Works\NSCAM\obj/../LCD/oled.c:114
    _oled_writeCommand(p, (((x + 2) & 0xf0) >> 4) | 0x10);
    3ad0:	40445593          	srai	a1,s0,0x4
    3ad4:	89bd                	andi	a1,a1,15
    3ad6:	8526                	mv	a0,s1
    3ad8:	0105e593          	ori	a1,a1,16
    3adc:	ef3ff0ef          	jal	ra,39ce <_oled_writeCommand>
E:\Works\NSCAM\obj/../LCD/oled.c:115
    _oled_writeCommand(p, (x + 2) & 0x0f);
    3ae0:	00f47593          	andi	a1,s0,15
E:\Works\NSCAM\obj/../LCD/oled.c:116
}
    3ae4:	4422                	lw	s0,8(sp)
    3ae6:	40b2                	lw	ra,12(sp)
E:\Works\NSCAM\obj/../LCD/oled.c:115
    _oled_writeCommand(p, (x + 2) & 0x0f);
    3ae8:	8526                	mv	a0,s1
E:\Works\NSCAM\obj/../LCD/oled.c:116
}
    3aea:	4492                	lw	s1,4(sp)
    3aec:	0141                	addi	sp,sp,16
E:\Works\NSCAM\obj/../LCD/oled.c:115
    _oled_writeCommand(p, (x + 2) & 0x0f);
    3aee:	ee1ff06f          	j	39ce <_oled_writeCommand>

00003af2 <_oled_clear>:
_oled_clear():
E:\Works\NSCAM\obj/../LCD/oled.c:122
void _oled_clear(pOLED* p) {
    3af2:	1101                	addi	sp,sp,-32
    3af4:	ca26                	sw	s1,20(sp)
    3af6:	c64e                	sw	s3,12(sp)
    3af8:	ce06                	sw	ra,28(sp)
    3afa:	cc22                	sw	s0,24(sp)
    3afc:	c84a                	sw	s2,16(sp)
E:\Works\NSCAM\obj/../LCD/oled.c:123
    uint8_t max = (p->Addr == OLED_SCREEN_BIG) ? 8 : 4;
    3afe:	00054703          	lbu	a4,0(a0)
    3b02:	07a00793          	li	a5,122
E:\Works\NSCAM\obj/../LCD/oled.c:122
void _oled_clear(pOLED* p) {
    3b06:	84aa                	mv	s1,a0
E:\Works\NSCAM\obj/../LCD/oled.c:123
    uint8_t max = (p->Addr == OLED_SCREEN_BIG) ? 8 : 4;
    3b08:	4991                	li	s3,4
    3b0a:	00f71363          	bne	a4,a5,3b10 <_oled_clear+0x1e>
    3b0e:	49a1                	li	s3,8
E:\Works\NSCAM\obj/../LCD/oled.c:124 (discriminator 4)
    for (uint8_t m = 0; m < max; m++) {
    3b10:	4401                	li	s0,0
E:\Works\NSCAM\obj/../LCD/oled.c:125
        _oled_setPosition(p, 0, m);
    3b12:	8622                	mv	a2,s0
    3b14:	4581                	li	a1,0
    3b16:	8526                	mv	a0,s1
    3b18:	f9fff0ef          	jal	ra,3ab6 <_oled_setPosition>
    3b1c:	08000913          	li	s2,128
E:\Works\NSCAM\obj/../LCD/oled.c:127 (discriminator 3)
            _oled_writeData(p, 0x00);
    3b20:	4581                	li	a1,0
    3b22:	8526                	mv	a0,s1
    3b24:	197d                	addi	s2,s2,-1
    3b26:	f57ff0ef          	jal	ra,3a7c <_oled_writeData>
E:\Works\NSCAM\obj/../LCD/oled.c:126 (discriminator 3)
        for (uint8_t n = 0; n < 128; n++) {
    3b2a:	fe091be3          	bnez	s2,3b20 <_oled_clear+0x2e>
E:\Works\NSCAM\obj/../LCD/oled.c:124 (discriminator 2)
    for (uint8_t m = 0; m < max; m++) {
    3b2e:	0405                	addi	s0,s0,1
    3b30:	0ff47413          	andi	s0,s0,255
    3b34:	fc899fe3          	bne	s3,s0,3b12 <_oled_clear+0x20>
E:\Works\NSCAM\obj/../LCD/oled.c:130
}
    3b38:	40f2                	lw	ra,28(sp)
    3b3a:	4462                	lw	s0,24(sp)
    3b3c:	44d2                	lw	s1,20(sp)
    3b3e:	4942                	lw	s2,16(sp)
    3b40:	49b2                	lw	s3,12(sp)
    3b42:	6105                	addi	sp,sp,32
    3b44:	8082                	ret

00003b46 <_oled_init>:
_oled_init():
E:\Works\NSCAM\obj/../LCD/oled.c:132
void _oled_init(pOLED* p) {
    3b46:	1141                	addi	sp,sp,-16
    3b48:	c606                	sw	ra,12(sp)
    3b4a:	c422                	sw	s0,8(sp)
    3b4c:	842a                	mv	s0,a0
E:\Works\NSCAM\obj/../LCD/oled.c:133
    iic_init();
    3b4e:	e5dff0ef          	jal	ra,39aa <iic_init>
E:\Works\NSCAM\obj/../LCD/oled.c:135
    _oled_writeCommand(p, 0xAE);//--display off
    3b52:	0ae00593          	li	a1,174
    3b56:	8522                	mv	a0,s0
    3b58:	e77ff0ef          	jal	ra,39ce <_oled_writeCommand>
E:\Works\NSCAM\obj/../LCD/oled.c:136
    _oled_writeCommand(p, 0x00);//---set low column address
    3b5c:	4581                	li	a1,0
    3b5e:	8522                	mv	a0,s0
    3b60:	e6fff0ef          	jal	ra,39ce <_oled_writeCommand>
E:\Works\NSCAM\obj/../LCD/oled.c:137
    _oled_writeCommand(p, 0x10);//---set high column address
    3b64:	45c1                	li	a1,16
    3b66:	8522                	mv	a0,s0
    3b68:	e67ff0ef          	jal	ra,39ce <_oled_writeCommand>
E:\Works\NSCAM\obj/../LCD/oled.c:138
    _oled_writeCommand(p, 0x40);//--set start line address
    3b6c:	04000593          	li	a1,64
    3b70:	8522                	mv	a0,s0
    3b72:	e5dff0ef          	jal	ra,39ce <_oled_writeCommand>
E:\Works\NSCAM\obj/../LCD/oled.c:139
    _oled_writeCommand(p, 0xB0);//--set page address
    3b76:	0b000593          	li	a1,176
    3b7a:	8522                	mv	a0,s0
    3b7c:	e53ff0ef          	jal	ra,39ce <_oled_writeCommand>
E:\Works\NSCAM\obj/../LCD/oled.c:140
    _oled_writeCommand(p, 0x81); // contract control
    3b80:	08100593          	li	a1,129
    3b84:	8522                	mv	a0,s0
    3b86:	e49ff0ef          	jal	ra,39ce <_oled_writeCommand>
E:\Works\NSCAM\obj/../LCD/oled.c:141
    _oled_writeCommand(p, 0xFF);//--128
    3b8a:	0ff00593          	li	a1,255
    3b8e:	8522                	mv	a0,s0
    3b90:	e3fff0ef          	jal	ra,39ce <_oled_writeCommand>
E:\Works\NSCAM\obj/../LCD/oled.c:142
    _oled_writeCommand(p, 0xA1);//set segment remap
    3b94:	0a100593          	li	a1,161
    3b98:	8522                	mv	a0,s0
    3b9a:	e35ff0ef          	jal	ra,39ce <_oled_writeCommand>
E:\Works\NSCAM\obj/../LCD/oled.c:143
    _oled_writeCommand(p, 0xA6);//--normal / reverse
    3b9e:	0a600593          	li	a1,166
    3ba2:	8522                	mv	a0,s0
    3ba4:	e2bff0ef          	jal	ra,39ce <_oled_writeCommand>
E:\Works\NSCAM\obj/../LCD/oled.c:145
    _oled_writeCommand(p, 0xA8);//--set multiplex ratio(1 to 64)
    3ba8:	0a800593          	li	a1,168
    3bac:	8522                	mv	a0,s0
    3bae:	e21ff0ef          	jal	ra,39ce <_oled_writeCommand>
E:\Works\NSCAM\obj/../LCD/oled.c:146
    if (p->Addr == OLED_SCREEN_BIG)
    3bb2:	00044703          	lbu	a4,0(s0) # 40001000 <sensor_lcd_map+0x1ffe0600>
    3bb6:	07a00793          	li	a5,122
E:\Works\NSCAM\obj/../LCD/oled.c:147
        _oled_writeCommand(p, 0x3F);//--1/32 duty
    3bba:	03f00593          	li	a1,63
E:\Works\NSCAM\obj/../LCD/oled.c:146
    if (p->Addr == OLED_SCREEN_BIG)
    3bbe:	00f70363          	beq	a4,a5,3bc4 <_oled_init+0x7e>
E:\Works\NSCAM\obj/../LCD/oled.c:148
    else _oled_writeCommand(p, 0x1F);
    3bc2:	45fd                	li	a1,31
    3bc4:	8522                	mv	a0,s0
    3bc6:	e09ff0ef          	jal	ra,39ce <_oled_writeCommand>
E:\Works\NSCAM\obj/../LCD/oled.c:150
    _oled_writeCommand(p, 0xC8);//Com scan direction
    3bca:	0c800593          	li	a1,200
    3bce:	8522                	mv	a0,s0
    3bd0:	dffff0ef          	jal	ra,39ce <_oled_writeCommand>
E:\Works\NSCAM\obj/../LCD/oled.c:151
    _oled_writeCommand(p, 0xD3);//-set display offset
    3bd4:	0d300593          	li	a1,211
    3bd8:	8522                	mv	a0,s0
    3bda:	df5ff0ef          	jal	ra,39ce <_oled_writeCommand>
E:\Works\NSCAM\obj/../LCD/oled.c:152
    _oled_writeCommand(p, 0x00);//
    3bde:	4581                	li	a1,0
    3be0:	8522                	mv	a0,s0
    3be2:	dedff0ef          	jal	ra,39ce <_oled_writeCommand>
E:\Works\NSCAM\obj/../LCD/oled.c:154
    _oled_writeCommand(p, 0xD5);//set osc division
    3be6:	0d500593          	li	a1,213
    3bea:	8522                	mv	a0,s0
    3bec:	de3ff0ef          	jal	ra,39ce <_oled_writeCommand>
E:\Works\NSCAM\obj/../LCD/oled.c:155
    _oled_writeCommand(p, 0x80);//
    3bf0:	08000593          	li	a1,128
    3bf4:	8522                	mv	a0,s0
    3bf6:	dd9ff0ef          	jal	ra,39ce <_oled_writeCommand>
E:\Works\NSCAM\obj/../LCD/oled.c:157
    _oled_writeCommand(p, 0xD8);//set area color mode off
    3bfa:	0d800593          	li	a1,216
    3bfe:	8522                	mv	a0,s0
    3c00:	dcfff0ef          	jal	ra,39ce <_oled_writeCommand>
E:\Works\NSCAM\obj/../LCD/oled.c:158
    _oled_writeCommand(p, 0x05);//
    3c04:	4595                	li	a1,5
    3c06:	8522                	mv	a0,s0
    3c08:	dc7ff0ef          	jal	ra,39ce <_oled_writeCommand>
E:\Works\NSCAM\obj/../LCD/oled.c:160
    _oled_writeCommand(p, 0xD9);//Set Pre-Charge Period
    3c0c:	0d900593          	li	a1,217
    3c10:	8522                	mv	a0,s0
    3c12:	dbdff0ef          	jal	ra,39ce <_oled_writeCommand>
E:\Works\NSCAM\obj/../LCD/oled.c:161
    _oled_writeCommand(p, 0xF1);//
    3c16:	0f100593          	li	a1,241
    3c1a:	8522                	mv	a0,s0
    3c1c:	db3ff0ef          	jal	ra,39ce <_oled_writeCommand>
E:\Works\NSCAM\obj/../LCD/oled.c:163
    _oled_writeCommand(p, 0xDA);//set com pin configuartion
    3c20:	0da00593          	li	a1,218
    3c24:	8522                	mv	a0,s0
    3c26:	da9ff0ef          	jal	ra,39ce <_oled_writeCommand>
E:\Works\NSCAM\obj/../LCD/oled.c:164
    if (p->Addr == OLED_SCREEN_BIG)
    3c2a:	00044703          	lbu	a4,0(s0)
    3c2e:	07a00793          	li	a5,122
E:\Works\NSCAM\obj/../LCD/oled.c:165
        _oled_writeCommand(p, 0x12);
    3c32:	45c9                	li	a1,18
E:\Works\NSCAM\obj/../LCD/oled.c:164
    if (p->Addr == OLED_SCREEN_BIG)
    3c34:	00f70363          	beq	a4,a5,3c3a <_oled_init+0xf4>
E:\Works\NSCAM\obj/../LCD/oled.c:166
    else _oled_writeCommand(p, 0x02);
    3c38:	4589                	li	a1,2
    3c3a:	8522                	mv	a0,s0
    3c3c:	d93ff0ef          	jal	ra,39ce <_oled_writeCommand>
E:\Works\NSCAM\obj/../LCD/oled.c:168
    _oled_writeCommand(p, 0xDB);//set Vcomh
    3c40:	0db00593          	li	a1,219
    3c44:	8522                	mv	a0,s0
    3c46:	d89ff0ef          	jal	ra,39ce <_oled_writeCommand>
E:\Works\NSCAM\obj/../LCD/oled.c:169
    _oled_writeCommand(p, 0x30);//
    3c4a:	03000593          	li	a1,48
    3c4e:	8522                	mv	a0,s0
    3c50:	d7fff0ef          	jal	ra,39ce <_oled_writeCommand>
E:\Works\NSCAM\obj/../LCD/oled.c:171
    _oled_writeCommand(p, 0x8D);//set charge pump enable
    3c54:	08d00593          	li	a1,141
    3c58:	8522                	mv	a0,s0
    3c5a:	d75ff0ef          	jal	ra,39ce <_oled_writeCommand>
E:\Works\NSCAM\obj/../LCD/oled.c:172
    _oled_writeCommand(p, 0x14);//
    3c5e:	45d1                	li	a1,20
    3c60:	8522                	mv	a0,s0
    3c62:	d6dff0ef          	jal	ra,39ce <_oled_writeCommand>
E:\Works\NSCAM\obj/../LCD/oled.c:174
    _oled_writeCommand(p, 0xAF);//--turn on oled panel
    3c66:	0af00593          	li	a1,175
    3c6a:	8522                	mv	a0,s0
    3c6c:	d63ff0ef          	jal	ra,39ce <_oled_writeCommand>
E:\Works\NSCAM\obj/../LCD/oled.c:176
    _oled_writeCommand(p, 0x21); //Set column address range
    3c70:	02100593          	li	a1,33
    3c74:	8522                	mv	a0,s0
    3c76:	d59ff0ef          	jal	ra,39ce <_oled_writeCommand>
E:\Works\NSCAM\obj/../LCD/oled.c:177
    _oled_writeCommand(p, 0x00);
    3c7a:	4581                	li	a1,0
    3c7c:	8522                	mv	a0,s0
    3c7e:	d51ff0ef          	jal	ra,39ce <_oled_writeCommand>
E:\Works\NSCAM\obj/../LCD/oled.c:178
    _oled_writeCommand(p, 0x7F); //127
    3c82:	07f00593          	li	a1,127
    3c86:	8522                	mv	a0,s0
    3c88:	d47ff0ef          	jal	ra,39ce <_oled_writeCommand>
E:\Works\NSCAM\obj/../LCD/oled.c:180
    _oled_writeCommand(p, 0x22); //Set page address range
    3c8c:	02200593          	li	a1,34
    3c90:	8522                	mv	a0,s0
    3c92:	d3dff0ef          	jal	ra,39ce <_oled_writeCommand>
E:\Works\NSCAM\obj/../LCD/oled.c:181
    _oled_writeCommand(p, 0x00);
    3c96:	4581                	li	a1,0
    3c98:	8522                	mv	a0,s0
    3c9a:	d35ff0ef          	jal	ra,39ce <_oled_writeCommand>
E:\Works\NSCAM\obj/../LCD/oled.c:182
    if (p->Addr == OLED_SCREEN_BIG)
    3c9e:	00044703          	lbu	a4,0(s0)
    3ca2:	07a00793          	li	a5,122
E:\Works\NSCAM\obj/../LCD/oled.c:183
        _oled_writeCommand(p, 0x07); //7
    3ca6:	459d                	li	a1,7
E:\Works\NSCAM\obj/../LCD/oled.c:182
    if (p->Addr == OLED_SCREEN_BIG)
    3ca8:	00f70363          	beq	a4,a5,3cae <_oled_init+0x168>
E:\Works\NSCAM\obj/../LCD/oled.c:184
    else _oled_writeCommand(p, 0x03); //3
    3cac:	458d                	li	a1,3
    3cae:	8522                	mv	a0,s0
    3cb0:	d1fff0ef          	jal	ra,39ce <_oled_writeCommand>
E:\Works\NSCAM\obj/../LCD/oled.c:186
    _oled_clear(p);
    3cb4:	8522                	mv	a0,s0
E:\Works\NSCAM\obj/../LCD/oled.c:187
}
    3cb6:	4422                	lw	s0,8(sp)
    3cb8:	40b2                	lw	ra,12(sp)
    3cba:	0141                	addi	sp,sp,16
E:\Works\NSCAM\obj/../LCD/oled.c:186
    _oled_clear(p);
    3cbc:	e37ff06f          	j	3af2 <_oled_clear>

00003cc0 <_oled_flash>:
_oled_flash():
E:\Works\NSCAM\obj/../LCD/oled.c:206

void _oled_flash(pOLED* p, const unsigned char* data) {
    3cc0:	1101                	addi	sp,sp,-32
    3cc2:	c64e                	sw	s3,12(sp)
    3cc4:	c452                	sw	s4,8(sp)
    3cc6:	c256                	sw	s5,4(sp)
    3cc8:	ce06                	sw	ra,28(sp)
    3cca:	cc22                	sw	s0,24(sp)
    3ccc:	ca26                	sw	s1,20(sp)
    3cce:	c84a                	sw	s2,16(sp)
E:\Works\NSCAM\obj/../LCD/oled.c:208
    uint32_t i = 0;
    uint8_t max = (p->Addr == OLED_SCREEN_BIG) ? 8 : 4;
    3cd0:	00054703          	lbu	a4,0(a0)
    3cd4:	07a00793          	li	a5,122
E:\Works\NSCAM\obj/../LCD/oled.c:206
void _oled_flash(pOLED* p, const unsigned char* data) {
    3cd8:	89aa                	mv	s3,a0
    3cda:	8aae                	mv	s5,a1
E:\Works\NSCAM\obj/../LCD/oled.c:208
    uint8_t max = (p->Addr == OLED_SCREEN_BIG) ? 8 : 4;
    3cdc:	4a11                	li	s4,4
    3cde:	00f71363          	bne	a4,a5,3ce4 <_oled_flash+0x24>
    3ce2:	4a21                	li	s4,8
E:\Works\NSCAM\obj/../LCD/oled.c:208 (discriminator 4)
    3ce4:	08000493          	li	s1,128
E:\Works\NSCAM\obj/../LCD/oled.c:209 (discriminator 4)
    for (uint8_t m = 0; m < max; m++) {
    3ce8:	4401                	li	s0,0
E:\Works\NSCAM\obj/../LCD/oled.c:210
        _oled_setPosition(p, 0, m);
    3cea:	8622                	mv	a2,s0
    3cec:	4581                	li	a1,0
    3cee:	854e                	mv	a0,s3
    3cf0:	f8048913          	addi	s2,s1,-128
    3cf4:	dc3ff0ef          	jal	ra,3ab6 <_oled_setPosition>
E:\Works\NSCAM\obj/../LCD/oled.c:212 (discriminator 3)
        for (uint8_t n = 0; n < 128; n++) {
            _oled_writeData(p, data[i]);
    3cf8:	012a87b3          	add	a5,s5,s2
    3cfc:	0007c583          	lbu	a1,0(a5) # 40001000 <sensor_lcd_map+0x1ffe0600>
    3d00:	854e                	mv	a0,s3
E:\Works\NSCAM\obj/../LCD/oled.c:213 (discriminator 3)
            i++;
    3d02:	0905                	addi	s2,s2,1
E:\Works\NSCAM\obj/../LCD/oled.c:212 (discriminator 3)
            _oled_writeData(p, data[i]);
    3d04:	d79ff0ef          	jal	ra,3a7c <_oled_writeData>
E:\Works\NSCAM\obj/../LCD/oled.c:211 (discriminator 3)
        for (uint8_t n = 0; n < 128; n++) {
    3d08:	ff2498e3          	bne	s1,s2,3cf8 <_oled_flash+0x38>
E:\Works\NSCAM\obj/../LCD/oled.c:209 (discriminator 2)
    for (uint8_t m = 0; m < max; m++) {
    3d0c:	0405                	addi	s0,s0,1
    3d0e:	0ff47413          	andi	s0,s0,255
    3d12:	08048493          	addi	s1,s1,128
    3d16:	fc8a1ae3          	bne	s4,s0,3cea <_oled_flash+0x2a>
E:\Works\NSCAM\obj/../LCD/oled.c:216
        }
    }
}
    3d1a:	40f2                	lw	ra,28(sp)
    3d1c:	4462                	lw	s0,24(sp)
    3d1e:	44d2                	lw	s1,20(sp)
    3d20:	4942                	lw	s2,16(sp)
    3d22:	49b2                	lw	s3,12(sp)
    3d24:	4a22                	lw	s4,8(sp)
    3d26:	4a92                	lw	s5,4(sp)
    3d28:	6105                	addi	sp,sp,32
    3d2a:	8082                	ret

00003d2c <_oled_draw>:
_oled_draw():
E:\Works\NSCAM\obj/../LCD/oled.c:218

void _oled_draw(pOLED* p, uint8_t x, uint8_t y, char character) {
    3d2c:	1101                	addi	sp,sp,-32
    3d2e:	cc22                	sw	s0,24(sp)
E:\Works\NSCAM\obj/../LCD/oled.c:219
    char c = character - ' ';
    3d30:	fe068413          	addi	s0,a3,-32
E:\Works\NSCAM\obj/../LCD/oled.c:220
    if (p->FontSize == FontBig)
    3d34:	4514                	lw	a3,8(a0)
E:\Works\NSCAM\obj/../LCD/oled.c:218
void _oled_draw(pOLED* p, uint8_t x, uint8_t y, char character) {
    3d36:	ca26                	sw	s1,20(sp)
    3d38:	c84a                	sw	s2,16(sp)
    3d3a:	c64e                	sw	s3,12(sp)
E:\Works\NSCAM\obj/../LCD/oled.c:219
    char c = character - ' ';
    3d3c:	0462                	slli	s0,s0,0x18
    3d3e:	01859793          	slli	a5,a1,0x18
E:\Works\NSCAM\obj/../LCD/oled.c:218
void _oled_draw(pOLED* p, uint8_t x, uint8_t y, char character) {
    3d42:	ce06                	sw	ra,28(sp)
    3d44:	c452                	sw	s4,8(sp)
    3d46:	c256                	sw	s5,4(sp)
    3d48:	c05a                	sw	s6,0(sp)
E:\Works\NSCAM\obj/../LCD/oled.c:220
    if (p->FontSize == FontBig)
    3d4a:	4709                	li	a4,2
E:\Works\NSCAM\obj/../LCD/oled.c:218
void _oled_draw(pOLED* p, uint8_t x, uint8_t y, char character) {
    3d4c:	892a                	mv	s2,a0
    3d4e:	89ae                	mv	s3,a1
    3d50:	84b2                	mv	s1,a2
E:\Works\NSCAM\obj/../LCD/oled.c:219
    char c = character - ' ';
    3d52:	8461                	srai	s0,s0,0x18
E:\Works\NSCAM\obj/../LCD/oled.c:220
    if (p->FontSize == FontBig)
    3d54:	87e1                	srai	a5,a5,0x18
    3d56:	0ae69b63          	bne	a3,a4,3e0c <_oled_draw+0xe0>
E:\Works\NSCAM\obj/../LCD/oled.c:222
    {
        if (x >= 128) { x = 0; y = y + 2; }
    3d5a:	0007d763          	bgez	a5,3d68 <_oled_draw+0x3c>
E:\Works\NSCAM\obj/../LCD/oled.c:222 (discriminator 1)
    3d5e:	00260493          	addi	s1,a2,2
    3d62:	0ff4f493          	andi	s1,s1,255
    3d66:	4981                	li	s3,0
E:\Works\NSCAM\obj/../LCD/oled.c:225
        _oled_setPosition(p, x, y);
        for (uint8_t i = 0; i < 8; i++)
            _oled_writeData(p, (p->Color == White) ? getFont(1)[c * 16 + i] : ~getFont(1)[c * 16 + i]);
    3d68:	0412                	slli	s0,s0,0x4
E:\Works\NSCAM\obj/../LCD/oled.c:223
        _oled_setPosition(p, x, y);
    3d6a:	8626                	mv	a2,s1
    3d6c:	85ce                	mv	a1,s3
    3d6e:	854a                	mv	a0,s2
    3d70:	d47ff0ef          	jal	ra,3ab6 <_oled_setPosition>
E:\Works\NSCAM\obj/../LCD/oled.c:224
        for (uint8_t i = 0; i < 8; i++)
    3d74:	00840a13          	addi	s4,s0,8
E:\Works\NSCAM\obj/../LCD/oled.c:225
            _oled_writeData(p, (p->Color == White) ? getFont(1)[c * 16 + i] : ~getFont(1)[c * 16 + i]);
    3d78:	8aa2                	mv	s5,s0
    3d7a:	4b05                	li	s6,1
    3d7c:	00492783          	lw	a5,4(s2)
    3d80:	4505                	li	a0,1
    3d82:	07679163          	bne	a5,s6,3de4 <_oled_draw+0xb8>
E:\Works\NSCAM\obj/../LCD/oled.c:225 (discriminator 1)
    3d86:	a5afe0ef          	jal	ra,1fe0 <getFont>
    3d8a:	9556                	add	a0,a0,s5
    3d8c:	00054583          	lbu	a1,0(a0)
E:\Works\NSCAM\obj/../LCD/oled.c:225 (discriminator 4)
    3d90:	854a                	mv	a0,s2
    3d92:	0a85                	addi	s5,s5,1
    3d94:	ce9ff0ef          	jal	ra,3a7c <_oled_writeData>
E:\Works\NSCAM\obj/../LCD/oled.c:224 (discriminator 4)
        for (uint8_t i = 0; i < 8; i++)
    3d98:	ff4a92e3          	bne	s5,s4,3d7c <_oled_draw+0x50>
E:\Works\NSCAM\obj/../LCD/oled.c:226
        _oled_setPosition(p, x, y + 1);
    3d9c:	00148613          	addi	a2,s1,1
    3da0:	0ff67613          	andi	a2,a2,255
    3da4:	85ce                	mv	a1,s3
    3da6:	854a                	mv	a0,s2
    3da8:	d0fff0ef          	jal	ra,3ab6 <_oled_setPosition>
E:\Works\NSCAM\obj/../LCD/oled.c:227
        for (uint8_t i = 0; i < 8; i++)
    3dac:	0441                	addi	s0,s0,16
E:\Works\NSCAM\obj/../LCD/oled.c:228
            _oled_writeData(p, (p->Color == White) ? getFont(1)[c * 16 + i + 8] : ~getFont(1)[c * 16 + i + 8]);
    3dae:	4485                	li	s1,1
    3db0:	00492783          	lw	a5,4(s2)
    3db4:	4505                	li	a0,1
    3db6:	04979163          	bne	a5,s1,3df8 <_oled_draw+0xcc>
E:\Works\NSCAM\obj/../LCD/oled.c:228 (discriminator 1)
    3dba:	a26fe0ef          	jal	ra,1fe0 <getFont>
    3dbe:	9552                	add	a0,a0,s4
    3dc0:	00054583          	lbu	a1,0(a0)
E:\Works\NSCAM\obj/../LCD/oled.c:228 (discriminator 4)
    3dc4:	854a                	mv	a0,s2
    3dc6:	0a05                	addi	s4,s4,1
    3dc8:	cb5ff0ef          	jal	ra,3a7c <_oled_writeData>
E:\Works\NSCAM\obj/../LCD/oled.c:227 (discriminator 4)
        for (uint8_t i = 0; i < 8; i++)
    3dcc:	ff4412e3          	bne	s0,s4,3db0 <_oled_draw+0x84>
E:\Works\NSCAM\obj/../LCD/oled.c:235
        if (x >= 128) { x = 0; y = y + 1; }
        _oled_setPosition(p, x, y);
        for (uint8_t i = 0; i < 6; i++)
            _oled_writeData(p, (p->Color == White) ? getFont(0)[c * 6 + i] : ~getFont(0)[c * 6 + i]);
    }
}
    3dd0:	40f2                	lw	ra,28(sp)
    3dd2:	4462                	lw	s0,24(sp)
    3dd4:	44d2                	lw	s1,20(sp)
    3dd6:	4942                	lw	s2,16(sp)
    3dd8:	49b2                	lw	s3,12(sp)
    3dda:	4a22                	lw	s4,8(sp)
    3ddc:	4a92                	lw	s5,4(sp)
    3dde:	4b02                	lw	s6,0(sp)
    3de0:	6105                	addi	sp,sp,32
    3de2:	8082                	ret
E:\Works\NSCAM\obj/../LCD/oled.c:225 (discriminator 2)
            _oled_writeData(p, (p->Color == White) ? getFont(1)[c * 16 + i] : ~getFont(1)[c * 16 + i]);
    3de4:	9fcfe0ef          	jal	ra,1fe0 <getFont>
    3de8:	9556                	add	a0,a0,s5
    3dea:	00054583          	lbu	a1,0(a0)
    3dee:	fff5c593          	not	a1,a1
    3df2:	0ff5f593          	andi	a1,a1,255
    3df6:	bf69                	j	3d90 <_oled_draw+0x64>
E:\Works\NSCAM\obj/../LCD/oled.c:228 (discriminator 2)
            _oled_writeData(p, (p->Color == White) ? getFont(1)[c * 16 + i + 8] : ~getFont(1)[c * 16 + i + 8]);
    3df8:	9e8fe0ef          	jal	ra,1fe0 <getFont>
    3dfc:	9552                	add	a0,a0,s4
    3dfe:	00054583          	lbu	a1,0(a0)
    3e02:	fff5c593          	not	a1,a1
    3e06:	0ff5f593          	andi	a1,a1,255
    3e0a:	bf6d                	j	3dc4 <_oled_draw+0x98>
E:\Works\NSCAM\obj/../LCD/oled.c:230
        if (x >= 128) { x = 0; y = y + 1; }
    3e0c:	0007d763          	bgez	a5,3e1a <_oled_draw+0xee>
E:\Works\NSCAM\obj/../LCD/oled.c:230 (discriminator 1)
    3e10:	00160493          	addi	s1,a2,1
    3e14:	0ff4f493          	andi	s1,s1,255
    3e18:	4981                	li	s3,0
E:\Works\NSCAM\obj/../LCD/oled.c:231
        _oled_setPosition(p, x, y);
    3e1a:	8626                	mv	a2,s1
    3e1c:	85ce                	mv	a1,s3
    3e1e:	854a                	mv	a0,s2
    3e20:	c97ff0ef          	jal	ra,3ab6 <_oled_setPosition>
E:\Works\NSCAM\obj/../LCD/oled.c:233
            _oled_writeData(p, (p->Color == White) ? getFont(0)[c * 6 + i] : ~getFont(0)[c * 6 + i]);
    3e24:	4699                	li	a3,6
    3e26:	02d40433          	mul	s0,s0,a3
    3e2a:	4985                	li	s3,1
    3e2c:	00640493          	addi	s1,s0,6
    3e30:	00492783          	lw	a5,4(s2)
    3e34:	4501                	li	a0,0
    3e36:	01379e63          	bne	a5,s3,3e52 <_oled_draw+0x126>
E:\Works\NSCAM\obj/../LCD/oled.c:233 (discriminator 1)
    3e3a:	9a6fe0ef          	jal	ra,1fe0 <getFont>
    3e3e:	9522                	add	a0,a0,s0
    3e40:	00054583          	lbu	a1,0(a0)
E:\Works\NSCAM\obj/../LCD/oled.c:233 (discriminator 4)
    3e44:	854a                	mv	a0,s2
    3e46:	0405                	addi	s0,s0,1
    3e48:	c35ff0ef          	jal	ra,3a7c <_oled_writeData>
E:\Works\NSCAM\obj/../LCD/oled.c:232 (discriminator 4)
        for (uint8_t i = 0; i < 6; i++)
    3e4c:	fe9412e3          	bne	s0,s1,3e30 <_oled_draw+0x104>
    3e50:	b741                	j	3dd0 <_oled_draw+0xa4>
E:\Works\NSCAM\obj/../LCD/oled.c:233 (discriminator 2)
            _oled_writeData(p, (p->Color == White) ? getFont(0)[c * 6 + i] : ~getFont(0)[c * 6 + i]);
    3e52:	98efe0ef          	jal	ra,1fe0 <getFont>
    3e56:	9522                	add	a0,a0,s0
    3e58:	00054583          	lbu	a1,0(a0)
    3e5c:	fff5c593          	not	a1,a1
    3e60:	0ff5f593          	andi	a1,a1,255
    3e64:	b7c5                	j	3e44 <_oled_draw+0x118>

00003e66 <_oled_print>:
_oled_print():
E:\Works\NSCAM\obj/../LCD/oled.c:239

void _oled_print(pOLED* p, uint8_t x, uint8_t y, char* string) {
    int i = 0;
    if (p->FontSize == FontBig) {
    3e66:	4518                	lw	a4,8(a0)
E:\Works\NSCAM\obj/../LCD/oled.c:237
void _oled_print(pOLED* p, uint8_t x, uint8_t y, char* string) {
    3e68:	1101                	addi	sp,sp,-32
    3e6a:	cc22                	sw	s0,24(sp)
    3e6c:	ca26                	sw	s1,20(sp)
    3e6e:	c84a                	sw	s2,16(sp)
    3e70:	c64e                	sw	s3,12(sp)
    3e72:	c452                	sw	s4,8(sp)
    3e74:	c256                	sw	s5,4(sp)
    3e76:	ce06                	sw	ra,28(sp)
E:\Works\NSCAM\obj/../LCD/oled.c:239
    if (p->FontSize == FontBig) {
    3e78:	4789                	li	a5,2
E:\Works\NSCAM\obj/../LCD/oled.c:237
void _oled_print(pOLED* p, uint8_t x, uint8_t y, char* string) {
    3e7a:	89aa                	mv	s3,a0
    3e7c:	84ae                	mv	s1,a1
    3e7e:	8432                	mv	s0,a2
E:\Works\NSCAM\obj/../LCD/oled.c:239
    if (p->FontSize == FontBig) {
    3e80:	8936                	mv	s2,a3
E:\Works\NSCAM\obj/../LCD/oled.c:241
        while (string[i] != '\0') {
            if (string[i] == '\n') {
    3e82:	4a29                	li	s4,10
E:\Works\NSCAM\obj/../LCD/oled.c:247
                i++; x = 0; y += 2;
                continue;
            }
            _oled_draw(p, x, y, string[i]);
            x += 8;
            if (x > 120) { x = 0; y += 2; }
    3e84:	07800a93          	li	s5,120
E:\Works\NSCAM\obj/../LCD/oled.c:239
    if (p->FontSize == FontBig) {
    3e88:	02f70e63          	beq	a4,a5,3ec4 <_oled_print+0x5e>
E:\Works\NSCAM\obj/../LCD/oled.c:252
            i++;
        }
    }
    else {
        while (string[i] != '\0') {
    3e8c:	00090683          	lb	a3,0(s2)
    3e90:	ce8d                	beqz	a3,3eca <_oled_print+0x64>
E:\Works\NSCAM\obj/../LCD/oled.c:253
            if (string[i] == '\n') {
    3e92:	05469563          	bne	a3,s4,3edc <_oled_print+0x76>
E:\Works\NSCAM\obj/../LCD/oled.c:259 (discriminator 1)
                i++; x = 0; y++;
                continue;
            }
            _oled_draw(p, x, y, string[i]);
            x += 6;
            if (x > 120) { x = 0; y += 1; }
    3e96:	0405                	addi	s0,s0,1
    3e98:	0ff47413          	andi	s0,s0,255
    3e9c:	4481                	li	s1,0
E:\Works\NSCAM\obj/../LCD/oled.c:260 (discriminator 1)
            i++;
    3e9e:	a889                	j	3ef0 <_oled_print+0x8a>
E:\Works\NSCAM\obj/../LCD/oled.c:241
            if (string[i] == '\n') {
    3ea0:	01469763          	bne	a3,s4,3eae <_oled_print+0x48>
E:\Works\NSCAM\obj/../LCD/oled.c:247
            if (x > 120) { x = 0; y += 2; }
    3ea4:	0409                	addi	s0,s0,2
    3ea6:	0ff47413          	andi	s0,s0,255
    3eaa:	4481                	li	s1,0
E:\Works\NSCAM\obj/../LCD/oled.c:248
            i++;
    3eac:	a819                	j	3ec2 <_oled_print+0x5c>
E:\Works\NSCAM\obj/../LCD/oled.c:245
            _oled_draw(p, x, y, string[i]);
    3eae:	85a6                	mv	a1,s1
E:\Works\NSCAM\obj/../LCD/oled.c:246
            x += 8;
    3eb0:	04a1                	addi	s1,s1,8
E:\Works\NSCAM\obj/../LCD/oled.c:245
            _oled_draw(p, x, y, string[i]);
    3eb2:	8622                	mv	a2,s0
    3eb4:	854e                	mv	a0,s3
E:\Works\NSCAM\obj/../LCD/oled.c:246
            x += 8;
    3eb6:	0ff4f493          	andi	s1,s1,255
E:\Works\NSCAM\obj/../LCD/oled.c:245
            _oled_draw(p, x, y, string[i]);
    3eba:	e73ff0ef          	jal	ra,3d2c <_oled_draw>
E:\Works\NSCAM\obj/../LCD/oled.c:247
            if (x > 120) { x = 0; y += 2; }
    3ebe:	fe9ae3e3          	bltu	s5,s1,3ea4 <_oled_print+0x3e>
    3ec2:	0905                	addi	s2,s2,1
E:\Works\NSCAM\obj/../LCD/oled.c:240
        while (string[i] != '\0') {
    3ec4:	00090683          	lb	a3,0(s2)
    3ec8:	fee1                	bnez	a3,3ea0 <_oled_print+0x3a>
E:\Works\NSCAM\obj/../LCD/oled.c:263
        }
    }
}
    3eca:	40f2                	lw	ra,28(sp)
    3ecc:	4462                	lw	s0,24(sp)
    3ece:	44d2                	lw	s1,20(sp)
    3ed0:	4942                	lw	s2,16(sp)
    3ed2:	49b2                	lw	s3,12(sp)
    3ed4:	4a22                	lw	s4,8(sp)
    3ed6:	4a92                	lw	s5,4(sp)
    3ed8:	6105                	addi	sp,sp,32
    3eda:	8082                	ret
E:\Works\NSCAM\obj/../LCD/oled.c:257
            _oled_draw(p, x, y, string[i]);
    3edc:	85a6                	mv	a1,s1
E:\Works\NSCAM\obj/../LCD/oled.c:258
            x += 6;
    3ede:	0499                	addi	s1,s1,6
E:\Works\NSCAM\obj/../LCD/oled.c:257
            _oled_draw(p, x, y, string[i]);
    3ee0:	8622                	mv	a2,s0
    3ee2:	854e                	mv	a0,s3
E:\Works\NSCAM\obj/../LCD/oled.c:258
            x += 6;
    3ee4:	0ff4f493          	andi	s1,s1,255
E:\Works\NSCAM\obj/../LCD/oled.c:257
            _oled_draw(p, x, y, string[i]);
    3ee8:	e45ff0ef          	jal	ra,3d2c <_oled_draw>
E:\Works\NSCAM\obj/../LCD/oled.c:259
            if (x > 120) { x = 0; y += 1; }
    3eec:	fa9ae5e3          	bltu	s5,s1,3e96 <_oled_print+0x30>
    3ef0:	0905                	addi	s2,s2,1
    3ef2:	bf69                	j	3e8c <_oled_print+0x26>

00003ef4 <_oled_printf>:
_oled_printf():
E:\Works\NSCAM\obj/../LCD/oled.c:265

int _oled_printf(pOLED* p, uint8_t x, uint8_t y, const char* format, ...) {
    3ef4:	715d                	addi	sp,sp,-80
    3ef6:	d84a                	sw	s2,48(sp)
    3ef8:	892a                	mv	s2,a0
E:\Works\NSCAM\obj/../LCD/oled.c:266
    char* iobuf = malloc(sizeof(char) * IOBUF_SIZE);
    3efa:	08000513          	li	a0,128
E:\Works\NSCAM\obj/../LCD/oled.c:265
int _oled_printf(pOLED* p, uint8_t x, uint8_t y, const char* format, ...) {
    3efe:	de06                	sw	ra,60(sp)
    3f00:	dc22                	sw	s0,56(sp)
    3f02:	da26                	sw	s1,52(sp)
    3f04:	d64e                	sw	s3,44(sp)
    3f06:	d452                	sw	s4,40(sp)
    3f08:	c0ba                	sw	a4,64(sp)
    3f0a:	c2be                	sw	a5,68(sp)
    3f0c:	c4c2                	sw	a6,72(sp)
    3f0e:	c6c6                	sw	a7,76(sp)
    3f10:	89ae                	mv	s3,a1
    3f12:	8a32                	mv	s4,a2
    3f14:	c636                	sw	a3,12(sp)
E:\Works\NSCAM\obj/../LCD/oled.c:266
    char* iobuf = malloc(sizeof(char) * IOBUF_SIZE);
    3f16:	3cf020ef          	jal	ra,6ae4 <malloc>
E:\Works\NSCAM\obj/../LCD/oled.c:269
    va_list args;
    va_start(args, format);
    int result = vsprintf(iobuf, format, args);
    3f1a:	46b2                	lw	a3,12(sp)
E:\Works\NSCAM\obj/../LCD/oled.c:268
    va_start(args, format);
    3f1c:	0090                	addi	a2,sp,64
E:\Works\NSCAM\obj/../LCD/oled.c:266
    char* iobuf = malloc(sizeof(char) * IOBUF_SIZE);
    3f1e:	842a                	mv	s0,a0
E:\Works\NSCAM\obj/../LCD/oled.c:269
    int result = vsprintf(iobuf, format, args);
    3f20:	85b6                	mv	a1,a3
E:\Works\NSCAM\obj/../LCD/oled.c:268
    va_start(args, format);
    3f22:	ce32                	sw	a2,28(sp)
E:\Works\NSCAM\obj/../LCD/oled.c:269
    int result = vsprintf(iobuf, format, args);
    3f24:	6ad020ef          	jal	ra,6dd0 <vsiprintf>
    3f28:	84aa                	mv	s1,a0
E:\Works\NSCAM\obj/../LCD/oled.c:271
    va_end(args);
    _oled_print(p, x, y, iobuf);
    3f2a:	86a2                	mv	a3,s0
    3f2c:	8652                	mv	a2,s4
    3f2e:	85ce                	mv	a1,s3
    3f30:	854a                	mv	a0,s2
    3f32:	f35ff0ef          	jal	ra,3e66 <_oled_print>
E:\Works\NSCAM\obj/../LCD/oled.c:272
    free(iobuf);
    3f36:	8522                	mv	a0,s0
    3f38:	3bb020ef          	jal	ra,6af2 <free>
E:\Works\NSCAM\obj/../LCD/oled.c:274
    return result;
}
    3f3c:	50f2                	lw	ra,60(sp)
    3f3e:	5462                	lw	s0,56(sp)
    3f40:	8526                	mv	a0,s1
    3f42:	5942                	lw	s2,48(sp)
    3f44:	54d2                	lw	s1,52(sp)
    3f46:	59b2                	lw	s3,44(sp)
    3f48:	5a22                	lw	s4,40(sp)
    3f4a:	6161                	addi	sp,sp,80
    3f4c:	8082                	ret

00003f4e <_oled_printfc>:
_oled_printfc():
E:\Works\NSCAM\obj/../LCD/oled.c:276

int _oled_printfc(pOLED* p, uint8_t y, const char* format, ...) {
    3f4e:	711d                	addi	sp,sp,-96
    3f50:	da26                	sw	s1,52(sp)
    3f52:	84aa                	mv	s1,a0
E:\Works\NSCAM\obj/../LCD/oled.c:277
    char* iobuf = malloc(sizeof(char) * IOBUF_SIZE);
    3f54:	08000513          	li	a0,128
E:\Works\NSCAM\obj/../LCD/oled.c:276
int _oled_printfc(pOLED* p, uint8_t y, const char* format, ...) {
    3f58:	c8ba                	sw	a4,80(sp)
    3f5a:	cabe                	sw	a5,84(sp)
    3f5c:	de06                	sw	ra,60(sp)
    3f5e:	c6b6                	sw	a3,76(sp)
    3f60:	ccc2                	sw	a6,88(sp)
    3f62:	cec6                	sw	a7,92(sp)
    3f64:	dc22                	sw	s0,56(sp)
    3f66:	d84a                	sw	s2,48(sp)
    3f68:	d64e                	sw	s3,44(sp)
    3f6a:	c632                	sw	a2,12(sp)
    3f6c:	89ae                	mv	s3,a1
E:\Works\NSCAM\obj/../LCD/oled.c:277
    char* iobuf = malloc(sizeof(char) * IOBUF_SIZE);
    3f6e:	377020ef          	jal	ra,6ae4 <malloc>
E:\Works\NSCAM\obj/../LCD/oled.c:280
    va_list args;
    va_start(args, format);
    int result = vsprintf(iobuf, format, args);
    3f72:	45b2                	lw	a1,12(sp)
E:\Works\NSCAM\obj/../LCD/oled.c:279
    va_start(args, format);
    3f74:	00f0                	addi	a2,sp,76
E:\Works\NSCAM\obj/../LCD/oled.c:277
    char* iobuf = malloc(sizeof(char) * IOBUF_SIZE);
    3f76:	842a                	mv	s0,a0
E:\Works\NSCAM\obj/../LCD/oled.c:279
    va_start(args, format);
    3f78:	ce32                	sw	a2,28(sp)
E:\Works\NSCAM\obj/../LCD/oled.c:280
    int result = vsprintf(iobuf, format, args);
    3f7a:	657020ef          	jal	ra,6dd0 <vsiprintf>
    3f7e:	892a                	mv	s2,a0
E:\Works\NSCAM\obj/../LCD/oled.c:282
    va_end(args);
    uint8_t x = (128 - strlen(iobuf) * ((p->FontSize == FontBig) ? 8 : 6)) / 2;
    3f80:	8522                	mv	a0,s0
    3f82:	611020ef          	jal	ra,6d92 <strlen>
    3f86:	4498                	lw	a4,8(s1)
    3f88:	4789                	li	a5,2
    3f8a:	4599                	li	a1,6
    3f8c:	00f71363          	bne	a4,a5,3f92 <_oled_printfc+0x44>
    3f90:	45a1                	li	a1,8
E:\Works\NSCAM\obj/../LCD/oled.c:282 (discriminator 4)
    3f92:	02b50533          	mul	a0,a0,a1
    3f96:	08000593          	li	a1,128
E:\Works\NSCAM\obj/../LCD/oled.c:283 (discriminator 4)
    _oled_print(p, x, y, iobuf);
    3f9a:	86a2                	mv	a3,s0
    3f9c:	864e                	mv	a2,s3
E:\Works\NSCAM\obj/../LCD/oled.c:282 (discriminator 4)
    uint8_t x = (128 - strlen(iobuf) * ((p->FontSize == FontBig) ? 8 : 6)) / 2;
    3f9e:	8d89                	sub	a1,a1,a0
    3fa0:	8185                	srli	a1,a1,0x1
E:\Works\NSCAM\obj/../LCD/oled.c:283 (discriminator 4)
    _oled_print(p, x, y, iobuf);
    3fa2:	8526                	mv	a0,s1
    3fa4:	0ff5f593          	andi	a1,a1,255
    3fa8:	ebfff0ef          	jal	ra,3e66 <_oled_print>
E:\Works\NSCAM\obj/../LCD/oled.c:284 (discriminator 4)
    free(iobuf);
    3fac:	8522                	mv	a0,s0
    3fae:	345020ef          	jal	ra,6af2 <free>
E:\Works\NSCAM\obj/../LCD/oled.c:286 (discriminator 4)
    return result;
}
    3fb2:	50f2                	lw	ra,60(sp)
    3fb4:	5462                	lw	s0,56(sp)
    3fb6:	854a                	mv	a0,s2
    3fb8:	54d2                	lw	s1,52(sp)
    3fba:	5942                	lw	s2,48(sp)
    3fbc:	59b2                	lw	s3,44(sp)
    3fbe:	6125                	addi	sp,sp,96
    3fc0:	8082                	ret

00003fc2 <OLEDInit>:
OLEDInit():
E:\Works\NSCAM\obj/../LCD/oled.c:288

OLED* OLEDInit(uint8_t address) {
    3fc2:	1141                	addi	sp,sp,-16
    3fc4:	c226                	sw	s1,4(sp)
    3fc6:	84aa                	mv	s1,a0
E:\Works\NSCAM\obj/../LCD/oled.c:289
    pOLED* p = malloc(sizeof(pOLED));
    3fc8:	4531                	li	a0,12
E:\Works\NSCAM\obj/../LCD/oled.c:288
OLED* OLEDInit(uint8_t address) {
    3fca:	c606                	sw	ra,12(sp)
    3fcc:	c422                	sw	s0,8(sp)
E:\Works\NSCAM\obj/../LCD/oled.c:289
    pOLED* p = malloc(sizeof(pOLED));
    3fce:	317020ef          	jal	ra,6ae4 <malloc>
E:\Works\NSCAM\obj/../LCD/oled.c:291
    p->Addr = address;
    p->Color = White;
    3fd2:	4785                	li	a5,1
E:\Works\NSCAM\obj/../LCD/oled.c:289
    pOLED* p = malloc(sizeof(pOLED));
    3fd4:	842a                	mv	s0,a0
E:\Works\NSCAM\obj/../LCD/oled.c:290
    p->Addr = address;
    3fd6:	00950023          	sb	s1,0(a0)
E:\Works\NSCAM\obj/../LCD/oled.c:291
    p->Color = White;
    3fda:	c15c                	sw	a5,4(a0)
E:\Works\NSCAM\obj/../LCD/oled.c:292
    p->FontSize = FontSmall;
    3fdc:	c51c                	sw	a5,8(a0)
E:\Works\NSCAM\obj/../LCD/oled.c:294

    OLED* c = malloc(sizeof(OLED));
    3fde:	03800513          	li	a0,56
    3fe2:	303020ef          	jal	ra,6ae4 <malloc>
E:\Works\NSCAM\obj/../LCD/oled.c:296
    c->p = p;
    c->trans = &_oled_trans;
    3fe6:	00004737          	lui	a4,0x4
    3fea:	83270713          	addi	a4,a4,-1998 # 3832 <_oled_trans>
    3fee:	c158                	sw	a4,4(a0)
E:\Works\NSCAM\obj/../LCD/oled.c:302
    #ifdef OLED_USE_PRIVATE_FUN
    c->writeCommand = &_oled_writeCommand;
    c->writeData = &_oled_writeData;
    c->setPosition = &_oled_setPosition;
    #endif
    c->color = &_oled_color;
    3ff0:	00004737          	lui	a4,0x4
    3ff4:	83870713          	addi	a4,a4,-1992 # 3838 <_oled_color>
    3ff8:	c518                	sw	a4,8(a0)
E:\Works\NSCAM\obj/../LCD/oled.c:303
    c->font = &_oled_font;
    3ffa:	00004737          	lui	a4,0x4
    3ffe:	83c70713          	addi	a4,a4,-1988 # 383c <_oled_font>
    4002:	c558                	sw	a4,12(a0)
E:\Works\NSCAM\obj/../LCD/oled.c:304
    c->clear = &_oled_clear;
    4004:	00004737          	lui	a4,0x4
    4008:	af270713          	addi	a4,a4,-1294 # 3af2 <_oled_clear>
    400c:	c918                	sw	a4,16(a0)
E:\Works\NSCAM\obj/../LCD/oled.c:305
    c->init = &_oled_init;
    400e:	00004737          	lui	a4,0x4
    4012:	b4670713          	addi	a4,a4,-1210 # 3b46 <_oled_init>
    4016:	c958                	sw	a4,20(a0)
E:\Works\NSCAM\obj/../LCD/oled.c:306
    c->bright = &_oled_bright;
    4018:	00004737          	lui	a4,0x4
    401c:	a0670713          	addi	a4,a4,-1530 # 3a06 <_oled_bright>
    4020:	cd18                	sw	a4,24(a0)
E:\Works\NSCAM\obj/../LCD/oled.c:307
    c->open = &_oled_open;
    4022:	00004737          	lui	a4,0x4
    4026:	a2c70713          	addi	a4,a4,-1492 # 3a2c <_oled_open>
    402a:	cd58                	sw	a4,28(a0)
E:\Works\NSCAM\obj/../LCD/oled.c:308
    c->close = &_oled_close;
    402c:	00004737          	lui	a4,0x4
    4030:	a5470713          	addi	a4,a4,-1452 # 3a54 <_oled_close>
    4034:	d118                	sw	a4,32(a0)
E:\Works\NSCAM\obj/../LCD/oled.c:309
    c->flash = &_oled_flash;
    4036:	00004737          	lui	a4,0x4
    403a:	cc070713          	addi	a4,a4,-832 # 3cc0 <_oled_flash>
    403e:	d158                	sw	a4,36(a0)
E:\Works\NSCAM\obj/../LCD/oled.c:310
    c->draw = &_oled_draw;
    4040:	00004737          	lui	a4,0x4
    4044:	d2c70713          	addi	a4,a4,-724 # 3d2c <_oled_draw>
    4048:	d518                	sw	a4,40(a0)
E:\Works\NSCAM\obj/../LCD/oled.c:311
    c->print = &_oled_print;
    404a:	00004737          	lui	a4,0x4
    404e:	e6670713          	addi	a4,a4,-410 # 3e66 <_oled_print>
    4052:	d558                	sw	a4,44(a0)
E:\Works\NSCAM\obj/../LCD/oled.c:312
    c->printf = &_oled_printf;
    4054:	00004737          	lui	a4,0x4
    4058:	ef470713          	addi	a4,a4,-268 # 3ef4 <_oled_printf>
E:\Works\NSCAM\obj/../LCD/oled.c:295
    c->p = p;
    405c:	c100                	sw	s0,0(a0)
E:\Works\NSCAM\obj/../LCD/oled.c:312
    c->printf = &_oled_printf;
    405e:	d918                	sw	a4,48(a0)
E:\Works\NSCAM\obj/../LCD/oled.c:316
    c->printfc = &_oled_printfc;

    return c;
}
    4060:	40b2                	lw	ra,12(sp)
    4062:	4422                	lw	s0,8(sp)
E:\Works\NSCAM\obj/../LCD/oled.c:313
    c->printfc = &_oled_printfc;
    4064:	00004737          	lui	a4,0x4
    4068:	f4e70713          	addi	a4,a4,-178 # 3f4e <_oled_printfc>
    406c:	d958                	sw	a4,52(a0)
E:\Works\NSCAM\obj/../LCD/oled.c:316
}
    406e:	4492                	lw	s1,4(sp)
    4070:	0141                	addi	sp,sp,16
    4072:	8082                	ret

00004074 <getRegValues>:
getRegValues():
E:\Works\NSCAM\obj/../LCD/regscreen.c:32
  ILI9341_DISPON  , 0x80,                // Display on
  0x00                                   // End of list
};

uint8_t* getRegValues() {
	return (uint8_t*) regs;
    4074:	6525                	lui	a0,0x9
E:\Works\NSCAM\obj/../LCD/regscreen.c:33
}
    4076:	acc50513          	addi	a0,a0,-1332 # 8acc <regs>
    407a:	8082                	ret

0000407c <disk_status>:
disk_status():
E:\Works\NSCAM\obj/../FATFS/diskio.c:27

DSTATUS disk_status (
	BYTE pdrv		/* Physical drive nmuber to identify the drive */
)
{
	if (SD_OK)
    407c:	8091c503          	lbu	a0,-2039(gp) # 20000069 <SD_OK>
E:\Works\NSCAM\obj/../FATFS/diskio.c:31
	    return RES_OK;

	return STA_NOINIT;
}
    4080:	00153513          	seqz	a0,a0
    4084:	8082                	ret

00004086 <disk_initialize>:
disk_initialize():
E:\Works\NSCAM\obj/../FATFS/diskio.c:43

DSTATUS disk_initialize (
	BYTE pdrv				/* Physical drive nmuber to identify the drive */
)
{
	if (!sd->avail(sd->p))
    4086:	8141a783          	lw	a5,-2028(gp) # 20000074 <sd>
E:\Works\NSCAM\obj/../FATFS/diskio.c:42
{
    408a:	1141                	addi	sp,sp,-16
    408c:	c606                	sw	ra,12(sp)
E:\Works\NSCAM\obj/../FATFS/diskio.c:43
	if (!sd->avail(sd->p))
    408e:	4798                	lw	a4,8(a5)
    4090:	4388                	lw	a0,0(a5)
    4092:	9702                	jalr	a4
    4094:	4789                	li	a5,2
    4096:	c509                	beqz	a0,40a0 <disk_initialize+0x1a>
E:\Works\NSCAM\obj/../FATFS/diskio.c:45
	    return STA_NODISK;
	if (SD_OK)
    4098:	8091c783          	lbu	a5,-2039(gp) # 20000069 <SD_OK>
E:\Works\NSCAM\obj/../FATFS/diskio.c:44
	    return STA_NODISK;
    409c:	0017b793          	seqz	a5,a5
E:\Works\NSCAM\obj/../FATFS/diskio.c:49
	    return RES_OK;

	return STA_NOINIT;
}
    40a0:	40b2                	lw	ra,12(sp)
    40a2:	853e                	mv	a0,a5
    40a4:	0141                	addi	sp,sp,16
    40a6:	8082                	ret

000040a8 <disk_read>:
disk_read():
E:\Works\NSCAM\obj/../FATFS/diskio.c:66
	UINT count		/* Number of sectors to read */
)
{
	int result;

	if (count == 1)
    40a8:	8141a783          	lw	a5,-2028(gp) # 20000074 <sd>
E:\Works\NSCAM\obj/../FATFS/diskio.c:63
{
    40ac:	1141                	addi	sp,sp,-16
    40ae:	872e                	mv	a4,a1
    40b0:	c606                	sw	ra,12(sp)
    40b2:	85b2                	mv	a1,a2
E:\Works\NSCAM\obj/../FATFS/diskio.c:66
	if (count == 1)
    40b4:	4605                	li	a2,1
    40b6:	4388                	lw	a0,0(a5)
    40b8:	00c69c63          	bne	a3,a2,40d0 <disk_read+0x28>
E:\Works\NSCAM\obj/../FATFS/diskio.c:67
	    result = sd->read(sd->p, sector, buff);
    40bc:	4fdc                	lw	a5,28(a5)
    40be:	863a                	mv	a2,a4
    40c0:	9782                	jalr	a5
E:\Works\NSCAM\obj/../FATFS/diskio.c:74
	    result = sd->reads(sd->p, sector, buff, count);

	if (result == 0)
	    return RES_OK;

	return RES_NOTRDY;
    40c2:	478d                	li	a5,3
E:\Works\NSCAM\obj/../FATFS/diskio.c:71
	if (result == 0)
    40c4:	e111                	bnez	a0,40c8 <disk_read+0x20>
E:\Works\NSCAM\obj/../FATFS/diskio.c:72
	    return RES_OK;
    40c6:	4781                	li	a5,0
E:\Works\NSCAM\obj/../FATFS/diskio.c:75
}
    40c8:	40b2                	lw	ra,12(sp)
    40ca:	853e                	mv	a0,a5
    40cc:	0141                	addi	sp,sp,16
    40ce:	8082                	ret
E:\Works\NSCAM\obj/../FATFS/diskio.c:69
	    result = sd->reads(sd->p, sector, buff, count);
    40d0:	53dc                	lw	a5,36(a5)
    40d2:	06c2                	slli	a3,a3,0x10
    40d4:	82c1                	srli	a3,a3,0x10
    40d6:	863a                	mv	a2,a4
    40d8:	9782                	jalr	a5
    40da:	b7e5                	j	40c2 <disk_read+0x1a>

000040dc <disk_write>:
disk_write():
E:\Works\NSCAM\obj/../FATFS/diskio.c:94
	UINT count			/* Number of sectors to write */
)
{
	int result;

	if (count == 1)
    40dc:	8141a783          	lw	a5,-2028(gp) # 20000074 <sd>
E:\Works\NSCAM\obj/../FATFS/diskio.c:91
{
    40e0:	1141                	addi	sp,sp,-16
    40e2:	872e                	mv	a4,a1
    40e4:	c606                	sw	ra,12(sp)
    40e6:	85b2                	mv	a1,a2
E:\Works\NSCAM\obj/../FATFS/diskio.c:94
	if (count == 1)
    40e8:	4605                	li	a2,1
    40ea:	4388                	lw	a0,0(a5)
    40ec:	00c69c63          	bne	a3,a2,4104 <disk_write+0x28>
E:\Works\NSCAM\obj/../FATFS/diskio.c:95
        result = sd->write(sd->p, sector, (uint8_t*) buff);
    40f0:	539c                	lw	a5,32(a5)
    40f2:	863a                	mv	a2,a4
    40f4:	9782                	jalr	a5
E:\Works\NSCAM\obj/../FATFS/diskio.c:102
	    result = sd->writes(sd->p, sector, (uint8_t*) buff, count);

    if (result == 0)
        return RES_OK;

	return RES_NOTRDY;
    40f6:	478d                	li	a5,3
E:\Works\NSCAM\obj/../FATFS/diskio.c:99
    if (result == 0)
    40f8:	e111                	bnez	a0,40fc <disk_write+0x20>
E:\Works\NSCAM\obj/../FATFS/diskio.c:100
        return RES_OK;
    40fa:	4781                	li	a5,0
E:\Works\NSCAM\obj/../FATFS/diskio.c:103
}
    40fc:	40b2                	lw	ra,12(sp)
    40fe:	853e                	mv	a0,a5
    4100:	0141                	addi	sp,sp,16
    4102:	8082                	ret
E:\Works\NSCAM\obj/../FATFS/diskio.c:97
	    result = sd->writes(sd->p, sector, (uint8_t*) buff, count);
    4104:	579c                	lw	a5,40(a5)
    4106:	06c2                	slli	a3,a3,0x10
    4108:	82c1                	srli	a3,a3,0x10
    410a:	863a                	mv	a2,a4
    410c:	9782                	jalr	a5
    410e:	b7e5                	j	40f6 <disk_write+0x1a>

00004110 <disk_ioctl>:
disk_ioctl():
E:\Works\NSCAM\obj/../FATFS/diskio.c:119
	BYTE cmd,		/* Control code */
	void *buff		/* Buffer to send/receive control data */
)
{
	return RES_OK;
}
    4110:	4501                	li	a0,0
    4112:	8082                	ret

00004114 <ld_dword>:
ld_dword():
E:\Works\NSCAM\obj/../FATFS/ff.c:628
static DWORD ld_dword (const BYTE* ptr)	/* Load a 4-byte little-endian word */
{
	DWORD rv;

	rv = ptr[3];
	rv = rv << 8 | ptr[2];
    4114:	00354783          	lbu	a5,3(a0)
    4118:	00254703          	lbu	a4,2(a0)
    411c:	07a2                	slli	a5,a5,0x8
    411e:	8fd9                	or	a5,a5,a4
E:\Works\NSCAM\obj/../FATFS/ff.c:629
	rv = rv << 8 | ptr[1];
    4120:	00154703          	lbu	a4,1(a0)
    4124:	07a2                	slli	a5,a5,0x8
E:\Works\NSCAM\obj/../FATFS/ff.c:630
	rv = rv << 8 | ptr[0];
    4126:	00054503          	lbu	a0,0(a0)
E:\Works\NSCAM\obj/../FATFS/ff.c:629
	rv = rv << 8 | ptr[1];
    412a:	8fd9                	or	a5,a5,a4
E:\Works\NSCAM\obj/../FATFS/ff.c:630
	rv = rv << 8 | ptr[0];
    412c:	07a2                	slli	a5,a5,0x8
E:\Works\NSCAM\obj/../FATFS/ff.c:632
	return rv;
}
    412e:	8d5d                	or	a0,a0,a5
    4130:	8082                	ret

00004132 <clst2sect>:
clst2sect():
E:\Works\NSCAM\obj/../FATFS/ff.c:1120
	FATFS* fs,		/* Filesystem object */
	DWORD clst		/* Cluster# to be converted */
)
{
	clst -= 2;		/* Cluster number is origin from 2 */
	if (clst >= fs->n_fatent - 2) return 0;		/* Is it invalid cluster number? */
    4132:	4958                	lw	a4,20(a0)
E:\Works\NSCAM\obj/../FATFS/ff.c:1119
	clst -= 2;		/* Cluster number is origin from 2 */
    4134:	15f9                	addi	a1,a1,-2
E:\Works\NSCAM\obj/../FATFS/ff.c:1120
	if (clst >= fs->n_fatent - 2) return 0;		/* Is it invalid cluster number? */
    4136:	1779                	addi	a4,a4,-2
    4138:	00e5f963          	bgeu	a1,a4,414a <clst2sect+0x18>
E:\Works\NSCAM\obj/../FATFS/ff.c:1121
	return fs->database + (LBA_t)fs->csize * clst;	/* Start sector number of the cluster */
    413c:	00a55783          	lhu	a5,10(a0)
    4140:	5508                	lw	a0,40(a0)
    4142:	02b787b3          	mul	a5,a5,a1
    4146:	953e                	add	a0,a0,a5
    4148:	8082                	ret
E:\Works\NSCAM\obj/../FATFS/ff.c:1120
	if (clst >= fs->n_fatent - 2) return 0;		/* Is it invalid cluster number? */
    414a:	4501                	li	a0,0
E:\Works\NSCAM\obj/../FATFS/ff.c:1122
}
    414c:	8082                	ret

0000414e <get_ldnumber>:
get_ldnumber():
E:\Works\NSCAM\obj/../FATFS/ff.c:3103
#if FF_STR_VOLUME_ID		/* Find string volume ID */
	const char *sp;
	char c;
#endif

	tt = tp = *path;
    414e:	411c                	lw	a5,0(a0)
E:\Works\NSCAM\obj/../FATFS/ff.c:3104
	if (!tp) return vol;	/* Invalid path name? */
    4150:	c39d                	beqz	a5,4176 <get_ldnumber+0x28>
    4152:	873e                	mv	a4,a5
E:\Works\NSCAM\obj/../FATFS/ff.c:3105
	do tc = *tt++; while (!IsTerminator(tc) && tc != ':');	/* Find a colon in the path */
    4154:	02000593          	li	a1,32
    4158:	03a00613          	li	a2,58
E:\Works\NSCAM\obj/../FATFS/ff.c:3105 (discriminator 2)
    415c:	0705                	addi	a4,a4,1
    415e:	fff70683          	lb	a3,-1(a4)
    4162:	0ff6f813          	andi	a6,a3,255
    4166:	0305f263          	bgeu	a1,a6,418a <get_ldnumber+0x3c>
E:\Works\NSCAM\obj/../FATFS/ff.c:3105 (discriminator 1)
    416a:	fec699e3          	bne	a3,a2,415c <get_ldnumber+0xe>
E:\Works\NSCAM\obj/../FATFS/ff.c:3109

	if (tc == ':') {	/* DOS/Windows style volume ID? */
		i = FF_VOLUMES;
		if (IsDigit(*tp) && tp + 2 == tt) {	/* Is there a numeric volume ID + colon? */
    416e:	00278693          	addi	a3,a5,2
    4172:	00d70463          	beq	a4,a3,417a <get_ldnumber+0x2c>
E:\Works\NSCAM\obj/../FATFS/ff.c:3104
	if (!tp) return vol;	/* Invalid path name? */
    4176:	57fd                	li	a5,-1
    4178:	a811                	j	418c <get_ldnumber+0x3e>
E:\Works\NSCAM\obj/../FATFS/ff.c:3125
					if (IsLower(tc)) tc -= 0x20;
				} while (c && (TCHAR)c == tc);
			} while ((c || tp != tt) && ++i < FF_VOLUMES);	/* Repeat for each id until pattern match */
		}
#endif
		if (i < FF_VOLUMES) {	/* If a volume ID is found, get the drive number and strip it */
    417a:	00078603          	lb	a2,0(a5)
    417e:	03000693          	li	a3,48
E:\Works\NSCAM\obj/../FATFS/ff.c:3104
	if (!tp) return vol;	/* Invalid path name? */
    4182:	57fd                	li	a5,-1
E:\Works\NSCAM\obj/../FATFS/ff.c:3125
		if (i < FF_VOLUMES) {	/* If a volume ID is found, get the drive number and strip it */
    4184:	00d61463          	bne	a2,a3,418c <get_ldnumber+0x3e>
E:\Works\NSCAM\obj/../FATFS/ff.c:3127
			vol = i;		/* Drive number */
			*path = tt;		/* Snip the drive prefix off */
    4188:	c118                	sw	a4,0(a0)
E:\Works\NSCAM\obj/../FATFS/ff.c:3156
#if FF_FS_RPATH != 0
	vol = CurrVol;	/* Default drive is current drive */
#else
	vol = 0;		/* Default drive is 0 */
#endif
	return vol;		/* Return the default drive */
    418a:	4781                	li	a5,0
E:\Works\NSCAM\obj/../FATFS/ff.c:3157
}
    418c:	853e                	mv	a0,a5
    418e:	8082                	ret

00004190 <validate>:
validate():
E:\Works\NSCAM\obj/../FATFS/ff.c:3569
)
{
	FRESULT res = FR_INVALID_OBJECT;


	if (obj && obj->fs && obj->fs->fs_type && obj->id == obj->fs->id) {	/* Test if the object is valid */
    4190:	ed01                	bnez	a0,41a8 <validate+0x18>
E:\Works\NSCAM\obj/../FATFS/ff.c:3586
		if (!(disk_status(obj->fs->pdrv) & STA_NOINIT)) { /* Test if the phsical drive is kept initialized */
			res = FR_OK;
		}
#endif
	}
	*rfs = (res == FR_OK) ? obj->fs : 0;	/* Corresponding filesystem object */
    4192:	4781                	li	a5,0
E:\Works\NSCAM\obj/../FATFS/ff.c:3566
	FRESULT res = FR_INVALID_OBJECT;
    4194:	4525                	li	a0,9
E:\Works\NSCAM\obj/../FATFS/ff.c:3586
	*rfs = (res == FR_OK) ? obj->fs : 0;	/* Corresponding filesystem object */
    4196:	c19c                	sw	a5,0(a1)
E:\Works\NSCAM\obj/../FATFS/ff.c:3588
	return res;
}
    4198:	8082                	ret
E:\Works\NSCAM\obj/../FATFS/ff.c:3566
	FRESULT res = FR_INVALID_OBJECT;
    419a:	4525                	li	a0,9
E:\Works\NSCAM\obj/../FATFS/ff.c:3586
	*rfs = (res == FR_OK) ? obj->fs : 0;	/* Corresponding filesystem object */
    419c:	4781                	li	a5,0
E:\Works\NSCAM\obj/../FATFS/ff.c:3588 (discriminator 4)
}
    419e:	40f2                	lw	ra,28(sp)
    41a0:	4462                	lw	s0,24(sp)
E:\Works\NSCAM\obj/../FATFS/ff.c:3586 (discriminator 4)
	*rfs = (res == FR_OK) ? obj->fs : 0;	/* Corresponding filesystem object */
    41a2:	c19c                	sw	a5,0(a1)
E:\Works\NSCAM\obj/../FATFS/ff.c:3588 (discriminator 4)
}
    41a4:	6105                	addi	sp,sp,32
    41a6:	8082                	ret
E:\Works\NSCAM\obj/../FATFS/ff.c:3569 (discriminator 1)
	if (obj && obj->fs && obj->fs->fs_type && obj->id == obj->fs->id) {	/* Test if the object is valid */
    41a8:	411c                	lw	a5,0(a0)
E:\Works\NSCAM\obj/../FATFS/ff.c:3565 (discriminator 1)
{
    41aa:	1101                	addi	sp,sp,-32
    41ac:	cc22                	sw	s0,24(sp)
    41ae:	ce06                	sw	ra,28(sp)
    41b0:	842a                	mv	s0,a0
E:\Works\NSCAM\obj/../FATFS/ff.c:3569 (discriminator 1)
	if (obj && obj->fs && obj->fs->fs_type && obj->id == obj->fs->id) {	/* Test if the object is valid */
    41b2:	d7e5                	beqz	a5,419a <validate+0xa>
E:\Works\NSCAM\obj/../FATFS/ff.c:3569 (discriminator 2)
    41b4:	0007c703          	lbu	a4,0(a5)
    41b8:	d36d                	beqz	a4,419a <validate+0xa>
E:\Works\NSCAM\obj/../FATFS/ff.c:3569 (discriminator 3)
    41ba:	00455683          	lhu	a3,4(a0)
    41be:	0067d703          	lhu	a4,6(a5)
    41c2:	fce69ce3          	bne	a3,a4,419a <validate+0xa>
E:\Works\NSCAM\obj/../FATFS/ff.c:3581
		if (!(disk_status(obj->fs->pdrv) & STA_NOINIT)) { /* Test if the phsical drive is kept initialized */
    41c6:	0017c503          	lbu	a0,1(a5)
    41ca:	c62e                	sw	a1,12(sp)
    41cc:	eb1ff0ef          	jal	ra,407c <disk_status>
    41d0:	8905                	andi	a0,a0,1
    41d2:	45b2                	lw	a1,12(sp)
    41d4:	f179                	bnez	a0,419a <validate+0xa>
E:\Works\NSCAM\obj/../FATFS/ff.c:3586
	*rfs = (res == FR_OK) ? obj->fs : 0;	/* Corresponding filesystem object */
    41d6:	401c                	lw	a5,0(s0)
    41d8:	b7d9                	j	419e <validate+0xe>

000041da <ld_clust.isra.2>:
ld_word():
E:\Works\NSCAM\obj/../FATFS/ff.c:619
	rv = rv << 8 | ptr[0];
    41da:	01b5c783          	lbu	a5,27(a1)
    41de:	01a5c703          	lbu	a4,26(a1)
    41e2:	07a2                	slli	a5,a5,0x8
ld_clust():
E:\Works\NSCAM\obj/../FATFS/ff.c:1824
	cl = ld_word(dir + DIR_FstClusLO);
    41e4:	8fd9                	or	a5,a5,a4
E:\Works\NSCAM\obj/../FATFS/ff.c:1825
	if (fs->fs_type == FS_FAT32) {
    41e6:	470d                	li	a4,3
    41e8:	00e51a63          	bne	a0,a4,41fc <ld_clust.isra.2+0x22>
ld_word():
E:\Works\NSCAM\obj/../FATFS/ff.c:619
	rv = rv << 8 | ptr[0];
    41ec:	0155c703          	lbu	a4,21(a1)
    41f0:	0145c683          	lbu	a3,20(a1)
    41f4:	0722                	slli	a4,a4,0x8
ld_clust():
E:\Works\NSCAM\obj/../FATFS/ff.c:1826
		cl |= (DWORD)ld_word(dir + DIR_FstClusHI) << 16;
    41f6:	8f55                	or	a4,a4,a3
    41f8:	0742                	slli	a4,a4,0x10
    41fa:	8fd9                	or	a5,a5,a4
E:\Works\NSCAM\obj/../FATFS/ff.c:1830
}
    41fc:	853e                	mv	a0,a5
    41fe:	8082                	ret

00004200 <st_clust.isra.3>:
st_word():
E:\Works\NSCAM\obj/../FATFS/ff.c:654
	*ptr++ = (BYTE)val; val >>= 8;
    4200:	01061793          	slli	a5,a2,0x10
    4204:	83c1                	srli	a5,a5,0x10
    4206:	83a1                	srli	a5,a5,0x8
E:\Works\NSCAM\obj/../FATFS/ff.c:655
	*ptr++ = (BYTE)val;
    4208:	00f58da3          	sb	a5,27(a1)
E:\Works\NSCAM\obj/../FATFS/ff.c:654
	*ptr++ = (BYTE)val; val >>= 8;
    420c:	00c58d23          	sb	a2,26(a1)
st_clust():
E:\Works\NSCAM\obj/../FATFS/ff.c:1841
	if (fs->fs_type == FS_FAT32) {
    4210:	00054703          	lbu	a4,0(a0)
    4214:	478d                	li	a5,3
    4216:	00f71863          	bne	a4,a5,4226 <st_clust.isra.3+0x26>
E:\Works\NSCAM\obj/../FATFS/ff.c:1842
		st_word(dir + DIR_FstClusHI, (WORD)(cl >> 16));
    421a:	8241                	srli	a2,a2,0x10
st_word():
E:\Works\NSCAM\obj/../FATFS/ff.c:654
	*ptr++ = (BYTE)val; val >>= 8;
    421c:	00c58a23          	sb	a2,20(a1)
    4220:	8221                	srli	a2,a2,0x8
E:\Works\NSCAM\obj/../FATFS/ff.c:655
	*ptr++ = (BYTE)val;
    4222:	00c58aa3          	sb	a2,21(a1)
st_clust():
E:\Works\NSCAM\obj/../FATFS/ff.c:1844
}
    4226:	8082                	ret

00004228 <sync_window.part.5>:
sync_window():
E:\Works\NSCAM\obj/../FATFS/ff.c:1025
static FRESULT sync_window (	/* Returns FR_OK or FR_DISK_ERR */
    4228:	1141                	addi	sp,sp,-16
    422a:	c422                	sw	s0,8(sp)
    422c:	c226                	sw	s1,4(sp)
    422e:	c04a                	sw	s2,0(sp)
    4230:	c606                	sw	ra,12(sp)
E:\Works\NSCAM\obj/../FATFS/ff.c:1033
		if (disk_write(fs->pdrv, fs->win, fs->winsect, 1) == RES_OK) {	/* Write it back into the volume */
    4232:	03050913          	addi	s2,a0,48
    4236:	5550                	lw	a2,44(a0)
E:\Works\NSCAM\obj/../FATFS/ff.c:1025
static FRESULT sync_window (	/* Returns FR_OK or FR_DISK_ERR */
    4238:	842a                	mv	s0,a0
E:\Works\NSCAM\obj/../FATFS/ff.c:1033
		if (disk_write(fs->pdrv, fs->win, fs->winsect, 1) == RES_OK) {	/* Write it back into the volume */
    423a:	00154503          	lbu	a0,1(a0)
    423e:	4685                	li	a3,1
    4240:	85ca                	mv	a1,s2
    4242:	e9bff0ef          	jal	ra,40dc <disk_write>
E:\Works\NSCAM\obj/../FATFS/ff.c:1039
			res = FR_DISK_ERR;
    4246:	4485                	li	s1,1
E:\Works\NSCAM\obj/../FATFS/ff.c:1033
		if (disk_write(fs->pdrv, fs->win, fs->winsect, 1) == RES_OK) {	/* Write it back into the volume */
    4248:	e51d                	bnez	a0,4276 <sync_window.part.5+0x4e>
E:\Works\NSCAM\obj/../FATFS/ff.c:1035
			if (fs->winsect - fs->fatbase < fs->fsize) {	/* Is it in the 1st FAT? */
    424a:	5450                	lw	a2,44(s0)
    424c:	501c                	lw	a5,32(s0)
    424e:	4c18                	lw	a4,24(s0)
E:\Works\NSCAM\obj/../FATFS/ff.c:1034
			fs->wflag = 0;	/* Clear window dirty flag */
    4250:	000401a3          	sb	zero,3(s0)
E:\Works\NSCAM\obj/../FATFS/ff.c:1035
			if (fs->winsect - fs->fatbase < fs->fsize) {	/* Is it in the 1st FAT? */
    4254:	40f607b3          	sub	a5,a2,a5
E:\Works\NSCAM\obj/../FATFS/ff.c:1029
	FRESULT res = FR_OK;
    4258:	4481                	li	s1,0
E:\Works\NSCAM\obj/../FATFS/ff.c:1035
			if (fs->winsect - fs->fatbase < fs->fsize) {	/* Is it in the 1st FAT? */
    425a:	00e7fe63          	bgeu	a5,a4,4276 <sync_window.part.5+0x4e>
E:\Works\NSCAM\obj/../FATFS/ff.c:1036
				if (fs->n_fats == 2) disk_write(fs->pdrv, fs->win, fs->winsect + fs->fsize, 1);	/* Reflect it to 2nd FAT if needed */
    425e:	00244683          	lbu	a3,2(s0)
    4262:	4789                	li	a5,2
    4264:	00f69963          	bne	a3,a5,4276 <sync_window.part.5+0x4e>
    4268:	00144503          	lbu	a0,1(s0)
    426c:	4685                	li	a3,1
    426e:	963a                	add	a2,a2,a4
    4270:	85ca                	mv	a1,s2
    4272:	e6bff0ef          	jal	ra,40dc <disk_write>
E:\Works\NSCAM\obj/../FATFS/ff.c:1043
}
    4276:	40b2                	lw	ra,12(sp)
    4278:	4422                	lw	s0,8(sp)
    427a:	8526                	mv	a0,s1
    427c:	4902                	lw	s2,0(sp)
    427e:	4492                	lw	s1,4(sp)
    4280:	0141                	addi	sp,sp,16
    4282:	8082                	ret

00004284 <move_window>:
move_window():
E:\Works\NSCAM\obj/../FATFS/ff.c:1055
	if (sect != fs->winsect) {	/* Window offset changed? */
    4284:	555c                	lw	a5,44(a0)
    4286:	04b78363          	beq	a5,a1,42cc <move_window+0x48>
E:\Works\NSCAM\obj/../FATFS/ff.c:1051
{
    428a:	1141                	addi	sp,sp,-16
    428c:	c422                	sw	s0,8(sp)
    428e:	c226                	sw	s1,4(sp)
    4290:	c606                	sw	ra,12(sp)
sync_window():
E:\Works\NSCAM\obj/../FATFS/ff.c:1032
	if (fs->wflag) {	/* Is the disk access window dirty? */
    4292:	00354783          	lbu	a5,3(a0)
    4296:	842a                	mv	s0,a0
    4298:	84ae                	mv	s1,a1
    429a:	ef99                	bnez	a5,42b8 <move_window+0x34>
move_window():
E:\Works\NSCAM\obj/../FATFS/ff.c:1060
			if (disk_read(fs->pdrv, fs->win, sect, 1) != RES_OK) {
    429c:	00144503          	lbu	a0,1(s0)
    42a0:	4685                	li	a3,1
    42a2:	8626                	mv	a2,s1
    42a4:	03040593          	addi	a1,s0,48
    42a8:	e01ff0ef          	jal	ra,40a8 <disk_read>
E:\Works\NSCAM\obj/../FATFS/ff.c:1057
		res = sync_window(fs);		/* Flush the window */
    42ac:	4781                	li	a5,0
E:\Works\NSCAM\obj/../FATFS/ff.c:1060
			if (disk_read(fs->pdrv, fs->win, sect, 1) != RES_OK) {
    42ae:	c119                	beqz	a0,42b4 <move_window+0x30>
E:\Works\NSCAM\obj/../FATFS/ff.c:1062
				res = FR_DISK_ERR;
    42b0:	4785                	li	a5,1
E:\Works\NSCAM\obj/../FATFS/ff.c:1061
				sect = (LBA_t)0 - 1;	/* Invalidate window if read data is not valid */
    42b2:	54fd                	li	s1,-1
E:\Works\NSCAM\obj/../FATFS/ff.c:1064
			fs->winsect = sect;
    42b4:	d444                	sw	s1,44(s0)
E:\Works\NSCAM\obj/../FATFS/ff.c:1067
	return res;
    42b6:	a029                	j	42c0 <move_window+0x3c>
sync_window():
E:\Works\NSCAM\obj/../FATFS/ff.c:1067
    42b8:	f71ff0ef          	jal	ra,4228 <sync_window.part.5>
    42bc:	87aa                	mv	a5,a0
move_window():
E:\Works\NSCAM\obj/../FATFS/ff.c:1059
		if (res == FR_OK) {			/* Fill sector window with new data */
    42be:	dd79                	beqz	a0,429c <move_window+0x18>
E:\Works\NSCAM\obj/../FATFS/ff.c:1068
}
    42c0:	40b2                	lw	ra,12(sp)
    42c2:	4422                	lw	s0,8(sp)
    42c4:	4492                	lw	s1,4(sp)
    42c6:	853e                	mv	a0,a5
    42c8:	0141                	addi	sp,sp,16
    42ca:	8082                	ret
E:\Works\NSCAM\obj/../FATFS/ff.c:1052
	FRESULT res = FR_OK;
    42cc:	4781                	li	a5,0
E:\Works\NSCAM\obj/../FATFS/ff.c:1068
}
    42ce:	853e                	mv	a0,a5
    42d0:	8082                	ret

000042d2 <check_fs>:
check_fs():
E:\Works\NSCAM\obj/../FATFS/ff.c:3242
{
    42d2:	1141                	addi	sp,sp,-16
    42d4:	c422                	sw	s0,8(sp)
    42d6:	c606                	sw	ra,12(sp)
    42d8:	c226                	sw	s1,4(sp)
E:\Works\NSCAM\obj/../FATFS/ff.c:3247
	fs->wflag = 0; fs->winsect = (LBA_t)0 - 1;		/* Invaidate window */
    42da:	57fd                	li	a5,-1
    42dc:	d55c                	sw	a5,44(a0)
    42de:	000501a3          	sb	zero,3(a0)
E:\Works\NSCAM\obj/../FATFS/ff.c:3242
{
    42e2:	842a                	mv	s0,a0
E:\Works\NSCAM\obj/../FATFS/ff.c:3248
	if (move_window(fs, sect) != FR_OK) return 4;	/* Load the boot sector */
    42e4:	fa1ff0ef          	jal	ra,4284 <move_window>
    42e8:	4791                	li	a5,4
    42ea:	e971                	bnez	a0,43be <check_fs+0xec>
ld_word():
E:\Works\NSCAM\obj/../FATFS/ff.c:619
	rv = rv << 8 | ptr[0];
    42ec:	22f44483          	lbu	s1,559(s0)
    42f0:	22e44783          	lbu	a5,558(s0)
check_fs():
E:\Works\NSCAM\obj/../FATFS/ff.c:3254
	if (b == 0xEB || b == 0xE9 || b == 0xE8) {	/* Valid JumpBoot code? (short jump, near jump or near call) */
    42f4:	0eb00713          	li	a4,235
ld_word():
E:\Works\NSCAM\obj/../FATFS/ff.c:619
	rv = rv << 8 | ptr[0];
    42f8:	04a2                	slli	s1,s1,0x8
    42fa:	8cdd                	or	s1,s1,a5
check_fs():
E:\Works\NSCAM\obj/../FATFS/ff.c:3253
	b = fs->win[BS_JmpBoot];
    42fc:	03044783          	lbu	a5,48(s0)
E:\Works\NSCAM\obj/../FATFS/ff.c:3254
	if (b == 0xEB || b == 0xE9 || b == 0xE8) {	/* Valid JumpBoot code? (short jump, near jump or near call) */
    4300:	00e78863          	beq	a5,a4,4310 <check_fs+0x3e>
E:\Works\NSCAM\obj/../FATFS/ff.c:3254 (discriminator 2)
    4304:	07e1                	addi	a5,a5,24
    4306:	0ff7f793          	andi	a5,a5,255
    430a:	4705                	li	a4,1
    430c:	0af76263          	bltu	a4,a5,43b0 <check_fs+0xde>
E:\Works\NSCAM\obj/../FATFS/ff.c:3255
		if (sign == 0xAA55 && !memcmp(fs->win + BS_FilSysType32, "FAT32   ", 8)) {
    4310:	67ad                	lui	a5,0xb
    4312:	a5578793          	addi	a5,a5,-1451 # aa55 <_data_lma+0x1c81>
    4316:	00f49d63          	bne	s1,a5,4330 <check_fs+0x5e>
E:\Works\NSCAM\obj/../FATFS/ff.c:3255 (discriminator 1)
    431a:	000095b7          	lui	a1,0x9
    431e:	4621                	li	a2,8
    4320:	bbc58593          	addi	a1,a1,-1092 # 8bbc <ExCvt+0x80>
    4324:	08240513          	addi	a0,s0,130
    4328:	7d8020ef          	jal	ra,6b00 <memcmp>
E:\Works\NSCAM\obj/../FATFS/ff.c:3256 (discriminator 1)
			return 0;	/* It is an FAT32 VBR */
    432c:	4781                	li	a5,0
E:\Works\NSCAM\obj/../FATFS/ff.c:3255 (discriminator 1)
		if (sign == 0xAA55 && !memcmp(fs->win + BS_FilSysType32, "FAT32   ", 8)) {
    432e:	c941                	beqz	a0,43be <check_fs+0xec>
ld_word():
E:\Works\NSCAM\obj/../FATFS/ff.c:619
	rv = rv << 8 | ptr[0];
    4330:	03c44783          	lbu	a5,60(s0)
    4334:	03b44703          	lbu	a4,59(s0)
    4338:	07a2                	slli	a5,a5,0x8
    433a:	8fd9                	or	a5,a5,a4
check_fs():
E:\Works\NSCAM\obj/../FATFS/ff.c:3261
		if ((w & (w - 1)) == 0 && w >= FF_MIN_SS && w <= FF_MAX_SS	/* Properness of sector size (512-4096 and 2^n) */
    433c:	07c2                	slli	a5,a5,0x10
    433e:	87c1                	srai	a5,a5,0x10
    4340:	20000713          	li	a4,512
    4344:	06e79663          	bne	a5,a4,43b0 <check_fs+0xde>
E:\Works\NSCAM\obj/../FATFS/ff.c:3260
		b = fs->win[BPB_SecPerClus];
    4348:	03d44703          	lbu	a4,61(s0)
E:\Works\NSCAM\obj/../FATFS/ff.c:3262
			&& b != 0 && (b & (b - 1)) == 0				/* Properness of cluster size (2^n) */
    434c:	c335                	beqz	a4,43b0 <check_fs+0xde>
E:\Works\NSCAM\obj/../FATFS/ff.c:3262 (discriminator 1)
    434e:	fff70793          	addi	a5,a4,-1
    4352:	8ff9                	and	a5,a5,a4
    4354:	efb1                	bnez	a5,43b0 <check_fs+0xde>
ld_word():
E:\Works\NSCAM\obj/../FATFS/ff.c:619
	rv = rv << 8 | ptr[0];
    4356:	03f44783          	lbu	a5,63(s0)
    435a:	03e44703          	lbu	a4,62(s0)
    435e:	07a2                	slli	a5,a5,0x8
    4360:	8fd9                	or	a5,a5,a4
check_fs():
E:\Works\NSCAM\obj/../FATFS/ff.c:3263
			&& ld_word(fs->win + BPB_RsvdSecCnt) != 0	/* Properness of reserved sectors (MNBZ) */
    4362:	c7b9                	beqz	a5,43b0 <check_fs+0xde>
E:\Works\NSCAM\obj/../FATFS/ff.c:3264
			&& (UINT)fs->win[BPB_NumFATs] - 1 <= 1		/* Properness of FATs (1 or 2) */
    4364:	04044783          	lbu	a5,64(s0)
    4368:	4705                	li	a4,1
    436a:	17fd                	addi	a5,a5,-1
    436c:	04f76263          	bltu	a4,a5,43b0 <check_fs+0xde>
ld_word():
E:\Works\NSCAM\obj/../FATFS/ff.c:619
	rv = rv << 8 | ptr[0];
    4370:	04244783          	lbu	a5,66(s0)
    4374:	04144703          	lbu	a4,65(s0)
    4378:	07a2                	slli	a5,a5,0x8
    437a:	8fd9                	or	a5,a5,a4
check_fs():
E:\Works\NSCAM\obj/../FATFS/ff.c:3265
			&& ld_word(fs->win + BPB_RootEntCnt) != 0	/* Properness of root dir entries (MNBZ) */
    437c:	cb95                	beqz	a5,43b0 <check_fs+0xde>
ld_word():
E:\Works\NSCAM\obj/../FATFS/ff.c:619
	rv = rv << 8 | ptr[0];
    437e:	04444783          	lbu	a5,68(s0)
    4382:	04344703          	lbu	a4,67(s0)
    4386:	07a2                	slli	a5,a5,0x8
check_fs():
E:\Works\NSCAM\obj/../FATFS/ff.c:3266
			&& (ld_word(fs->win + BPB_TotSec16) >= 128 || ld_dword(fs->win + BPB_TotSec32) >= 0x10000)	/* Properness of volume sectors (>=128) */
    4388:	8fd9                	or	a5,a5,a4
    438a:	07f00713          	li	a4,127
    438e:	00f76963          	bltu	a4,a5,43a0 <check_fs+0xce>
E:\Works\NSCAM\obj/../FATFS/ff.c:3266 (discriminator 1)
    4392:	05040513          	addi	a0,s0,80
    4396:	d7fff0ef          	jal	ra,4114 <ld_dword>
    439a:	67c1                	lui	a5,0x10
    439c:	00f56a63          	bltu	a0,a5,43b0 <check_fs+0xde>
ld_word():
E:\Works\NSCAM\obj/../FATFS/ff.c:619
	rv = rv << 8 | ptr[0];
    43a0:	04744703          	lbu	a4,71(s0)
    43a4:	04644783          	lbu	a5,70(s0)
    43a8:	0722                	slli	a4,a4,0x8
    43aa:	8f5d                	or	a4,a4,a5
check_fs():
E:\Works\NSCAM\obj/../FATFS/ff.c:3256
			return 0;	/* It is an FAT32 VBR */
    43ac:	4781                	li	a5,0
E:\Works\NSCAM\obj/../FATFS/ff.c:3267
			&& ld_word(fs->win + BPB_FATSz16) != 0) {	/* Properness of FAT size (MNBZ) */
    43ae:	eb01                	bnez	a4,43be <check_fs+0xec>
E:\Works\NSCAM\obj/../FATFS/ff.c:3271
	return sign == 0xAA55 ? 2 : 3;	/* Not an FAT VBR (valid or invalid BS) */
    43b0:	672d                	lui	a4,0xb
    43b2:	a5570713          	addi	a4,a4,-1451 # aa55 <_data_lma+0x1c81>
    43b6:	4789                	li	a5,2
    43b8:	00e48363          	beq	s1,a4,43be <check_fs+0xec>
    43bc:	478d                	li	a5,3
E:\Works\NSCAM\obj/../FATFS/ff.c:3272
}
    43be:	40b2                	lw	ra,12(sp)
    43c0:	4422                	lw	s0,8(sp)
    43c2:	4492                	lw	s1,4(sp)
    43c4:	853e                	mv	a0,a5
    43c6:	0141                	addi	sp,sp,16
    43c8:	8082                	ret

000043ca <put_fat>:
put_fat():
E:\Works\NSCAM\obj/../FATFS/ff.c:1214
{
    43ca:	1101                	addi	sp,sp,-32
    43cc:	c64e                	sw	s3,12(sp)
    43ce:	c452                	sw	s4,8(sp)
    43d0:	ce06                	sw	ra,28(sp)
    43d2:	cc22                	sw	s0,24(sp)
    43d4:	ca26                	sw	s1,20(sp)
    43d6:	c84a                	sw	s2,16(sp)
    43d8:	c256                	sw	s5,4(sp)
    43da:	c05a                	sw	s6,0(sp)
E:\Works\NSCAM\obj/../FATFS/ff.c:1220
	if (clst >= 2 && clst < fs->n_fatent) {	/* Check if in valid range */
    43dc:	4985                	li	s3,1
E:\Works\NSCAM\obj/../FATFS/ff.c:1217
	FRESULT res = FR_INT_ERR;
    43de:	4a09                	li	s4,2
E:\Works\NSCAM\obj/../FATFS/ff.c:1220
	if (clst >= 2 && clst < fs->n_fatent) {	/* Check if in valid range */
    43e0:	0ab9f063          	bgeu	s3,a1,4480 <put_fat+0xb6>
E:\Works\NSCAM\obj/../FATFS/ff.c:1220 (discriminator 1)
    43e4:	495c                	lw	a5,20(a0)
    43e6:	892a                	mv	s2,a0
E:\Works\NSCAM\obj/../FATFS/ff.c:1217 (discriminator 1)
	FRESULT res = FR_INT_ERR;
    43e8:	4a09                	li	s4,2
E:\Works\NSCAM\obj/../FATFS/ff.c:1220 (discriminator 1)
	if (clst >= 2 && clst < fs->n_fatent) {	/* Check if in valid range */
    43ea:	08f5fb63          	bgeu	a1,a5,4480 <put_fat+0xb6>
E:\Works\NSCAM\obj/../FATFS/ff.c:1221
		switch (fs->fs_type) {
    43ee:	00054783          	lbu	a5,0(a0)
    43f2:	4709                	li	a4,2
    43f4:	8432                	mv	s0,a2
    43f6:	84ae                	mv	s1,a1
    43f8:	0ae78663          	beq	a5,a4,44a4 <put_fat+0xda>
    43fc:	470d                	li	a4,3
    43fe:	0ce78a63          	beq	a5,a4,44d2 <put_fat+0x108>
    4402:	07379f63          	bne	a5,s3,4480 <put_fat+0xb6>
E:\Works\NSCAM\obj/../FATFS/ff.c:1223
			bc = (UINT)clst; bc += bc / 2;	/* bc: byte offset of the entry */
    4406:	0015d993          	srli	s3,a1,0x1
E:\Works\NSCAM\obj/../FATFS/ff.c:1224
			res = move_window(fs, fs->fatbase + (bc / SS(fs)));
    440a:	511c                	lw	a5,32(a0)
E:\Works\NSCAM\obj/../FATFS/ff.c:1223
			bc = (UINT)clst; bc += bc / 2;	/* bc: byte offset of the entry */
    440c:	99ae                	add	s3,s3,a1
E:\Works\NSCAM\obj/../FATFS/ff.c:1224
			res = move_window(fs, fs->fatbase + (bc / SS(fs)));
    440e:	0099d593          	srli	a1,s3,0x9
    4412:	95be                	add	a1,a1,a5
    4414:	e71ff0ef          	jal	ra,4284 <move_window>
    4418:	8a2a                	mv	s4,a0
E:\Works\NSCAM\obj/../FATFS/ff.c:1225
			if (res != FR_OK) break;
    441a:	e13d                	bnez	a0,4480 <put_fat+0xb6>
E:\Works\NSCAM\obj/../FATFS/ff.c:1226
			p = fs->win + bc++ % SS(fs);
    441c:	03090a93          	addi	s5,s2,48
    4420:	00198b13          	addi	s6,s3,1
E:\Works\NSCAM\obj/../FATFS/ff.c:1227
			*p = (clst & 1) ? ((*p & 0x0F) | ((BYTE)val << 4)) : (BYTE)val;	/* Update 1st byte */
    4424:	8885                	andi	s1,s1,1
E:\Works\NSCAM\obj/../FATFS/ff.c:1226
			p = fs->win + bc++ % SS(fs);
    4426:	1ff9f993          	andi	s3,s3,511
    442a:	99d6                	add	s3,s3,s5
E:\Works\NSCAM\obj/../FATFS/ff.c:1227
			*p = (clst & 1) ? ((*p & 0x0F) | ((BYTE)val << 4)) : (BYTE)val;	/* Update 1st byte */
    442c:	0ff47793          	andi	a5,s0,255
    4430:	cc89                	beqz	s1,444a <put_fat+0x80>
    4432:	0009c783          	lbu	a5,0(s3)
    4436:	6685                	lui	a3,0x1
    4438:	16c1                	addi	a3,a3,-16
    443a:	00f7f713          	andi	a4,a5,15
    443e:	00441793          	slli	a5,s0,0x4
    4442:	8ff5                	and	a5,a5,a3
    4444:	8fd9                	or	a5,a5,a4
    4446:	0ff7f793          	andi	a5,a5,255
    444a:	00f98023          	sb	a5,0(s3)
E:\Works\NSCAM\obj/../FATFS/ff.c:1228
			fs->wflag = 1;
    444e:	4785                	li	a5,1
    4450:	00f901a3          	sb	a5,3(s2)
E:\Works\NSCAM\obj/../FATFS/ff.c:1229
			res = move_window(fs, fs->fatbase + (bc / SS(fs)));
    4454:	02092783          	lw	a5,32(s2)
    4458:	009b5593          	srli	a1,s6,0x9
    445c:	854a                	mv	a0,s2
    445e:	95be                	add	a1,a1,a5
    4460:	e25ff0ef          	jal	ra,4284 <move_window>
    4464:	8a2a                	mv	s4,a0
E:\Works\NSCAM\obj/../FATFS/ff.c:1230
			if (res != FR_OK) break;
    4466:	ed09                	bnez	a0,4480 <put_fat+0xb6>
E:\Works\NSCAM\obj/../FATFS/ff.c:1231
			p = fs->win + bc % SS(fs);
    4468:	1ffb7b13          	andi	s6,s6,511
    446c:	9ada                	add	s5,s5,s6
E:\Works\NSCAM\obj/../FATFS/ff.c:1232
			*p = (clst & 1) ? (BYTE)(val >> 4) : ((*p & 0xF0) | ((BYTE)(val >> 8) & 0x0F));	/* Update 2nd byte */
    446e:	c485                	beqz	s1,4496 <put_fat+0xcc>
    4470:	8011                	srli	s0,s0,0x4
    4472:	0ff47413          	andi	s0,s0,255
    4476:	008a8023          	sb	s0,0(s5)
E:\Works\NSCAM\obj/../FATFS/ff.c:1233
			fs->wflag = 1;
    447a:	4785                	li	a5,1
    447c:	00f901a3          	sb	a5,3(s2)
E:\Works\NSCAM\obj/../FATFS/ff.c:1258
}
    4480:	40f2                	lw	ra,28(sp)
    4482:	4462                	lw	s0,24(sp)
    4484:	8552                	mv	a0,s4
    4486:	44d2                	lw	s1,20(sp)
    4488:	4942                	lw	s2,16(sp)
    448a:	49b2                	lw	s3,12(sp)
    448c:	4a22                	lw	s4,8(sp)
    448e:	4a92                	lw	s5,4(sp)
    4490:	4b02                	lw	s6,0(sp)
    4492:	6105                	addi	sp,sp,32
    4494:	8082                	ret
E:\Works\NSCAM\obj/../FATFS/ff.c:1232
			*p = (clst & 1) ? (BYTE)(val >> 4) : ((*p & 0xF0) | ((BYTE)(val >> 8) & 0x0F));	/* Update 2nd byte */
    4496:	000ac783          	lbu	a5,0(s5)
    449a:	8021                	srli	s0,s0,0x8
    449c:	883d                	andi	s0,s0,15
    449e:	9bc1                	andi	a5,a5,-16
    44a0:	8c5d                	or	s0,s0,a5
    44a2:	bfd1                	j	4476 <put_fat+0xac>
E:\Works\NSCAM\obj/../FATFS/ff.c:1237
			res = move_window(fs, fs->fatbase + (clst / (SS(fs) / 2)));
    44a4:	511c                	lw	a5,32(a0)
    44a6:	81a1                	srli	a1,a1,0x8
    44a8:	95be                	add	a1,a1,a5
    44aa:	ddbff0ef          	jal	ra,4284 <move_window>
    44ae:	8a2a                	mv	s4,a0
E:\Works\NSCAM\obj/../FATFS/ff.c:1238
			if (res != FR_OK) break;
    44b0:	f961                	bnez	a0,4480 <put_fat+0xb6>
E:\Works\NSCAM\obj/../FATFS/ff.c:1239
			st_word(fs->win + clst * 2 % SS(fs), (WORD)val);	/* Simple WORD array */
    44b2:	0486                	slli	s1,s1,0x1
    44b4:	03090793          	addi	a5,s2,48
    44b8:	1fe4f493          	andi	s1,s1,510
    44bc:	94be                	add	s1,s1,a5
st_word():
E:\Works\NSCAM\obj/../FATFS/ff.c:654
	*ptr++ = (BYTE)val; val >>= 8;
    44be:	00848023          	sb	s0,0(s1)
    44c2:	0442                	slli	s0,s0,0x10
    44c4:	8041                	srli	s0,s0,0x10
    44c6:	8021                	srli	s0,s0,0x8
E:\Works\NSCAM\obj/../FATFS/ff.c:655
	*ptr++ = (BYTE)val;
    44c8:	008480a3          	sb	s0,1(s1)
put_fat():
E:\Works\NSCAM\obj/../FATFS/ff.c:1253
			fs->wflag = 1;
    44cc:	013901a3          	sb	s3,3(s2)
E:\Works\NSCAM\obj/../FATFS/ff.c:1254
			break;
    44d0:	bf45                	j	4480 <put_fat+0xb6>
E:\Works\NSCAM\obj/../FATFS/ff.c:1247
			res = move_window(fs, fs->fatbase + (clst / (SS(fs) / 4)));
    44d2:	511c                	lw	a5,32(a0)
    44d4:	819d                	srli	a1,a1,0x7
    44d6:	95be                	add	a1,a1,a5
    44d8:	dadff0ef          	jal	ra,4284 <move_window>
    44dc:	8a2a                	mv	s4,a0
E:\Works\NSCAM\obj/../FATFS/ff.c:1248
			if (res != FR_OK) break;
    44de:	f14d                	bnez	a0,4480 <put_fat+0xb6>
E:\Works\NSCAM\obj/../FATFS/ff.c:1250
				val = (val & 0x0FFFFFFF) | (ld_dword(fs->win + clst * 4 % SS(fs)) & 0xF0000000);
    44e0:	048a                	slli	s1,s1,0x2
    44e2:	03090793          	addi	a5,s2,48
    44e6:	1fc4f493          	andi	s1,s1,508
    44ea:	94be                	add	s1,s1,a5
    44ec:	8526                	mv	a0,s1
    44ee:	c27ff0ef          	jal	ra,4114 <ld_dword>
    44f2:	f00007b7          	lui	a5,0xf0000
    44f6:	0412                	slli	s0,s0,0x4
    44f8:	8d7d                	and	a0,a0,a5
    44fa:	8011                	srli	s0,s0,0x4
    44fc:	8c49                	or	s0,s0,a0
st_dword():
E:\Works\NSCAM\obj/../FATFS/ff.c:660
	*ptr++ = (BYTE)val; val >>= 8;
    44fe:	00845793          	srli	a5,s0,0x8
    4502:	00848023          	sb	s0,0(s1)
E:\Works\NSCAM\obj/../FATFS/ff.c:661
	*ptr++ = (BYTE)val; val >>= 8;
    4506:	00f480a3          	sb	a5,1(s1)
    450a:	01045793          	srli	a5,s0,0x10
E:\Works\NSCAM\obj/../FATFS/ff.c:662
	*ptr++ = (BYTE)val; val >>= 8;
    450e:	8061                	srli	s0,s0,0x18
    4510:	00f48123          	sb	a5,2(s1)
E:\Works\NSCAM\obj/../FATFS/ff.c:663
	*ptr++ = (BYTE)val;
    4514:	008481a3          	sb	s0,3(s1)
    4518:	bf55                	j	44cc <put_fat+0x102>

0000451a <get_fat.isra.8>:
get_fat():
E:\Works\NSCAM\obj/../FATFS/ff.c:1141
	if (clst < 2 || clst >= fs->n_fatent) {	/* Check if in valid range */
    451a:	4785                	li	a5,1
    451c:	0cb7fd63          	bgeu	a5,a1,45f6 <get_fat.isra.8+0xdc>
    4520:	4958                	lw	a4,20(a0)
E:\Works\NSCAM\obj/../FATFS/ff.c:1131
static DWORD get_fat (		/* 0xFFFFFFFF:Disk error, 1:Internal error, 2..0x7FFFFFFF:Cluster status */
    4522:	1101                	addi	sp,sp,-32
    4524:	cc22                	sw	s0,24(sp)
    4526:	ce06                	sw	ra,28(sp)
    4528:	ca26                	sw	s1,20(sp)
    452a:	c84a                	sw	s2,16(sp)
    452c:	c64e                	sw	s3,12(sp)
    452e:	842a                	mv	s0,a0
E:\Works\NSCAM\obj/../FATFS/ff.c:1141
	if (clst < 2 || clst >= fs->n_fatent) {	/* Check if in valid range */
    4530:	02e5f863          	bgeu	a1,a4,4560 <get_fat.isra.8+0x46>
E:\Works\NSCAM\obj/../FATFS/ff.c:1147
		switch (fs->fs_type) {
    4534:	00054703          	lbu	a4,0(a0)
    4538:	4689                	li	a3,2
    453a:	84ae                	mv	s1,a1
    453c:	06d70863          	beq	a4,a3,45ac <get_fat.isra.8+0x92>
    4540:	468d                	li	a3,3
    4542:	08d70863          	beq	a4,a3,45d2 <get_fat.isra.8+0xb8>
    4546:	00f71d63          	bne	a4,a5,4560 <get_fat.isra.8+0x46>
E:\Works\NSCAM\obj/../FATFS/ff.c:1149
			bc = (UINT)clst; bc += bc / 2;
    454a:	0015d913          	srli	s2,a1,0x1
E:\Works\NSCAM\obj/../FATFS/ff.c:1150
			if (move_window(fs, fs->fatbase + (bc / SS(fs))) != FR_OK) break;
    454e:	511c                	lw	a5,32(a0)
E:\Works\NSCAM\obj/../FATFS/ff.c:1149
			bc = (UINT)clst; bc += bc / 2;
    4550:	992e                	add	s2,s2,a1
E:\Works\NSCAM\obj/../FATFS/ff.c:1150
			if (move_window(fs, fs->fatbase + (bc / SS(fs))) != FR_OK) break;
    4552:	00995593          	srli	a1,s2,0x9
    4556:	95be                	add	a1,a1,a5
    4558:	d2dff0ef          	jal	ra,4284 <move_window>
    455c:	c911                	beqz	a0,4570 <get_fat.isra.8+0x56>
E:\Works\NSCAM\obj/../FATFS/ff.c:1145
		val = 0xFFFFFFFF;	/* Default value falls on disk error */
    455e:	57fd                	li	a5,-1
E:\Works\NSCAM\obj/../FATFS/ff.c:1199
}
    4560:	40f2                	lw	ra,28(sp)
    4562:	4462                	lw	s0,24(sp)
    4564:	44d2                	lw	s1,20(sp)
    4566:	4942                	lw	s2,16(sp)
    4568:	49b2                	lw	s3,12(sp)
    456a:	853e                	mv	a0,a5
    456c:	6105                	addi	sp,sp,32
    456e:	8082                	ret
E:\Works\NSCAM\obj/../FATFS/ff.c:1152
			if (move_window(fs, fs->fatbase + (bc / SS(fs))) != FR_OK) break;
    4570:	501c                	lw	a5,32(s0)
E:\Works\NSCAM\obj/../FATFS/ff.c:1151
			wc = fs->win[bc++ % SS(fs)];		/* Get 1st byte of the entry */
    4572:	00190993          	addi	s3,s2,1
E:\Works\NSCAM\obj/../FATFS/ff.c:1152
			if (move_window(fs, fs->fatbase + (bc / SS(fs))) != FR_OK) break;
    4576:	0099d593          	srli	a1,s3,0x9
E:\Works\NSCAM\obj/../FATFS/ff.c:1151
			wc = fs->win[bc++ % SS(fs)];		/* Get 1st byte of the entry */
    457a:	1ff97913          	andi	s2,s2,511
    457e:	9922                	add	s2,s2,s0
E:\Works\NSCAM\obj/../FATFS/ff.c:1152
			if (move_window(fs, fs->fatbase + (bc / SS(fs))) != FR_OK) break;
    4580:	95be                	add	a1,a1,a5
    4582:	8522                	mv	a0,s0
E:\Works\NSCAM\obj/../FATFS/ff.c:1151
			wc = fs->win[bc++ % SS(fs)];		/* Get 1st byte of the entry */
    4584:	03094903          	lbu	s2,48(s2)
E:\Works\NSCAM\obj/../FATFS/ff.c:1152
			if (move_window(fs, fs->fatbase + (bc / SS(fs))) != FR_OK) break;
    4588:	cfdff0ef          	jal	ra,4284 <move_window>
    458c:	f969                	bnez	a0,455e <get_fat.isra.8+0x44>
E:\Works\NSCAM\obj/../FATFS/ff.c:1153
			wc |= fs->win[bc % SS(fs)] << 8;	/* Merge 2nd byte of the entry */
    458e:	1ff9f993          	andi	s3,s3,511
    4592:	944e                	add	s0,s0,s3
    4594:	03044783          	lbu	a5,48(s0)
E:\Works\NSCAM\obj/../FATFS/ff.c:1154
			val = (clst & 1) ? (wc >> 4) : (wc & 0xFFF);	/* Adjust bit position */
    4598:	8885                	andi	s1,s1,1
E:\Works\NSCAM\obj/../FATFS/ff.c:1153
			wc |= fs->win[bc % SS(fs)] << 8;	/* Merge 2nd byte of the entry */
    459a:	07a2                	slli	a5,a5,0x8
    459c:	0127e7b3          	or	a5,a5,s2
E:\Works\NSCAM\obj/../FATFS/ff.c:1154
			val = (clst & 1) ? (wc >> 4) : (wc & 0xFFF);	/* Adjust bit position */
    45a0:	c099                	beqz	s1,45a6 <get_fat.isra.8+0x8c>
E:\Works\NSCAM\obj/../FATFS/ff.c:1164
			val = ld_dword(fs->win + clst * 4 % SS(fs)) & 0x0FFFFFFF;	/* Simple DWORD array but mask out upper 4 bits */
    45a2:	8391                	srli	a5,a5,0x4
E:\Works\NSCAM\obj/../FATFS/ff.c:1165
			break;
    45a4:	bf75                	j	4560 <get_fat.isra.8+0x46>
E:\Works\NSCAM\obj/../FATFS/ff.c:1154
			val = (clst & 1) ? (wc >> 4) : (wc & 0xFFF);	/* Adjust bit position */
    45a6:	07d2                	slli	a5,a5,0x14
    45a8:	83d1                	srli	a5,a5,0x14
    45aa:	bf5d                	j	4560 <get_fat.isra.8+0x46>
E:\Works\NSCAM\obj/../FATFS/ff.c:1158
			if (move_window(fs, fs->fatbase + (clst / (SS(fs) / 2))) != FR_OK) break;
    45ac:	511c                	lw	a5,32(a0)
    45ae:	81a1                	srli	a1,a1,0x8
    45b0:	95be                	add	a1,a1,a5
    45b2:	cd3ff0ef          	jal	ra,4284 <move_window>
    45b6:	f545                	bnez	a0,455e <get_fat.isra.8+0x44>
E:\Works\NSCAM\obj/../FATFS/ff.c:1159
			val = ld_word(fs->win + clst * 2 % SS(fs));		/* Simple WORD array */
    45b8:	0486                	slli	s1,s1,0x1
    45ba:	03040413          	addi	s0,s0,48
    45be:	1fe4f493          	andi	s1,s1,510
    45c2:	9426                	add	s0,s0,s1
ld_word():
E:\Works\NSCAM\obj/../FATFS/ff.c:619
	rv = rv << 8 | ptr[0];
    45c4:	00144783          	lbu	a5,1(s0)
    45c8:	00044703          	lbu	a4,0(s0)
    45cc:	07a2                	slli	a5,a5,0x8
get_fat():
E:\Works\NSCAM\obj/../FATFS/ff.c:1159
			val = ld_word(fs->win + clst * 2 % SS(fs));		/* Simple WORD array */
    45ce:	8fd9                	or	a5,a5,a4
E:\Works\NSCAM\obj/../FATFS/ff.c:1160
			break;
    45d0:	bf41                	j	4560 <get_fat.isra.8+0x46>
E:\Works\NSCAM\obj/../FATFS/ff.c:1163
			if (move_window(fs, fs->fatbase + (clst / (SS(fs) / 4))) != FR_OK) break;
    45d2:	511c                	lw	a5,32(a0)
    45d4:	819d                	srli	a1,a1,0x7
    45d6:	95be                	add	a1,a1,a5
    45d8:	cadff0ef          	jal	ra,4284 <move_window>
    45dc:	f149                	bnez	a0,455e <get_fat.isra.8+0x44>
E:\Works\NSCAM\obj/../FATFS/ff.c:1164
			val = ld_dword(fs->win + clst * 4 % SS(fs)) & 0x0FFFFFFF;	/* Simple DWORD array but mask out upper 4 bits */
    45de:	00249513          	slli	a0,s1,0x2
    45e2:	03040413          	addi	s0,s0,48
    45e6:	1fc57513          	andi	a0,a0,508
    45ea:	9522                	add	a0,a0,s0
    45ec:	b29ff0ef          	jal	ra,4114 <ld_dword>
    45f0:	00451793          	slli	a5,a0,0x4
    45f4:	b77d                	j	45a2 <get_fat.isra.8+0x88>
E:\Works\NSCAM\obj/../FATFS/ff.c:1142
		val = 1;	/* Internal error */
    45f6:	4785                	li	a5,1
E:\Works\NSCAM\obj/../FATFS/ff.c:1199
}
    45f8:	853e                	mv	a0,a5
    45fa:	8082                	ret

000045fc <create_chain>:
create_chain():
E:\Works\NSCAM\obj/../FATFS/ff.c:1498
{
    45fc:	1101                	addi	sp,sp,-32
    45fe:	ca26                	sw	s1,20(sp)
    4600:	c64e                	sw	s3,12(sp)
    4602:	c452                	sw	s4,8(sp)
    4604:	ce06                	sw	ra,28(sp)
    4606:	cc22                	sw	s0,24(sp)
    4608:	c84a                	sw	s2,16(sp)
    460a:	c256                	sw	s5,4(sp)
    460c:	c05a                	sw	s6,0(sp)
    460e:	8a2a                	mv	s4,a0
    4610:	89ae                	mv	s3,a1
E:\Works\NSCAM\obj/../FATFS/ff.c:1501
	FATFS *fs = obj->fs;
    4612:	4104                	lw	s1,0(a0)
E:\Works\NSCAM\obj/../FATFS/ff.c:1504
	if (clst == 0) {	/* Create a new chain */
    4614:	e991                	bnez	a1,4628 <create_chain+0x2c>
E:\Works\NSCAM\obj/../FATFS/ff.c:1505
		scl = fs->last_clst;				/* Suggested cluster to start to find */
    4616:	00c4a903          	lw	s2,12(s1)
E:\Works\NSCAM\obj/../FATFS/ff.c:1506
		if (scl == 0 || scl >= fs->n_fatent) scl = 1;
    461a:	00090563          	beqz	s2,4624 <create_chain+0x28>
E:\Works\NSCAM\obj/../FATFS/ff.c:1506 (discriminator 2)
    461e:	48dc                	lw	a5,20(s1)
    4620:	02f96e63          	bltu	s2,a5,465c <create_chain+0x60>
E:\Works\NSCAM\obj/../FATFS/ff.c:1506
    4624:	4905                	li	s2,1
    4626:	a81d                	j	465c <create_chain+0x60>
E:\Works\NSCAM\obj/../FATFS/ff.c:1509
		cs = get_fat(obj, clst);			/* Check the cluster status */
    4628:	8526                	mv	a0,s1
    462a:	ef1ff0ef          	jal	ra,451a <get_fat.isra.8>
E:\Works\NSCAM\obj/../FATFS/ff.c:1510
		if (cs < 2) return 1;				/* Test for insanity */
    462e:	4785                	li	a5,1
E:\Works\NSCAM\obj/../FATFS/ff.c:1509
		cs = get_fat(obj, clst);			/* Check the cluster status */
    4630:	842a                	mv	s0,a0
E:\Works\NSCAM\obj/../FATFS/ff.c:1510
		if (cs < 2) return 1;				/* Test for insanity */
    4632:	00a7ee63          	bltu	a5,a0,464e <create_chain+0x52>
    4636:	4405                	li	s0,1
E:\Works\NSCAM\obj/../FATFS/ff.c:1585
}
    4638:	8522                	mv	a0,s0
    463a:	40f2                	lw	ra,28(sp)
    463c:	4462                	lw	s0,24(sp)
    463e:	44d2                	lw	s1,20(sp)
    4640:	4942                	lw	s2,16(sp)
    4642:	49b2                	lw	s3,12(sp)
    4644:	4a22                	lw	s4,8(sp)
    4646:	4a92                	lw	s5,4(sp)
    4648:	4b02                	lw	s6,0(sp)
    464a:	6105                	addi	sp,sp,32
    464c:	8082                	ret
E:\Works\NSCAM\obj/../FATFS/ff.c:1511
		if (cs == 0xFFFFFFFF) return cs;	/* Test for disk error */
    464e:	57fd                	li	a5,-1
    4650:	0af50b63          	beq	a0,a5,4706 <create_chain+0x10a>
E:\Works\NSCAM\obj/../FATFS/ff.c:1512
		if (cs < fs->n_fatent) return cs;	/* It is already followed by next cluster */
    4654:	48dc                	lw	a5,20(s1)
    4656:	894e                	mv	s2,s3
    4658:	fef560e3          	bltu	a0,a5,4638 <create_chain+0x3c>
E:\Works\NSCAM\obj/../FATFS/ff.c:1515
	if (fs->free_clst == 0) return 0;		/* No free cluster */
    465c:	489c                	lw	a5,16(s1)
    465e:	e399                	bnez	a5,4664 <create_chain+0x68>
    4660:	4401                	li	s0,0
    4662:	bfd9                	j	4638 <create_chain+0x3c>
E:\Works\NSCAM\obj/../FATFS/ff.c:1545
		if (scl == clst) {						/* Stretching an existing chain? */
    4664:	03391b63          	bne	s2,s3,469a <create_chain+0x9e>
E:\Works\NSCAM\obj/../FATFS/ff.c:1547
			if (ncl >= fs->n_fatent) ncl = 2;
    4668:	48dc                	lw	a5,20(s1)
    466a:	00190413          	addi	s0,s2,1
    466e:	00f46363          	bltu	s0,a5,4674 <create_chain+0x78>
    4672:	4409                	li	s0,2
E:\Works\NSCAM\obj/../FATFS/ff.c:1548
			cs = get_fat(obj, ncl);				/* Get next cluster status */
    4674:	000a2503          	lw	a0,0(s4)
    4678:	85a2                	mv	a1,s0
    467a:	ea1ff0ef          	jal	ra,451a <get_fat.isra.8>
E:\Works\NSCAM\obj/../FATFS/ff.c:1549
			if (cs == 1 || cs == 0xFFFFFFFF) return cs;	/* Test for error */
    467e:	4705                	li	a4,1
    4680:	fae50be3          	beq	a0,a4,4636 <create_chain+0x3a>
E:\Works\NSCAM\obj/../FATFS/ff.c:1549 (discriminator 2)
    4684:	57fd                	li	a5,-1
    4686:	08f50063          	beq	a0,a5,4706 <create_chain+0x10a>
E:\Works\NSCAM\obj/../FATFS/ff.c:1550
			if (cs != 0) {						/* Not free? */
    468a:	cd1d                	beqz	a0,46c8 <create_chain+0xcc>
E:\Works\NSCAM\obj/../FATFS/ff.c:1551
				cs = fs->last_clst;				/* Start at suggested cluster if it is valid */
    468c:	44dc                	lw	a5,12(s1)
E:\Works\NSCAM\obj/../FATFS/ff.c:1552
				if (cs >= 2 && cs < fs->n_fatent) scl = cs;
    468e:	00f77663          	bgeu	a4,a5,469a <create_chain+0x9e>
E:\Works\NSCAM\obj/../FATFS/ff.c:1552 (discriminator 1)
    4692:	48d8                	lw	a4,20(s1)
    4694:	00e7f363          	bgeu	a5,a4,469a <create_chain+0x9e>
E:\Works\NSCAM\obj/../FATFS/ff.c:1552
    4698:	893e                	mv	s2,a5
    469a:	844a                	mv	s0,s2
E:\Works\NSCAM\obj/../FATFS/ff.c:1562
					if (ncl > scl) return 0;	/* No free cluster found? */
    469c:	4a85                	li	s5,1
E:\Works\NSCAM\obj/../FATFS/ff.c:1566
				if (cs == 1 || cs == 0xFFFFFFFF) return cs;	/* Test for error */
    469e:	5b7d                	li	s6,-1
E:\Works\NSCAM\obj/../FATFS/ff.c:1560
				if (ncl >= fs->n_fatent) {		/* Check wrap-around */
    46a0:	48dc                	lw	a5,20(s1)
E:\Works\NSCAM\obj/../FATFS/ff.c:1559
				ncl++;							/* Next cluster */
    46a2:	0405                	addi	s0,s0,1
E:\Works\NSCAM\obj/../FATFS/ff.c:1560
				if (ncl >= fs->n_fatent) {		/* Check wrap-around */
    46a4:	00f46563          	bltu	s0,a5,46ae <create_chain+0xb2>
E:\Works\NSCAM\obj/../FATFS/ff.c:1562
					if (ncl > scl) return 0;	/* No free cluster found? */
    46a8:	fb2afce3          	bgeu	s5,s2,4660 <create_chain+0x64>
E:\Works\NSCAM\obj/../FATFS/ff.c:1561
					ncl = 2;
    46ac:	4409                	li	s0,2
E:\Works\NSCAM\obj/../FATFS/ff.c:1564
				cs = get_fat(obj, ncl);			/* Get the cluster status */
    46ae:	000a2503          	lw	a0,0(s4)
    46b2:	85a2                	mv	a1,s0
    46b4:	e67ff0ef          	jal	ra,451a <get_fat.isra.8>
E:\Works\NSCAM\obj/../FATFS/ff.c:1565
				if (cs == 0) break;				/* Found a free cluster? */
    46b8:	c909                	beqz	a0,46ca <create_chain+0xce>
E:\Works\NSCAM\obj/../FATFS/ff.c:1566
				if (cs == 1 || cs == 0xFFFFFFFF) return cs;	/* Test for error */
    46ba:	f7550ee3          	beq	a0,s5,4636 <create_chain+0x3a>
E:\Works\NSCAM\obj/../FATFS/ff.c:1566 (discriminator 2)
    46be:	05650463          	beq	a0,s6,4706 <create_chain+0x10a>
E:\Works\NSCAM\obj/../FATFS/ff.c:1567
				if (ncl == scl) return 0;		/* No free cluster found? */
    46c2:	fd241fe3          	bne	s0,s2,46a0 <create_chain+0xa4>
    46c6:	bf69                	j	4660 <create_chain+0x64>
E:\Works\NSCAM\obj/../FATFS/ff.c:1556
		if (ncl == 0) {	/* The new cluster cannot be contiguous and find another fragment */
    46c8:	d869                	beqz	s0,469a <create_chain+0x9e>
E:\Works\NSCAM\obj/../FATFS/ff.c:1570
		res = put_fat(fs, ncl, 0xFFFFFFFF);		/* Mark the new cluster 'EOC' */
    46ca:	567d                	li	a2,-1
    46cc:	85a2                	mv	a1,s0
    46ce:	8526                	mv	a0,s1
    46d0:	cfbff0ef          	jal	ra,43ca <put_fat>
E:\Works\NSCAM\obj/../FATFS/ff.c:1571
		if (res == FR_OK && clst != 0) {
    46d4:	e515                	bnez	a0,4700 <create_chain+0x104>
E:\Works\NSCAM\obj/../FATFS/ff.c:1571 (discriminator 1)
    46d6:	00099f63          	bnez	s3,46f4 <create_chain+0xf8>
E:\Works\NSCAM\obj/../FATFS/ff.c:1578
		if (fs->free_clst <= fs->n_fatent - 2) fs->free_clst--;
    46da:	48d8                	lw	a4,20(s1)
    46dc:	489c                	lw	a5,16(s1)
E:\Works\NSCAM\obj/../FATFS/ff.c:1577
		fs->last_clst = ncl;
    46de:	c4c0                	sw	s0,12(s1)
E:\Works\NSCAM\obj/../FATFS/ff.c:1578
		if (fs->free_clst <= fs->n_fatent - 2) fs->free_clst--;
    46e0:	1779                	addi	a4,a4,-2
    46e2:	02f77463          	bgeu	a4,a5,470a <create_chain+0x10e>
E:\Works\NSCAM\obj/../FATFS/ff.c:1579
		fs->fsi_flag |= 1;
    46e6:	0044c783          	lbu	a5,4(s1)
    46ea:	0017e793          	ori	a5,a5,1
    46ee:	00f48223          	sb	a5,4(s1)
    46f2:	b799                	j	4638 <create_chain+0x3c>
E:\Works\NSCAM\obj/../FATFS/ff.c:1572
			res = put_fat(fs, clst, ncl);		/* Link it from the previous one if needed */
    46f4:	8622                	mv	a2,s0
    46f6:	85ce                	mv	a1,s3
    46f8:	8526                	mv	a0,s1
    46fa:	cd1ff0ef          	jal	ra,43ca <put_fat>
E:\Works\NSCAM\obj/../FATFS/ff.c:1576
	if (res == FR_OK) {			/* Update FSINFO if function succeeded. */
    46fe:	dd71                	beqz	a0,46da <create_chain+0xde>
E:\Works\NSCAM\obj/../FATFS/ff.c:1581
		ncl = (res == FR_DISK_ERR) ? 0xFFFFFFFF : 1;	/* Failed. Generate error status */
    4700:	4785                	li	a5,1
    4702:	f2f51ae3          	bne	a0,a5,4636 <create_chain+0x3a>
    4706:	547d                	li	s0,-1
    4708:	bf05                	j	4638 <create_chain+0x3c>
E:\Works\NSCAM\obj/../FATFS/ff.c:1578 (discriminator 1)
		if (fs->free_clst <= fs->n_fatent - 2) fs->free_clst--;
    470a:	17fd                	addi	a5,a5,-1
    470c:	c89c                	sw	a5,16(s1)
    470e:	bfe1                	j	46e6 <create_chain+0xea>

00004710 <remove_chain>:
remove_chain():
E:\Works\NSCAM\obj/../FATFS/ff.c:1404
{
    4710:	1101                	addi	sp,sp,-32
    4712:	cc22                	sw	s0,24(sp)
    4714:	ca26                	sw	s1,20(sp)
    4716:	ce06                	sw	ra,28(sp)
    4718:	c84a                	sw	s2,16(sp)
    471a:	c64e                	sw	s3,12(sp)
    471c:	c452                	sw	s4,8(sp)
    471e:	c256                	sw	s5,4(sp)
E:\Works\NSCAM\obj/../FATFS/ff.c:1415
	if (clst < 2 || clst >= fs->n_fatent) return FR_INT_ERR;	/* Check if in valid range */
    4720:	4785                	li	a5,1
E:\Works\NSCAM\obj/../FATFS/ff.c:1404
{
    4722:	84ae                	mv	s1,a1
E:\Works\NSCAM\obj/../FATFS/ff.c:1407
	FATFS *fs = obj->fs;
    4724:	4100                	lw	s0,0(a0)
E:\Works\NSCAM\obj/../FATFS/ff.c:1415
	if (clst < 2 || clst >= fs->n_fatent) return FR_INT_ERR;	/* Check if in valid range */
    4726:	06b7fd63          	bgeu	a5,a1,47a0 <remove_chain+0x90>
E:\Works\NSCAM\obj/../FATFS/ff.c:1415 (discriminator 2)
    472a:	485c                	lw	a5,20(s0)
    472c:	06f5fa63          	bgeu	a1,a5,47a0 <remove_chain+0x90>
    4730:	89aa                	mv	s3,a0
    4732:	85b2                	mv	a1,a2
E:\Works\NSCAM\obj/../FATFS/ff.c:1418
	if (pclst != 0 && (!FF_FS_EXFAT || fs->fs_type != FS_EXFAT || obj->stat != 2)) {
    4734:	ee01                	bnez	a2,474c <remove_chain+0x3c>
E:\Works\NSCAM\obj/../FATFS/ff.c:1427
		if (nxt == 1) return FR_INT_ERR;	/* Internal error? */
    4736:	4a05                	li	s4,1
E:\Works\NSCAM\obj/../FATFS/ff.c:1428
		if (nxt == 0xFFFFFFFF) return FR_DISK_ERR;	/* Disk error? */
    4738:	5afd                	li	s5,-1
E:\Works\NSCAM\obj/../FATFS/ff.c:1425
		nxt = get_fat(obj, clst);			/* Get cluster status */
    473a:	0009a503          	lw	a0,0(s3)
    473e:	85a6                	mv	a1,s1
    4740:	ddbff0ef          	jal	ra,451a <get_fat.isra.8>
    4744:	892a                	mv	s2,a0
E:\Works\NSCAM\obj/../FATFS/ff.c:1426
		if (nxt == 0) break;				/* Empty cluster? */
    4746:	e10d                	bnez	a0,4768 <remove_chain+0x58>
E:\Works\NSCAM\obj/../FATFS/ff.c:1484
	return FR_OK;
    4748:	4501                	li	a0,0
    474a:	a031                	j	4756 <remove_chain+0x46>
E:\Works\NSCAM\obj/../FATFS/ff.c:1419
		res = put_fat(fs, pclst, 0xFFFFFFFF);
    474c:	567d                	li	a2,-1
    474e:	8522                	mv	a0,s0
    4750:	c7bff0ef          	jal	ra,43ca <put_fat>
E:\Works\NSCAM\obj/../FATFS/ff.c:1420
		if (res != FR_OK) return res;
    4754:	d16d                	beqz	a0,4736 <remove_chain+0x26>
E:\Works\NSCAM\obj/../FATFS/ff.c:1485
}
    4756:	40f2                	lw	ra,28(sp)
    4758:	4462                	lw	s0,24(sp)
    475a:	44d2                	lw	s1,20(sp)
    475c:	4942                	lw	s2,16(sp)
    475e:	49b2                	lw	s3,12(sp)
    4760:	4a22                	lw	s4,8(sp)
    4762:	4a92                	lw	s5,4(sp)
    4764:	6105                	addi	sp,sp,32
    4766:	8082                	ret
E:\Works\NSCAM\obj/../FATFS/ff.c:1427
		if (nxt == 1) return FR_INT_ERR;	/* Internal error? */
    4768:	03450c63          	beq	a0,s4,47a0 <remove_chain+0x90>
E:\Works\NSCAM\obj/../FATFS/ff.c:1428
		if (nxt == 0xFFFFFFFF) return FR_DISK_ERR;	/* Disk error? */
    476c:	03550c63          	beq	a0,s5,47a4 <remove_chain+0x94>
E:\Works\NSCAM\obj/../FATFS/ff.c:1430
			res = put_fat(fs, clst, 0);		/* Mark the cluster 'free' on the FAT */
    4770:	4601                	li	a2,0
    4772:	85a6                	mv	a1,s1
    4774:	8522                	mv	a0,s0
    4776:	c55ff0ef          	jal	ra,43ca <put_fat>
E:\Works\NSCAM\obj/../FATFS/ff.c:1431
			if (res != FR_OK) return res;
    477a:	fd71                	bnez	a0,4756 <remove_chain+0x46>
E:\Works\NSCAM\obj/../FATFS/ff.c:1433
		if (fs->free_clst < fs->n_fatent - 2) {	/* Update FSINFO */
    477c:	4858                	lw	a4,20(s0)
    477e:	481c                	lw	a5,16(s0)
    4780:	ffe70693          	addi	a3,a4,-2
    4784:	00d7fa63          	bgeu	a5,a3,4798 <remove_chain+0x88>
E:\Works\NSCAM\obj/../FATFS/ff.c:1434
			fs->free_clst++;
    4788:	0785                	addi	a5,a5,1
    478a:	c81c                	sw	a5,16(s0)
E:\Works\NSCAM\obj/../FATFS/ff.c:1435
			fs->fsi_flag |= 1;
    478c:	00444783          	lbu	a5,4(s0)
    4790:	0017e793          	ori	a5,a5,1
    4794:	00f40223          	sb	a5,4(s0)
E:\Works\NSCAM\obj/../FATFS/ff.c:1455
		clst = nxt;					/* Next cluster */
    4798:	84ca                	mv	s1,s2
E:\Works\NSCAM\obj/../FATFS/ff.c:1456
	} while (clst < fs->n_fatent);	/* Repeat while not the last link */
    479a:	fae960e3          	bltu	s2,a4,473a <remove_chain+0x2a>
    479e:	b76d                	j	4748 <remove_chain+0x38>
E:\Works\NSCAM\obj/../FATFS/ff.c:1415
	if (clst < 2 || clst >= fs->n_fatent) return FR_INT_ERR;	/* Check if in valid range */
    47a0:	4509                	li	a0,2
    47a2:	bf55                	j	4756 <remove_chain+0x46>
E:\Works\NSCAM\obj/../FATFS/ff.c:1428
		if (nxt == 0xFFFFFFFF) return FR_DISK_ERR;	/* Disk error? */
    47a4:	4505                	li	a0,1
    47a6:	bf45                	j	4756 <remove_chain+0x46>

000047a8 <mount_volume>:
mount_volume():
E:\Works\NSCAM\obj/../FATFS/ff.c:3337
{
    47a8:	7139                	addi	sp,sp,-64
    47aa:	d84a                	sw	s2,48(sp)
    47ac:	de06                	sw	ra,60(sp)
    47ae:	dc22                	sw	s0,56(sp)
    47b0:	da26                	sw	s1,52(sp)
    47b2:	d64e                	sw	s3,44(sp)
    47b4:	d452                	sw	s4,40(sp)
    47b6:	d256                	sw	s5,36(sp)
    47b8:	d05a                	sw	s6,32(sp)
E:\Works\NSCAM\obj/../FATFS/ff.c:3348
	*rfs = 0;
    47ba:	0005a023          	sw	zero,0(a1)
E:\Works\NSCAM\obj/../FATFS/ff.c:3337
{
    47be:	8932                	mv	s2,a2
E:\Works\NSCAM\obj/../FATFS/ff.c:3348
	*rfs = 0;
    47c0:	c62e                	sw	a1,12(sp)
E:\Works\NSCAM\obj/../FATFS/ff.c:3349
	vol = get_ldnumber(path);
    47c2:	98dff0ef          	jal	ra,414e <get_ldnumber>
E:\Works\NSCAM\obj/../FATFS/ff.c:3350
	if (vol < 0) return FR_INVALID_DRIVE;
    47c6:	47ad                	li	a5,11
    47c8:	02054e63          	bltz	a0,4804 <mount_volume+0x5c>
E:\Works\NSCAM\obj/../FATFS/ff.c:3353
	fs = FatFs[vol];					/* Get pointer to the filesystem object */
    47cc:	00251793          	slli	a5,a0,0x2
    47d0:	82418713          	addi	a4,gp,-2012 # 20000084 <FatFs>
    47d4:	97ba                	add	a5,a5,a4
    47d6:	4380                	lw	s0,0(a5)
    47d8:	84aa                	mv	s1,a0
E:\Works\NSCAM\obj/../FATFS/ff.c:3354
	if (!fs) return FR_NOT_ENABLED;		/* Is the filesystem object available? */
    47da:	47b1                	li	a5,12
    47dc:	c405                	beqz	s0,4804 <mount_volume+0x5c>
E:\Works\NSCAM\obj/../FATFS/ff.c:3358
	*rfs = fs;							/* Return pointer to the filesystem object */
    47de:	45b2                	lw	a1,12(sp)
E:\Works\NSCAM\obj/../FATFS/ff.c:3360
	mode &= (BYTE)~FA_READ;				/* Desired access mode, write access or not */
    47e0:	0fe97913          	andi	s2,s2,254
E:\Works\NSCAM\obj/../FATFS/ff.c:3358
	*rfs = fs;							/* Return pointer to the filesystem object */
    47e4:	c180                	sw	s0,0(a1)
E:\Works\NSCAM\obj/../FATFS/ff.c:3361
	if (fs->fs_type != 0) {				/* If the volume has been mounted */
    47e6:	00044783          	lbu	a5,0(s0)
    47ea:	cb85                	beqz	a5,481a <mount_volume+0x72>
E:\Works\NSCAM\obj/../FATFS/ff.c:3362
		stat = disk_status(fs->pdrv);
    47ec:	00144503          	lbu	a0,1(s0)
    47f0:	88dff0ef          	jal	ra,407c <disk_status>
E:\Works\NSCAM\obj/../FATFS/ff.c:3363
		if (!(stat & STA_NOINIT)) {		/* and the physical drive is kept initialized */
    47f4:	00157793          	andi	a5,a0,1
    47f8:	e38d                	bnez	a5,481a <mount_volume+0x72>
E:\Works\NSCAM\obj/../FATFS/ff.c:3364
			if (!FF_FS_READONLY && mode && (stat & STA_PROTECT)) {	/* Check write protection if needed */
    47fa:	00090563          	beqz	s2,4804 <mount_volume+0x5c>
E:\Works\NSCAM\obj/../FATFS/ff.c:3364 (discriminator 1)
    47fe:	8911                	andi	a0,a0,4
    4800:	c111                	beqz	a0,4804 <mount_volume+0x5c>
E:\Works\NSCAM\obj/../FATFS/ff.c:3365
				return FR_WRITE_PROTECTED;
    4802:	47a9                	li	a5,10
E:\Works\NSCAM\obj/../FATFS/ff.c:3552
}
    4804:	50f2                	lw	ra,60(sp)
    4806:	5462                	lw	s0,56(sp)
    4808:	54d2                	lw	s1,52(sp)
    480a:	5942                	lw	s2,48(sp)
    480c:	59b2                	lw	s3,44(sp)
    480e:	5a22                	lw	s4,40(sp)
    4810:	5a92                	lw	s5,36(sp)
    4812:	5b02                	lw	s6,32(sp)
    4814:	853e                	mv	a0,a5
    4816:	6121                	addi	sp,sp,64
    4818:	8082                	ret
E:\Works\NSCAM\obj/../FATFS/ff.c:3375
	fs->pdrv = LD2PD(vol);				/* Volume hosting physical drive */
    481a:	0ff4f513          	andi	a0,s1,255
E:\Works\NSCAM\obj/../FATFS/ff.c:3374
	fs->fs_type = 0;					/* Clear the filesystem object */
    481e:	00040023          	sb	zero,0(s0)
E:\Works\NSCAM\obj/../FATFS/ff.c:3375
	fs->pdrv = LD2PD(vol);				/* Volume hosting physical drive */
    4822:	00a400a3          	sb	a0,1(s0)
E:\Works\NSCAM\obj/../FATFS/ff.c:3376
	stat = disk_initialize(fs->pdrv);	/* Initialize the physical drive */
    4826:	861ff0ef          	jal	ra,4086 <disk_initialize>
E:\Works\NSCAM\obj/../FATFS/ff.c:3377
	if (stat & STA_NOINIT) { 			/* Check if the initialization succeeded */
    482a:	00157713          	andi	a4,a0,1
E:\Works\NSCAM\obj/../FATFS/ff.c:3378
		return FR_NOT_READY;			/* Failed to initialize due to no medium or hard error */
    482e:	478d                	li	a5,3
E:\Works\NSCAM\obj/../FATFS/ff.c:3377
	if (stat & STA_NOINIT) { 			/* Check if the initialization succeeded */
    4830:	fb71                	bnez	a4,4804 <mount_volume+0x5c>
E:\Works\NSCAM\obj/../FATFS/ff.c:3380
	if (!FF_FS_READONLY && mode && (stat & STA_PROTECT)) { /* Check disk write protection if needed */
    4832:	00090463          	beqz	s2,483a <mount_volume+0x92>
E:\Works\NSCAM\obj/../FATFS/ff.c:3380 (discriminator 1)
    4836:	8911                	andi	a0,a0,4
    4838:	f569                	bnez	a0,4802 <mount_volume+0x5a>
find_volume():
E:\Works\NSCAM\obj/../FATFS/ff.c:3287
	fmt = check_fs(fs, 0);				/* Load sector 0 and check if it is an FAT VBR as SFD format */
    483a:	4581                	li	a1,0
    483c:	8522                	mv	a0,s0
    483e:	a95ff0ef          	jal	ra,42d2 <check_fs>
E:\Works\NSCAM\obj/../FATFS/ff.c:3288
	if (fmt != 2 && (fmt >= 3 || part == 0)) return fmt;	/* Returns if it is an FAT VBR as auto scan, not a BS or disk error */
    4842:	4789                	li	a5,2
    4844:	04f51463          	bne	a0,a5,488c <mount_volume+0xe4>
    4848:	0804                	addi	s1,sp,16
    484a:	1f640913          	addi	s2,s0,502
    484e:	23640a13          	addi	s4,s0,566
    4852:	89a6                	mv	s3,s1
E:\Works\NSCAM\obj/../FATFS/ff.c:3316
		mbr_pt[i] = ld_dword(fs->win + MBR_Table + i * SZ_PTE + PTE_StLba);
    4854:	854a                	mv	a0,s2
    4856:	8bfff0ef          	jal	ra,4114 <ld_dword>
    485a:	00a9a023          	sw	a0,0(s3)
    485e:	0941                	addi	s2,s2,16
    4860:	0991                	addi	s3,s3,4
E:\Works\NSCAM\obj/../FATFS/ff.c:3315
	for (i = 0; i < 4; i++) {		/* Load partition offset in the MBR */
    4862:	ff2a19e3          	bne	s4,s2,4854 <mount_volume+0xac>
    4866:	01048913          	addi	s2,s1,16
E:\Works\NSCAM\obj/../FATFS/ff.c:3321
	} while (part == 0 && fmt >= 2 && ++i < 4);
    486a:	4985                	li	s3,1
E:\Works\NSCAM\obj/../FATFS/ff.c:3320
		fmt = mbr_pt[i] ? check_fs(fs, mbr_pt[i]) : 3;	/* Check if the partition is FAT */
    486c:	408c                	lw	a1,0(s1)
    486e:	450d                	li	a0,3
    4870:	c591                	beqz	a1,487c <mount_volume+0xd4>
    4872:	8522                	mv	a0,s0
    4874:	a5fff0ef          	jal	ra,42d2 <check_fs>
E:\Works\NSCAM\obj/../FATFS/ff.c:3321
	} while (part == 0 && fmt >= 2 && ++i < 4);
    4878:	02a9f263          	bgeu	s3,a0,489c <mount_volume+0xf4>
    487c:	0491                	addi	s1,s1,4
    487e:	fe9917e3          	bne	s2,s1,486c <mount_volume+0xc4>
mount_volume():
E:\Works\NSCAM\obj/../FATFS/ff.c:3390
	if (fmt == 4) return FR_DISK_ERR;		/* An error occured in the disk I/O layer */
    4882:	4711                	li	a4,4
    4884:	4785                	li	a5,1
    4886:	00e51963          	bne	a0,a4,4898 <mount_volume+0xf0>
    488a:	bfad                	j	4804 <mount_volume+0x5c>
    488c:	4711                	li	a4,4
    488e:	4785                	li	a5,1
    4890:	f6e50ae3          	beq	a0,a4,4804 <mount_volume+0x5c>
E:\Works\NSCAM\obj/../FATFS/ff.c:3391
	if (fmt >= 2) return FR_NO_FILESYSTEM;	/* No FAT volume is found */
    4894:	00a7f463          	bgeu	a5,a0,489c <mount_volume+0xf4>
    4898:	47b5                	li	a5,13
    489a:	b7ad                	j	4804 <mount_volume+0x5c>
ld_word():
E:\Works\NSCAM\obj/../FATFS/ff.c:619
	rv = rv << 8 | ptr[0];
    489c:	03c44783          	lbu	a5,60(s0)
    48a0:	03b44703          	lbu	a4,59(s0)
    48a4:	07a2                	slli	a5,a5,0x8
    48a6:	8fd9                	or	a5,a5,a4
mount_volume():
E:\Works\NSCAM\obj/../FATFS/ff.c:3460
		if (ld_word(fs->win + BPB_BytsPerSec) != SS(fs)) return FR_NO_FILESYSTEM;	/* (BPB_BytsPerSec must be equal to the physical sector size) */
    48a8:	07c2                	slli	a5,a5,0x10
    48aa:	87c1                	srai	a5,a5,0x10
    48ac:	20000713          	li	a4,512
    48b0:	fee794e3          	bne	a5,a4,4898 <mount_volume+0xf0>
ld_word():
E:\Works\NSCAM\obj/../FATFS/ff.c:619
	rv = rv << 8 | ptr[0];
    48b4:	04744983          	lbu	s3,71(s0)
    48b8:	04644783          	lbu	a5,70(s0)
    48bc:	09a2                	slli	s3,s3,0x8
    48be:	00f9e9b3          	or	s3,s3,a5
mount_volume():
E:\Works\NSCAM\obj/../FATFS/ff.c:3463
		if (fasize == 0) fasize = ld_dword(fs->win + BPB_FATSz32);
    48c2:	00099763          	bnez	s3,48d0 <mount_volume+0x128>
E:\Works\NSCAM\obj/../FATFS/ff.c:3463 (discriminator 1)
    48c6:	05440513          	addi	a0,s0,84
    48ca:	84bff0ef          	jal	ra,4114 <ld_dword>
    48ce:	89aa                	mv	s3,a0
E:\Works\NSCAM\obj/../FATFS/ff.c:3466
		fs->n_fats = fs->win[BPB_NumFATs];				/* Number of FATs */
    48d0:	04044483          	lbu	s1,64(s0)
E:\Works\NSCAM\obj/../FATFS/ff.c:3464
		fs->fsize = fasize;
    48d4:	01342c23          	sw	s3,24(s0)
E:\Works\NSCAM\obj/../FATFS/ff.c:3467
		if (fs->n_fats != 1 && fs->n_fats != 2) return FR_NO_FILESYSTEM;	/* (Must be 1 or 2) */
    48d8:	4705                	li	a4,1
    48da:	fff48793          	addi	a5,s1,-1
E:\Works\NSCAM\obj/../FATFS/ff.c:3466
		fs->n_fats = fs->win[BPB_NumFATs];				/* Number of FATs */
    48de:	00940123          	sb	s1,2(s0)
E:\Works\NSCAM\obj/../FATFS/ff.c:3467
		if (fs->n_fats != 1 && fs->n_fats != 2) return FR_NO_FILESYSTEM;	/* (Must be 1 or 2) */
    48e2:	0ff7f793          	andi	a5,a5,255
E:\Works\NSCAM\obj/../FATFS/ff.c:3392
	bsect = fs->winsect;					/* Volume offset */
    48e6:	02c42a03          	lw	s4,44(s0)
E:\Works\NSCAM\obj/../FATFS/ff.c:3467
		if (fs->n_fats != 1 && fs->n_fats != 2) return FR_NO_FILESYSTEM;	/* (Must be 1 or 2) */
    48ea:	faf767e3          	bltu	a4,a5,4898 <mount_volume+0xf0>
E:\Works\NSCAM\obj/../FATFS/ff.c:3470
		fs->csize = fs->win[BPB_SecPerClus];			/* Cluster size */
    48ee:	03d44903          	lbu	s2,61(s0)
    48f2:	01091793          	slli	a5,s2,0x10
    48f6:	83c1                	srli	a5,a5,0x10
    48f8:	00f41523          	sh	a5,10(s0)
E:\Works\NSCAM\obj/../FATFS/ff.c:3471
		if (fs->csize == 0 || (fs->csize & (fs->csize - 1))) return FR_NO_FILESYSTEM;	/* (Must be power of 2) */
    48fc:	dfd1                	beqz	a5,4898 <mount_volume+0xf0>
E:\Works\NSCAM\obj/../FATFS/ff.c:3471 (discriminator 2)
    48fe:	fff90793          	addi	a5,s2,-1
    4902:	0127f7b3          	and	a5,a5,s2
    4906:	fbc9                	bnez	a5,4898 <mount_volume+0xf0>
ld_word():
E:\Works\NSCAM\obj/../FATFS/ff.c:619
	rv = rv << 8 | ptr[0];
    4908:	04244783          	lbu	a5,66(s0)
    490c:	04144a83          	lbu	s5,65(s0)
    4910:	07a2                	slli	a5,a5,0x8
    4912:	0157e7b3          	or	a5,a5,s5
    4916:	01079a93          	slli	s5,a5,0x10
    491a:	410ada93          	srai	s5,s5,0x10
    491e:	010a9b13          	slli	s6,s5,0x10
    4922:	010b5b13          	srli	s6,s6,0x10
mount_volume():
E:\Works\NSCAM\obj/../FATFS/ff.c:3473
		fs->n_rootdir = ld_word(fs->win + BPB_RootEntCnt);	/* Number of root directory entries */
    4926:	01641423          	sh	s6,8(s0)
E:\Works\NSCAM\obj/../FATFS/ff.c:3474
		if (fs->n_rootdir % (SS(fs) / SZDIRE)) return FR_NO_FILESYSTEM;	/* (Must be sector aligned) */
    492a:	00fb7793          	andi	a5,s6,15
    492e:	f7ad                	bnez	a5,4898 <mount_volume+0xf0>
ld_word():
E:\Works\NSCAM\obj/../FATFS/ff.c:619
	rv = rv << 8 | ptr[0];
    4930:	04444503          	lbu	a0,68(s0)
    4934:	04344783          	lbu	a5,67(s0)
    4938:	0522                	slli	a0,a0,0x8
    493a:	8d5d                	or	a0,a0,a5
mount_volume():
E:\Works\NSCAM\obj/../FATFS/ff.c:3477
		if (tsect == 0) tsect = ld_dword(fs->win + BPB_TotSec32);
    493c:	e509                	bnez	a0,4946 <mount_volume+0x19e>
E:\Works\NSCAM\obj/../FATFS/ff.c:3477 (discriminator 1)
    493e:	05040513          	addi	a0,s0,80
    4942:	fd2ff0ef          	jal	ra,4114 <ld_dword>
ld_word():
E:\Works\NSCAM\obj/../FATFS/ff.c:619
	rv = rv << 8 | ptr[0];
    4946:	03f44783          	lbu	a5,63(s0)
    494a:	03e44703          	lbu	a4,62(s0)
    494e:	07a2                	slli	a5,a5,0x8
    4950:	8fd9                	or	a5,a5,a4
mount_volume():
E:\Works\NSCAM\obj/../FATFS/ff.c:3480
		if (nrsv == 0) return FR_NO_FILESYSTEM;			/* (Must not be 0) */
    4952:	d3b9                	beqz	a5,4898 <mount_volume+0xf0>
E:\Works\NSCAM\obj/../FATFS/ff.c:3468
		fasize *= fs->n_fats;							/* Number of sectors for FAT area */
    4954:	033486b3          	mul	a3,s1,s3
E:\Works\NSCAM\obj/../FATFS/ff.c:3483
		sysect = nrsv + fasize + fs->n_rootdir / (SS(fs) / SZDIRE);	/* RSV + FAT + DIR */
    4958:	004b5713          	srli	a4,s6,0x4
    495c:	973e                	add	a4,a4,a5
    495e:	9736                	add	a4,a4,a3
E:\Works\NSCAM\obj/../FATFS/ff.c:3484
		if (tsect < sysect) return FR_NO_FILESYSTEM;	/* (Invalid volume size) */
    4960:	f2e56ce3          	bltu	a0,a4,4898 <mount_volume+0xf0>
E:\Works\NSCAM\obj/../FATFS/ff.c:3485
		nclst = (tsect - sysect) / fs->csize;			/* Number of clusters */
    4964:	8d19                	sub	a0,a0,a4
    4966:	032554b3          	divu	s1,a0,s2
E:\Works\NSCAM\obj/../FATFS/ff.c:3486
		if (nclst == 0) return FR_NO_FILESYSTEM;		/* (Invalid volume size) */
    496a:	f32567e3          	bltu	a0,s2,4898 <mount_volume+0xf0>
E:\Works\NSCAM\obj/../FATFS/ff.c:3488
		if (nclst <= MAX_FAT32) fmt = FS_FAT32;
    496e:	10000637          	lui	a2,0x10000
    4972:	1655                	addi	a2,a2,-11
    4974:	f29662e3          	bltu	a2,s1,4898 <mount_volume+0xf0>
E:\Works\NSCAM\obj/../FATFS/ff.c:3489
		if (nclst <= MAX_FAT16) fmt = FS_FAT16;
    4978:	6641                	lui	a2,0x10
    497a:	1655                	addi	a2,a2,-11
    497c:	10967b63          	bgeu	a2,s1,4a92 <mount_volume+0x2ea>
E:\Works\NSCAM\obj/../FATFS/ff.c:3488
		if (nclst <= MAX_FAT32) fmt = FS_FAT32;
    4980:	490d                	li	s2,3
E:\Works\NSCAM\obj/../FATFS/ff.c:3497
		fs->database = bsect + sysect;					/* Data start sector */
    4982:	9752                	add	a4,a4,s4
E:\Works\NSCAM\obj/../FATFS/ff.c:3494
		fs->n_fatent = nclst + 2;						/* Number of FAT entries */
    4984:	0489                	addi	s1,s1,2
E:\Works\NSCAM\obj/../FATFS/ff.c:3496
		fs->fatbase = bsect + nrsv; 					/* FAT start sector */
    4986:	97d2                	add	a5,a5,s4
E:\Works\NSCAM\obj/../FATFS/ff.c:3497
		fs->database = bsect + sysect;					/* Data start sector */
    4988:	d418                	sw	a4,40(s0)
E:\Works\NSCAM\obj/../FATFS/ff.c:3494
		fs->n_fatent = nclst + 2;						/* Number of FAT entries */
    498a:	c844                	sw	s1,20(s0)
E:\Works\NSCAM\obj/../FATFS/ff.c:3495
		fs->volbase = bsect;							/* Volume start sector */
    498c:	01442e23          	sw	s4,28(s0)
E:\Works\NSCAM\obj/../FATFS/ff.c:3496
		fs->fatbase = bsect + nrsv; 					/* FAT start sector */
    4990:	d01c                	sw	a5,32(s0)
E:\Works\NSCAM\obj/../FATFS/ff.c:3498
		if (fmt == FS_FAT32) {
    4992:	470d                	li	a4,3
    4994:	0ee91063          	bne	s2,a4,4a74 <mount_volume+0x2cc>
ld_word():
E:\Works\NSCAM\obj/../FATFS/ff.c:619
	rv = rv << 8 | ptr[0];
    4998:	05b44783          	lbu	a5,91(s0)
    499c:	05a44703          	lbu	a4,90(s0)
    49a0:	07a2                	slli	a5,a5,0x8
    49a2:	8fd9                	or	a5,a5,a4
mount_volume():
E:\Works\NSCAM\obj/../FATFS/ff.c:3499
			if (ld_word(fs->win + BPB_FSVer32) != 0) return FR_NO_FILESYSTEM;	/* (Must be FAT32 revision 0.0) */
    49a4:	00fae7b3          	or	a5,s5,a5
    49a8:	07c2                	slli	a5,a5,0x10
    49aa:	87c1                	srai	a5,a5,0x10
    49ac:	ee0796e3          	bnez	a5,4898 <mount_volume+0xf0>
E:\Works\NSCAM\obj/../FATFS/ff.c:3501
			fs->dirbase = ld_dword(fs->win + BPB_RootClus32);	/* Root directory start cluster */
    49b0:	05c40513          	addi	a0,s0,92
    49b4:	f60ff0ef          	jal	ra,4114 <ld_dword>
    49b8:	d048                	sw	a0,36(s0)
E:\Works\NSCAM\obj/../FATFS/ff.c:3502
			szbfat = fs->n_fatent * 4;					/* (Needed FAT size) */
    49ba:	048a                	slli	s1,s1,0x2
E:\Works\NSCAM\obj/../FATFS/ff.c:3509
		if (fs->fsize < (szbfat + (SS(fs) - 1)) / SS(fs)) return FR_NO_FILESYSTEM;	/* (BPB_FATSz must not be less than the size needed) */
    49bc:	1ff48493          	addi	s1,s1,511
    49c0:	80a5                	srli	s1,s1,0x9
    49c2:	ec99ebe3          	bltu	s3,s1,4898 <mount_volume+0xf0>
E:\Works\NSCAM\obj/../FATFS/ff.c:3513
		fs->last_clst = fs->free_clst = 0xFFFFFFFF;		/* Initialize cluster allocation information */
    49c6:	57fd                	li	a5,-1
    49c8:	c81c                	sw	a5,16(s0)
    49ca:	c45c                	sw	a5,12(s0)
E:\Works\NSCAM\obj/../FATFS/ff.c:3514
		fs->fsi_flag = 0x80;
    49cc:	f8000793          	li	a5,-128
    49d0:	00f40223          	sb	a5,4(s0)
E:\Works\NSCAM\obj/../FATFS/ff.c:3516
		if (fmt == FS_FAT32				/* Allow to update FSInfo only if BPB_FSInfo32 == 1 */
    49d4:	478d                	li	a5,3
    49d6:	08f91063          	bne	s2,a5,4a56 <mount_volume+0x2ae>
ld_word():
E:\Works\NSCAM\obj/../FATFS/ff.c:619
	rv = rv << 8 | ptr[0];
    49da:	06144783          	lbu	a5,97(s0)
    49de:	06044703          	lbu	a4,96(s0)
    49e2:	07a2                	slli	a5,a5,0x8
    49e4:	8fd9                	or	a5,a5,a4
mount_volume():
E:\Works\NSCAM\obj/../FATFS/ff.c:3517
			&& ld_word(fs->win + BPB_FSInfo32) == 1
    49e6:	07c2                	slli	a5,a5,0x10
    49e8:	87c1                	srai	a5,a5,0x10
    49ea:	4705                	li	a4,1
    49ec:	06e79563          	bne	a5,a4,4a56 <mount_volume+0x2ae>
E:\Works\NSCAM\obj/../FATFS/ff.c:3518
			&& move_window(fs, bsect + 1) == FR_OK)
    49f0:	001a0593          	addi	a1,s4,1
    49f4:	8522                	mv	a0,s0
    49f6:	88fff0ef          	jal	ra,4284 <move_window>
    49fa:	ed31                	bnez	a0,4a56 <mount_volume+0x2ae>
ld_word():
E:\Works\NSCAM\obj/../FATFS/ff.c:619
	rv = rv << 8 | ptr[0];
    49fc:	22f44783          	lbu	a5,559(s0)
    4a00:	22e44703          	lbu	a4,558(s0)
mount_volume():
E:\Works\NSCAM\obj/../FATFS/ff.c:3520
			fs->fsi_flag = 0;
    4a04:	00040223          	sb	zero,4(s0)
ld_word():
E:\Works\NSCAM\obj/../FATFS/ff.c:619
	rv = rv << 8 | ptr[0];
    4a08:	07a2                	slli	a5,a5,0x8
    4a0a:	8fd9                	or	a5,a5,a4
mount_volume():
E:\Works\NSCAM\obj/../FATFS/ff.c:3521
			if (ld_word(fs->win + BS_55AA) == 0xAA55	/* Load FSInfo data if available */
    4a0c:	07c2                	slli	a5,a5,0x10
    4a0e:	776d                	lui	a4,0xffffb
    4a10:	87c1                	srai	a5,a5,0x10
    4a12:	a5570713          	addi	a4,a4,-1451 # ffffaa55 <sensor_lcd_map+0xdffda055>
    4a16:	04e79063          	bne	a5,a4,4a56 <mount_volume+0x2ae>
E:\Works\NSCAM\obj/../FATFS/ff.c:3522
				&& ld_dword(fs->win + FSI_LeadSig) == 0x41615252
    4a1a:	03040513          	addi	a0,s0,48
    4a1e:	ef6ff0ef          	jal	ra,4114 <ld_dword>
    4a22:	416157b7          	lui	a5,0x41615
    4a26:	25278793          	addi	a5,a5,594 # 41615252 <sensor_lcd_map+0x215f4852>
    4a2a:	02f51663          	bne	a0,a5,4a56 <mount_volume+0x2ae>
E:\Works\NSCAM\obj/../FATFS/ff.c:3523
				&& ld_dword(fs->win + FSI_StrucSig) == 0x61417272)
    4a2e:	21440513          	addi	a0,s0,532
    4a32:	ee2ff0ef          	jal	ra,4114 <ld_dword>
    4a36:	614177b7          	lui	a5,0x61417
    4a3a:	27278793          	addi	a5,a5,626 # 61417272 <sensor_lcd_map+0x413f6872>
    4a3e:	00f51c63          	bne	a0,a5,4a56 <mount_volume+0x2ae>
E:\Works\NSCAM\obj/../FATFS/ff.c:3526
				fs->free_clst = ld_dword(fs->win + FSI_Free_Count);
    4a42:	21840513          	addi	a0,s0,536
    4a46:	eceff0ef          	jal	ra,4114 <ld_dword>
    4a4a:	c808                	sw	a0,16(s0)
E:\Works\NSCAM\obj/../FATFS/ff.c:3529
				fs->last_clst = ld_dword(fs->win + FSI_Nxt_Free);
    4a4c:	21c40513          	addi	a0,s0,540
    4a50:	ec4ff0ef          	jal	ra,4114 <ld_dword>
    4a54:	c448                	sw	a0,12(s0)
E:\Works\NSCAM\obj/../FATFS/ff.c:3538
	fs->id = ++Fsid;		/* Volume mount ID */
    4a56:	82818713          	addi	a4,gp,-2008 # 20000088 <Fsid>
    4a5a:	00075783          	lhu	a5,0(a4)
E:\Works\NSCAM\obj/../FATFS/ff.c:3537
	fs->fs_type = (BYTE)fmt;/* FAT sub-type */
    4a5e:	01240023          	sb	s2,0(s0)
E:\Works\NSCAM\obj/../FATFS/ff.c:3538
	fs->id = ++Fsid;		/* Volume mount ID */
    4a62:	0785                	addi	a5,a5,1
    4a64:	07c2                	slli	a5,a5,0x10
    4a66:	83c1                	srli	a5,a5,0x10
    4a68:	00f71023          	sh	a5,0(a4)
    4a6c:	00f41323          	sh	a5,6(s0)
E:\Works\NSCAM\obj/../FATFS/ff.c:3551
	return FR_OK;
    4a70:	4781                	li	a5,0
    4a72:	bb49                	j	4804 <mount_volume+0x5c>
E:\Works\NSCAM\obj/../FATFS/ff.c:3504
			if (fs->n_rootdir == 0)	return FR_NO_FILESYSTEM;	/* (BPB_RootEntCnt must not be 0) */
    4a74:	e20b02e3          	beqz	s6,4898 <mount_volume+0xf0>
E:\Works\NSCAM\obj/../FATFS/ff.c:3505
			fs->dirbase = fs->fatbase + fasize;			/* Root directory start sector */
    4a78:	97b6                	add	a5,a5,a3
    4a7a:	d05c                	sw	a5,36(s0)
E:\Works\NSCAM\obj/../FATFS/ff.c:3507
				fs->n_fatent * 2 : fs->n_fatent * 3 / 2 + (fs->n_fatent & 1);
    4a7c:	4789                	li	a5,2
    4a7e:	00f91463          	bne	s2,a5,4a86 <mount_volume+0x2de>
E:\Works\NSCAM\obj/../FATFS/ff.c:3507 (discriminator 1)
    4a82:	0486                	slli	s1,s1,0x1
    4a84:	bf25                	j	49bc <mount_volume+0x214>
E:\Works\NSCAM\obj/../FATFS/ff.c:3507 (discriminator 2)
    4a86:	02e48733          	mul	a4,s1,a4
    4a8a:	8885                	andi	s1,s1,1
    4a8c:	8305                	srli	a4,a4,0x1
    4a8e:	94ba                	add	s1,s1,a4
    4a90:	b735                	j	49bc <mount_volume+0x214>
E:\Works\NSCAM\obj/../FATFS/ff.c:3490
		if (nclst <= MAX_FAT12) fmt = FS_FAT12;
    4a92:	6905                	lui	s2,0x1
    4a94:	1955                	addi	s2,s2,-11
    4a96:	00993933          	sltu	s2,s2,s1
    4a9a:	0905                	addi	s2,s2,1
    4a9c:	b5dd                	j	4982 <mount_volume+0x1da>

00004a9e <dir_sdi.constprop.14>:
dir_sdi():
E:\Works\NSCAM\obj/../FATFS/ff.c:1666
static FRESULT dir_sdi (	/* FR_OK(0):succeeded, !=0:error */
    4a9e:	1101                	addi	sp,sp,-32
    4aa0:	c84a                	sw	s2,16(sp)
E:\Works\NSCAM\obj/../FATFS/ff.c:1679
	clst = dp->obj.sclust;		/* Table start cluster (0:root) */
    4aa2:	00852903          	lw	s2,8(a0)
E:\Works\NSCAM\obj/../FATFS/ff.c:1666
static FRESULT dir_sdi (	/* FR_OK(0):succeeded, !=0:error */
    4aa6:	cc22                	sw	s0,24(sp)
    4aa8:	ca26                	sw	s1,20(sp)
    4aaa:	ce06                	sw	ra,28(sp)
    4aac:	c64e                	sw	s3,12(sp)
    4aae:	c452                	sw	s4,8(sp)
E:\Works\NSCAM\obj/../FATFS/ff.c:1678
	dp->dptr = ofs;				/* Set current offset */
    4ab0:	00052823          	sw	zero,16(a0)
E:\Works\NSCAM\obj/../FATFS/ff.c:1666
static FRESULT dir_sdi (	/* FR_OK(0):succeeded, !=0:error */
    4ab4:	84aa                	mv	s1,a0
E:\Works\NSCAM\obj/../FATFS/ff.c:1672
	FATFS *fs = dp->obj.fs;
    4ab6:	4100                	lw	s0,0(a0)
E:\Works\NSCAM\obj/../FATFS/ff.c:1680
	if (clst == 0 && fs->fs_type >= FS_FAT32) {	/* Replace cluster# 0 with root cluster# */
    4ab8:	04091163          	bnez	s2,4afa <dir_sdi.constprop.14+0x5c>
    4abc:	00044703          	lbu	a4,0(s0)
    4ac0:	4789                	li	a5,2
    4ac2:	00e7f463          	bgeu	a5,a4,4aca <dir_sdi.constprop.14+0x2c>
E:\Works\NSCAM\obj/../FATFS/ff.c:1681
		clst = (DWORD)fs->dirbase;
    4ac6:	505c                	lw	a5,36(s0)
E:\Works\NSCAM\obj/../FATFS/ff.c:1685
	if (clst == 0) {	/* Static table (root-directory on the FAT volume) */
    4ac8:	eb85                	bnez	a5,4af8 <dir_sdi.constprop.14+0x5a>
E:\Works\NSCAM\obj/../FATFS/ff.c:1686
		if (ofs / SZDIRE >= fs->n_rootdir) return FR_INT_ERR;	/* Is index out of range? */
    4aca:	00845783          	lhu	a5,8(s0)
    4ace:	eb91                	bnez	a5,4ae2 <dir_sdi.constprop.14+0x44>
    4ad0:	4509                	li	a0,2
E:\Works\NSCAM\obj/../FATFS/ff.c:1705
}
    4ad2:	40f2                	lw	ra,28(sp)
    4ad4:	4462                	lw	s0,24(sp)
    4ad6:	44d2                	lw	s1,20(sp)
    4ad8:	4942                	lw	s2,16(sp)
    4ada:	49b2                	lw	s3,12(sp)
    4adc:	4a22                	lw	s4,8(sp)
    4ade:	6105                	addi	sp,sp,32
    4ae0:	8082                	ret
E:\Works\NSCAM\obj/../FATFS/ff.c:1687
		dp->sect = fs->dirbase;
    4ae2:	505c                	lw	a5,36(s0)
    4ae4:	cc9c                	sw	a5,24(s1)
E:\Works\NSCAM\obj/../FATFS/ff.c:1700
	if (dp->sect == 0) return FR_INT_ERR;
    4ae6:	4c9c                	lw	a5,24(s1)
E:\Works\NSCAM\obj/../FATFS/ff.c:1699
	dp->clust = clst;					/* Current cluster# */
    4ae8:	0124aa23          	sw	s2,20(s1)
E:\Works\NSCAM\obj/../FATFS/ff.c:1700
	if (dp->sect == 0) return FR_INT_ERR;
    4aec:	d3f5                	beqz	a5,4ad0 <dir_sdi.constprop.14+0x32>
E:\Works\NSCAM\obj/../FATFS/ff.c:1702
	dp->dir = fs->win + (ofs % SS(fs));	/* Pointer to the entry in the win[] */
    4aee:	03040413          	addi	s0,s0,48
    4af2:	ccc0                	sw	s0,28(s1)
E:\Works\NSCAM\obj/../FATFS/ff.c:1704
	return FR_OK;
    4af4:	4501                	li	a0,0
    4af6:	bff1                	j	4ad2 <dir_sdi.constprop.14+0x34>
E:\Works\NSCAM\obj/../FATFS/ff.c:1685
	if (clst == 0) {	/* Static table (root-directory on the FAT volume) */
    4af8:	893e                	mv	s2,a5
E:\Works\NSCAM\obj/../FATFS/ff.c:1690
		csz = (DWORD)fs->csize * SS(fs);	/* Bytes per cluster */
    4afa:	00a45783          	lhu	a5,10(s0)
E:\Works\NSCAM\obj/../FATFS/ff.c:1693
			if (clst == 0xFFFFFFFF) return FR_DISK_ERR;	/* Disk error */
    4afe:	59fd                	li	s3,-1
E:\Works\NSCAM\obj/../FATFS/ff.c:1694
			if (clst < 2 || clst >= fs->n_fatent) return FR_INT_ERR;	/* Reached to end of table or internal error */
    4b00:	4a05                	li	s4,1
E:\Works\NSCAM\obj/../FATFS/ff.c:1691
		while (ofs >= csz) {				/* Follow cluster chain */
    4b02:	ef91                	bnez	a5,4b1e <dir_sdi.constprop.14+0x80>
E:\Works\NSCAM\obj/../FATFS/ff.c:1692
			clst = get_fat(&dp->obj, clst);				/* Get next cluster */
    4b04:	4088                	lw	a0,0(s1)
    4b06:	85ca                	mv	a1,s2
    4b08:	a13ff0ef          	jal	ra,451a <get_fat.isra.8>
    4b0c:	892a                	mv	s2,a0
E:\Works\NSCAM\obj/../FATFS/ff.c:1693
			if (clst == 0xFFFFFFFF) return FR_DISK_ERR;	/* Disk error */
    4b0e:	01350e63          	beq	a0,s3,4b2a <dir_sdi.constprop.14+0x8c>
E:\Works\NSCAM\obj/../FATFS/ff.c:1694
			if (clst < 2 || clst >= fs->n_fatent) return FR_INT_ERR;	/* Reached to end of table or internal error */
    4b12:	faaa7fe3          	bgeu	s4,a0,4ad0 <dir_sdi.constprop.14+0x32>
    4b16:	485c                	lw	a5,20(s0)
    4b18:	fef566e3          	bltu	a0,a5,4b04 <dir_sdi.constprop.14+0x66>
    4b1c:	bf55                	j	4ad0 <dir_sdi.constprop.14+0x32>
E:\Works\NSCAM\obj/../FATFS/ff.c:1697
		dp->sect = clst2sect(fs, clst);
    4b1e:	85ca                	mv	a1,s2
    4b20:	8522                	mv	a0,s0
    4b22:	e10ff0ef          	jal	ra,4132 <clst2sect>
    4b26:	cc88                	sw	a0,24(s1)
    4b28:	bf7d                	j	4ae6 <dir_sdi.constprop.14+0x48>
E:\Works\NSCAM\obj/../FATFS/ff.c:1693
			if (clst == 0xFFFFFFFF) return FR_DISK_ERR;	/* Disk error */
    4b2a:	4505                	li	a0,1
    4b2c:	b75d                	j	4ad2 <dir_sdi.constprop.14+0x34>

00004b2e <dir_clear>:
dir_clear():
E:\Works\NSCAM\obj/../FATFS/ff.c:1631
{
    4b2e:	7179                	addi	sp,sp,-48
    4b30:	d422                	sw	s0,40(sp)
    4b32:	d606                	sw	ra,44(sp)
    4b34:	d226                	sw	s1,36(sp)
    4b36:	d04a                	sw	s2,32(sp)
    4b38:	ce4e                	sw	s3,28(sp)
sync_window():
E:\Works\NSCAM\obj/../FATFS/ff.c:1032
	if (fs->wflag) {	/* Is the disk access window dirty? */
    4b3a:	00354783          	lbu	a5,3(a0)
dir_clear():
E:\Works\NSCAM\obj/../FATFS/ff.c:1631
{
    4b3e:	842a                	mv	s0,a0
sync_window():
E:\Works\NSCAM\obj/../FATFS/ff.c:1032
	if (fs->wflag) {	/* Is the disk access window dirty? */
    4b40:	eb8d                	bnez	a5,4b72 <dir_clear+0x44>
dir_clear():
E:\Works\NSCAM\obj/../FATFS/ff.c:1638
	sect = clst2sect(fs, clst);		/* Top of the cluster */
    4b42:	8522                	mv	a0,s0
    4b44:	deeff0ef          	jal	ra,4132 <clst2sect>
E:\Works\NSCAM\obj/../FATFS/ff.c:1640
	memset(fs->win, 0, sizeof fs->win);	/* Clear window buffer */
    4b48:	03040913          	addi	s2,s0,48
E:\Works\NSCAM\obj/../FATFS/ff.c:1639
	fs->winsect = sect;				/* Set window to top of the cluster */
    4b4c:	d448                	sw	a0,44(s0)
E:\Works\NSCAM\obj/../FATFS/ff.c:1638
	sect = clst2sect(fs, clst);		/* Top of the cluster */
    4b4e:	89aa                	mv	s3,a0
E:\Works\NSCAM\obj/../FATFS/ff.c:1640
	memset(fs->win, 0, sizeof fs->win);	/* Clear window buffer */
    4b50:	20000613          	li	a2,512
    4b54:	4581                	li	a1,0
    4b56:	854a                	mv	a0,s2
    4b58:	d68fb0ef          	jal	ra,c0 <memset>
E:\Works\NSCAM\obj/../FATFS/ff.c:1653
		for (n = 0; n < fs->csize && disk_write(fs->pdrv, ibuf, sect + n, szb) == RES_OK; n += szb) ;	/* Fill the cluster with 0 */
    4b5c:	4481                	li	s1,0
    4b5e:	00a45783          	lhu	a5,10(s0)
    4b62:	02f4e663          	bltu	s1,a5,4b8e <dir_clear+0x60>
E:\Works\NSCAM\obj/../FATFS/ff.c:1655
	return (n == fs->csize) ? FR_OK : FR_DISK_ERR;
    4b66:	00a45783          	lhu	a5,10(s0)
    4b6a:	8f85                	sub	a5,a5,s1
    4b6c:	00f037b3          	snez	a5,a5
    4b70:	a039                	j	4b7e <dir_clear+0x50>
    4b72:	c62e                	sw	a1,12(sp)
sync_window():
E:\Works\NSCAM\obj/../FATFS/ff.c:1655
    4b74:	eb4ff0ef          	jal	ra,4228 <sync_window.part.5>
dir_clear():
E:\Works\NSCAM\obj/../FATFS/ff.c:1637
	if (sync_window(fs) != FR_OK) return FR_DISK_ERR;	/* Flush disk access window */
    4b78:	4785                	li	a5,1
    4b7a:	45b2                	lw	a1,12(sp)
    4b7c:	d179                	beqz	a0,4b42 <dir_clear+0x14>
E:\Works\NSCAM\obj/../FATFS/ff.c:1656
}
    4b7e:	50b2                	lw	ra,44(sp)
    4b80:	5422                	lw	s0,40(sp)
    4b82:	5492                	lw	s1,36(sp)
    4b84:	5902                	lw	s2,32(sp)
    4b86:	49f2                	lw	s3,28(sp)
    4b88:	853e                	mv	a0,a5
    4b8a:	6145                	addi	sp,sp,48
    4b8c:	8082                	ret
E:\Works\NSCAM\obj/../FATFS/ff.c:1653
		for (n = 0; n < fs->csize && disk_write(fs->pdrv, ibuf, sect + n, szb) == RES_OK; n += szb) ;	/* Fill the cluster with 0 */
    4b8e:	00144503          	lbu	a0,1(s0)
    4b92:	4685                	li	a3,1
    4b94:	00998633          	add	a2,s3,s1
    4b98:	85ca                	mv	a1,s2
    4b9a:	d42ff0ef          	jal	ra,40dc <disk_write>
    4b9e:	f561                	bnez	a0,4b66 <dir_clear+0x38>
    4ba0:	0485                	addi	s1,s1,1
    4ba2:	bf75                	j	4b5e <dir_clear+0x30>

00004ba4 <dir_next>:
dir_next():
E:\Works\NSCAM\obj/../FATFS/ff.c:1718
{
    4ba4:	1101                	addi	sp,sp,-32
    4ba6:	c64e                	sw	s3,12(sp)
E:\Works\NSCAM\obj/../FATFS/ff.c:1723
	ofs = dp->dptr + SZDIRE;	/* Next entry */
    4ba8:	01052983          	lw	s3,16(a0)
E:\Works\NSCAM\obj/../FATFS/ff.c:1718
{
    4bac:	cc22                	sw	s0,24(sp)
    4bae:	ca26                	sw	s1,20(sp)
    4bb0:	ce06                	sw	ra,28(sp)
    4bb2:	c84a                	sw	s2,16(sp)
    4bb4:	c452                	sw	s4,8(sp)
    4bb6:	c256                	sw	s5,4(sp)
    4bb8:	c05a                	sw	s6,0(sp)
E:\Works\NSCAM\obj/../FATFS/ff.c:1723
	ofs = dp->dptr + SZDIRE;	/* Next entry */
    4bba:	02098993          	addi	s3,s3,32
E:\Works\NSCAM\obj/../FATFS/ff.c:1724
	if (ofs >= (DWORD)((FF_FS_EXFAT && fs->fs_type == FS_EXFAT) ? MAX_DIR_EX : MAX_DIR)) dp->sect = 0;	/* Disable it if the offset reached the max value */
    4bbe:	002007b7          	lui	a5,0x200
E:\Works\NSCAM\obj/../FATFS/ff.c:1718
{
    4bc2:	842a                	mv	s0,a0
E:\Works\NSCAM\obj/../FATFS/ff.c:1720
	FATFS *fs = dp->obj.fs;
    4bc4:	4104                	lw	s1,0(a0)
E:\Works\NSCAM\obj/../FATFS/ff.c:1724
	if (ofs >= (DWORD)((FF_FS_EXFAT && fs->fs_type == FS_EXFAT) ? MAX_DIR_EX : MAX_DIR)) dp->sect = 0;	/* Disable it if the offset reached the max value */
    4bc6:	00f9e463          	bltu	s3,a5,4bce <dir_next+0x2a>
E:\Works\NSCAM\obj/../FATFS/ff.c:1724 (discriminator 1)
    4bca:	00052c23          	sw	zero,24(a0)
E:\Works\NSCAM\obj/../FATFS/ff.c:1725
	if (dp->sect == 0) return FR_NO_FILE;	/* Report EOT if it has been disabled */
    4bce:	4c1c                	lw	a5,24(s0)
    4bd0:	4511                	li	a0,4
    4bd2:	c39d                	beqz	a5,4bf8 <dir_next+0x54>
E:\Works\NSCAM\obj/../FATFS/ff.c:1727
	if (ofs % SS(fs) == 0) {	/* Sector changed? */
    4bd4:	1ff9fa13          	andi	s4,s3,511
    4bd8:	8aae                	mv	s5,a1
    4bda:	080a1c63          	bnez	s4,4c72 <dir_next+0xce>
E:\Works\NSCAM\obj/../FATFS/ff.c:1730
		if (dp->clust == 0) {	/* Static table */
    4bde:	484c                	lw	a1,20(s0)
E:\Works\NSCAM\obj/../FATFS/ff.c:1728
		dp->sect++;				/* Next sector */
    4be0:	0785                	addi	a5,a5,1
    4be2:	cc1c                	sw	a5,24(s0)
E:\Works\NSCAM\obj/../FATFS/ff.c:1730
		if (dp->clust == 0) {	/* Static table */
    4be4:	e585                	bnez	a1,4c0c <dir_next+0x68>
E:\Works\NSCAM\obj/../FATFS/ff.c:1731
			if (ofs / SZDIRE >= fs->n_rootdir) {	/* Report EOT if it reached end of static table */
    4be6:	0084d703          	lhu	a4,8(s1)
    4bea:	0059d793          	srli	a5,s3,0x5
    4bee:	08e7e263          	bltu	a5,a4,4c72 <dir_next+0xce>
E:\Works\NSCAM\obj/../FATFS/ff.c:1732
				dp->sect = 0; return FR_NO_FILE;
    4bf2:	00042c23          	sw	zero,24(s0)
    4bf6:	4511                	li	a0,4
E:\Works\NSCAM\obj/../FATFS/ff.c:1765
}
    4bf8:	40f2                	lw	ra,28(sp)
    4bfa:	4462                	lw	s0,24(sp)
    4bfc:	44d2                	lw	s1,20(sp)
    4bfe:	4942                	lw	s2,16(sp)
    4c00:	49b2                	lw	s3,12(sp)
    4c02:	4a22                	lw	s4,8(sp)
    4c04:	4a92                	lw	s5,4(sp)
    4c06:	4b02                	lw	s6,0(sp)
    4c08:	6105                	addi	sp,sp,32
    4c0a:	8082                	ret
E:\Works\NSCAM\obj/../FATFS/ff.c:1736
			if ((ofs / SS(fs) & (fs->csize - 1)) == 0) {	/* Cluster changed? */
    4c0c:	00a4d783          	lhu	a5,10(s1)
    4c10:	0099d713          	srli	a4,s3,0x9
    4c14:	17fd                	addi	a5,a5,-1
    4c16:	8ff9                	and	a5,a5,a4
    4c18:	efa9                	bnez	a5,4c72 <dir_next+0xce>
E:\Works\NSCAM\obj/../FATFS/ff.c:1737
				clst = get_fat(&dp->obj, dp->clust);		/* Get next cluster */
    4c1a:	8526                	mv	a0,s1
    4c1c:	8ffff0ef          	jal	ra,451a <get_fat.isra.8>
E:\Works\NSCAM\obj/../FATFS/ff.c:1738
				if (clst <= 1) return FR_INT_ERR;			/* Internal error */
    4c20:	4b05                	li	s6,1
E:\Works\NSCAM\obj/../FATFS/ff.c:1737
				clst = get_fat(&dp->obj, dp->clust);		/* Get next cluster */
    4c22:	892a                	mv	s2,a0
E:\Works\NSCAM\obj/../FATFS/ff.c:1738
				if (clst <= 1) return FR_INT_ERR;			/* Internal error */
    4c24:	00ab6463          	bltu	s6,a0,4c2c <dir_next+0x88>
    4c28:	4509                	li	a0,2
    4c2a:	b7f9                	j	4bf8 <dir_next+0x54>
E:\Works\NSCAM\obj/../FATFS/ff.c:1739
				if (clst == 0xFFFFFFFF) return FR_DISK_ERR;	/* Disk error */
    4c2c:	57fd                	li	a5,-1
    4c2e:	00f51463          	bne	a0,a5,4c36 <dir_next+0x92>
    4c32:	4505                	li	a0,1
    4c34:	b7d1                	j	4bf8 <dir_next+0x54>
E:\Works\NSCAM\obj/../FATFS/ff.c:1740
				if (clst >= fs->n_fatent) {					/* It reached end of dynamic table */
    4c36:	48dc                	lw	a5,20(s1)
    4c38:	02f56663          	bltu	a0,a5,4c64 <dir_next+0xc0>
E:\Works\NSCAM\obj/../FATFS/ff.c:1742
					if (!stretch) {								/* If no stretch, report EOT */
    4c3c:	fa0a8be3          	beqz	s5,4bf2 <dir_next+0x4e>
E:\Works\NSCAM\obj/../FATFS/ff.c:1745
					clst = create_chain(&dp->obj, dp->clust);	/* Allocate a cluster */
    4c40:	484c                	lw	a1,20(s0)
    4c42:	8522                	mv	a0,s0
    4c44:	9b9ff0ef          	jal	ra,45fc <create_chain>
    4c48:	892a                	mv	s2,a0
E:\Works\NSCAM\obj/../FATFS/ff.c:1746
					if (clst == 0) return FR_DENIED;			/* No free cluster */
    4c4a:	451d                	li	a0,7
    4c4c:	fa0906e3          	beqz	s2,4bf8 <dir_next+0x54>
E:\Works\NSCAM\obj/../FATFS/ff.c:1747
					if (clst == 1) return FR_INT_ERR;			/* Internal error */
    4c50:	fd690ce3          	beq	s2,s6,4c28 <dir_next+0x84>
E:\Works\NSCAM\obj/../FATFS/ff.c:1748
					if (clst == 0xFFFFFFFF) return FR_DISK_ERR;	/* Disk error */
    4c54:	57fd                	li	a5,-1
    4c56:	fcf90ee3          	beq	s2,a5,4c32 <dir_next+0x8e>
E:\Works\NSCAM\obj/../FATFS/ff.c:1749
					if (dir_clear(fs, clst) != FR_OK) return FR_DISK_ERR;	/* Clean up the stretched table */
    4c5a:	85ca                	mv	a1,s2
    4c5c:	8526                	mv	a0,s1
    4c5e:	ed1ff0ef          	jal	ra,4b2e <dir_clear>
    4c62:	f961                	bnez	a0,4c32 <dir_next+0x8e>
E:\Works\NSCAM\obj/../FATFS/ff.c:1756
				dp->clust = clst;		/* Initialize data for new cluster */
    4c64:	01242a23          	sw	s2,20(s0)
E:\Works\NSCAM\obj/../FATFS/ff.c:1757
				dp->sect = clst2sect(fs, clst);
    4c68:	85ca                	mv	a1,s2
    4c6a:	8526                	mv	a0,s1
    4c6c:	cc6ff0ef          	jal	ra,4132 <clst2sect>
    4c70:	cc08                	sw	a0,24(s0)
E:\Works\NSCAM\obj/../FATFS/ff.c:1762
	dp->dir = fs->win + ofs % SS(fs);	/* Pointer to the entry in the win[] */
    4c72:	03048493          	addi	s1,s1,48
    4c76:	94d2                	add	s1,s1,s4
E:\Works\NSCAM\obj/../FATFS/ff.c:1761
	dp->dptr = ofs;						/* Current entry */
    4c78:	01342823          	sw	s3,16(s0)
E:\Works\NSCAM\obj/../FATFS/ff.c:1762
	dp->dir = fs->win + ofs % SS(fs);	/* Pointer to the entry in the win[] */
    4c7c:	cc44                	sw	s1,28(s0)
E:\Works\NSCAM\obj/../FATFS/ff.c:1764
	return FR_OK;
    4c7e:	4501                	li	a0,0
    4c80:	bfa5                	j	4bf8 <dir_next+0x54>

00004c82 <follow_path>:
follow_path():
E:\Works\NSCAM\obj/../FATFS/ff.c:3007
{
    4c82:	7139                	addi	sp,sp,-64
    4c84:	ce5e                	sw	s7,28(sp)
E:\Works\NSCAM\obj/../FATFS/ff.c:3010
	FATFS *fs = dp->obj.fs;
    4c86:	00052b83          	lw	s7,0(a0)
E:\Works\NSCAM\obj/../FATFS/ff.c:3007
{
    4c8a:	dc22                	sw	s0,56(sp)
    4c8c:	d84a                	sw	s2,48(sp)
    4c8e:	de06                	sw	ra,60(sp)
    4c90:	da26                	sw	s1,52(sp)
    4c92:	d64e                	sw	s3,44(sp)
    4c94:	d452                	sw	s4,40(sp)
    4c96:	d256                	sw	s5,36(sp)
    4c98:	d05a                	sw	s6,32(sp)
    4c9a:	cc62                	sw	s8,24(sp)
    4c9c:	ca66                	sw	s9,20(sp)
    4c9e:	c86a                	sw	s10,16(sp)
    4ca0:	c66e                	sw	s11,12(sp)
    4ca2:	842a                	mv	s0,a0
    4ca4:	892e                	mv	s2,a1
E:\Works\NSCAM\obj/../FATFS/ff.c:3019
		while (IsSeparator(*path)) path++;	/* Strip separators */
    4ca6:	02f00693          	li	a3,47
    4caa:	05c00713          	li	a4,92
E:\Works\NSCAM\obj/../FATFS/ff.c:3019 (discriminator 1)
    4cae:	00090783          	lb	a5,0(s2) # 1000 <__sccb_ack+0x36>
    4cb2:	0ed78c63          	beq	a5,a3,4daa <follow_path+0x128>
E:\Works\NSCAM\obj/../FATFS/ff.c:3019 (discriminator 3)
    4cb6:	0ee78a63          	beq	a5,a4,4daa <follow_path+0x128>
E:\Works\NSCAM\obj/../FATFS/ff.c:3020
		dp->obj.sclust = 0;					/* Start from the root directory */
    4cba:	00042423          	sw	zero,8(s0)
E:\Works\NSCAM\obj/../FATFS/ff.c:3039
	if ((UINT)*path < ' ') {				/* Null path name is the origin directory itself */
    4cbe:	00094703          	lbu	a4,0(s2)
    4cc2:	47fd                	li	a5,31
    4cc4:	0ee7f563          	bgeu	a5,a4,4dae <follow_path+0x12c>
create_name():
E:\Works\NSCAM\obj/../FATFS/ff.c:2972
			c = ExCvt[c & 0x7F];		/* To upper SBC extended character */
    4cc8:	6b25                	lui	s6,0x9
E:\Works\NSCAM\obj/../FATFS/ff.c:2938
	p = *path; sfn = dp->fn;
    4cca:	02040a93          	addi	s5,s0,32
E:\Works\NSCAM\obj/../FATFS/ff.c:2981
			if (strchr("*+,:;<=>[]|\"\?\x7F", (int)c)) return FR_INVALID_NAME;	/* Reject illegal chrs for SFN */
    4cce:	00009c37          	lui	s8,0x9
E:\Works\NSCAM\obj/../FATFS/ff.c:2972
			c = ExCvt[c & 0x7F];		/* To upper SBC extended character */
    4cd2:	b3cb0b13          	addi	s6,s6,-1220 # 8b3c <ExCvt>
follow_path():
E:\Works\NSCAM\obj/../FATFS/ff.c:3075
				dp->obj.sclust = ld_clust(fs, fs->win + dp->dptr % SS(fs));	/* Open next directory */
    4cd6:	030b8c93          	addi	s9,s7,48
create_name():
E:\Works\NSCAM\obj/../FATFS/ff.c:2939
	memset(sfn, ' ', 11);
    4cda:	462d                	li	a2,11
    4cdc:	02000593          	li	a1,32
    4ce0:	8556                	mv	a0,s5
    4ce2:	bdefb0ef          	jal	ra,c0 <memset>
E:\Works\NSCAM\obj/../FATFS/ff.c:2940
	si = i = 0; ni = 8;
    4ce6:	4a01                	li	s4,0
    4ce8:	4981                	li	s3,0
    4cea:	4d21                	li	s10,8
E:\Works\NSCAM\obj/../FATFS/ff.c:2956
		if (c <= ' ') break; 			/* Break if end of the path name */
    4cec:	02000d93          	li	s11,32
E:\Works\NSCAM\obj/../FATFS/ff.c:2957
		if (IsSeparator(c)) {			/* Break if a separator is found */
    4cf0:	02f00713          	li	a4,47
    4cf4:	05c00693          	li	a3,92
E:\Works\NSCAM\obj/../FATFS/ff.c:2961
		if (c == '.' || i >= ni) {		/* End of body or field overflow? */
    4cf8:	02e00613          	li	a2,46
E:\Works\NSCAM\obj/../FATFS/ff.c:2962
			if (ni == 11 || c != '.') return FR_INVALID_NAME;	/* Field overflow or invalid dot? */
    4cfc:	482d                	li	a6,11
E:\Works\NSCAM\obj/../FATFS/ff.c:2955
		c = (BYTE)p[si++];				/* Get a byte */
    4cfe:	0985                	addi	s3,s3,1
    4d00:	013907b3          	add	a5,s2,s3
    4d04:	fff78783          	lb	a5,-1(a5) # 1fffff <_data_lma+0x1f722b>
    4d08:	0ff7f493          	andi	s1,a5,255
E:\Works\NSCAM\obj/../FATFS/ff.c:2956
		if (c <= ' ') break; 			/* Break if end of the path name */
    4d0c:	029df263          	bgeu	s11,s1,4d30 <follow_path+0xae>
E:\Works\NSCAM\obj/../FATFS/ff.c:2957
		if (IsSeparator(c)) {			/* Break if a separator is found */
    4d10:	00e48463          	beq	s1,a4,4d18 <follow_path+0x96>
    4d14:	0cd49463          	bne	s1,a3,4ddc <follow_path+0x15a>
E:\Works\NSCAM\obj/../FATFS/ff.c:2958
			while (IsSeparator(p[si])) si++;	/* Skip duplicated separator if exist */
    4d18:	02f00693          	li	a3,47
    4d1c:	05c00713          	li	a4,92
    4d20:	013907b3          	add	a5,s2,s3
    4d24:	00078783          	lb	a5,0(a5)
    4d28:	0ad78863          	beq	a5,a3,4dd8 <follow_path+0x156>
    4d2c:	0ae78663          	beq	a5,a4,4dd8 <follow_path+0x156>
E:\Works\NSCAM\obj/../FATFS/ff.c:2986
	*path = &p[si];						/* Return pointer to the next segment */
    4d30:	994e                	add	s2,s2,s3
E:\Works\NSCAM\obj/../FATFS/ff.c:2987
	if (i == 0) return FR_INVALID_NAME;	/* Reject nul string */
    4d32:	140a0863          	beqz	s4,4e82 <follow_path+0x200>
E:\Works\NSCAM\obj/../FATFS/ff.c:2989
	if (sfn[0] == DDEM) sfn[0] = RDDEM;	/* If the first character collides with DDEM, replace it with RDDEM */
    4d36:	02044703          	lbu	a4,32(s0)
    4d3a:	0e500793          	li	a5,229
    4d3e:	00f71563          	bne	a4,a5,4d48 <follow_path+0xc6>
    4d42:	4795                	li	a5,5
    4d44:	02f40023          	sb	a5,32(s0)
E:\Works\NSCAM\obj/../FATFS/ff.c:2990
	sfn[NSFLAG] = (c <= ' ' || p[si] <= ' ') ? NS_LAST : 0;	/* Set last segment flag if end of the path */
    4d48:	02000713          	li	a4,32
    4d4c:	4791                	li	a5,4
    4d4e:	00977763          	bgeu	a4,s1,4d5c <follow_path+0xda>
    4d52:	00090683          	lb	a3,0(s2)
    4d56:	00d75363          	bge	a4,a3,4d5c <follow_path+0xda>
    4d5a:	4781                	li	a5,0
    4d5c:	02f405a3          	sb	a5,43(s0)
dir_find():
E:\Works\NSCAM\obj/../FATFS/ff.c:2364
	res = dir_sdi(dp, 0);			/* Rewind directory object */
    4d60:	8522                	mv	a0,s0
E:\Works\NSCAM\obj/../FATFS/ff.c:2358
	FATFS *fs = dp->obj.fs;
    4d62:	00042983          	lw	s3,0(s0)
E:\Works\NSCAM\obj/../FATFS/ff.c:2364
	res = dir_sdi(dp, 0);			/* Rewind directory object */
    4d66:	d39ff0ef          	jal	ra,4a9e <dir_sdi.constprop.14>
    4d6a:	84aa                	mv	s1,a0
E:\Works\NSCAM\obj/../FATFS/ff.c:2365
	if (res != FR_OK) return res;
    4d6c:	e169                	bnez	a0,4e2e <follow_path+0x1ac>
E:\Works\NSCAM\obj/../FATFS/ff.c:2391
		res = move_window(fs, dp->sect);
    4d6e:	4c0c                	lw	a1,24(s0)
    4d70:	854e                	mv	a0,s3
    4d72:	d12ff0ef          	jal	ra,4284 <move_window>
    4d76:	84aa                	mv	s1,a0
E:\Works\NSCAM\obj/../FATFS/ff.c:2392
		if (res != FR_OK) break;
    4d78:	e95d                	bnez	a0,4e2e <follow_path+0x1ac>
E:\Works\NSCAM\obj/../FATFS/ff.c:2393
		c = dp->dir[DIR_Name];
    4d7a:	4c48                	lw	a0,28(s0)
E:\Works\NSCAM\obj/../FATFS/ff.c:2394
		if (c == 0) { res = FR_NO_FILE; break; }	/* Reached to end of table */
    4d7c:	00054783          	lbu	a5,0(a0)
    4d80:	c7d5                	beqz	a5,4e2c <follow_path+0x1aa>
E:\Works\NSCAM\obj/../FATFS/ff.c:2417
		dp->obj.attr = dp->dir[DIR_Attr] & AM_MASK;
    4d82:	00b54783          	lbu	a5,11(a0)
    4d86:	03f7f793          	andi	a5,a5,63
    4d8a:	00f40323          	sb	a5,6(s0)
E:\Works\NSCAM\obj/../FATFS/ff.c:2418
		if (!(dp->dir[DIR_Attr] & AM_VOL) && !memcmp(dp->dir, dp->fn, 11)) break;	/* Is it a valid entry? */
    4d8e:	00b54783          	lbu	a5,11(a0)
    4d92:	8ba1                	andi	a5,a5,8
    4d94:	e791                	bnez	a5,4da0 <follow_path+0x11e>
    4d96:	462d                	li	a2,11
    4d98:	85d6                	mv	a1,s5
    4d9a:	567010ef          	jal	ra,6b00 <memcmp>
    4d9e:	c941                	beqz	a0,4e2e <follow_path+0x1ac>
E:\Works\NSCAM\obj/../FATFS/ff.c:2420
		res = dir_next(dp, 0);	/* Next entry */
    4da0:	4581                	li	a1,0
    4da2:	8522                	mv	a0,s0
    4da4:	e01ff0ef          	jal	ra,4ba4 <dir_next>
    4da8:	b7c9                	j	4d6a <follow_path+0xe8>
follow_path():
E:\Works\NSCAM\obj/../FATFS/ff.c:3019 (discriminator 4)
		while (IsSeparator(*path)) path++;	/* Strip separators */
    4daa:	0905                	addi	s2,s2,1
    4dac:	b709                	j	4cae <follow_path+0x2c>
E:\Works\NSCAM\obj/../FATFS/ff.c:3040
		dp->fn[NSFLAG] = NS_NONAME;
    4dae:	f8000793          	li	a5,-128
    4db2:	02f405a3          	sb	a5,43(s0)
E:\Works\NSCAM\obj/../FATFS/ff.c:3041
		res = dir_sdi(dp, 0);
    4db6:	8522                	mv	a0,s0
E:\Works\NSCAM\obj/../FATFS/ff.c:3081
}
    4db8:	5462                	lw	s0,56(sp)
    4dba:	50f2                	lw	ra,60(sp)
    4dbc:	54d2                	lw	s1,52(sp)
    4dbe:	5942                	lw	s2,48(sp)
    4dc0:	59b2                	lw	s3,44(sp)
    4dc2:	5a22                	lw	s4,40(sp)
    4dc4:	5a92                	lw	s5,36(sp)
    4dc6:	5b02                	lw	s6,32(sp)
    4dc8:	4bf2                	lw	s7,28(sp)
    4dca:	4c62                	lw	s8,24(sp)
    4dcc:	4cd2                	lw	s9,20(sp)
    4dce:	4d42                	lw	s10,16(sp)
    4dd0:	4db2                	lw	s11,12(sp)
    4dd2:	6121                	addi	sp,sp,64
E:\Works\NSCAM\obj/../FATFS/ff.c:3041
		res = dir_sdi(dp, 0);
    4dd4:	ccbff06f          	j	4a9e <dir_sdi.constprop.14>
create_name():
E:\Works\NSCAM\obj/../FATFS/ff.c:2958
			while (IsSeparator(p[si])) si++;	/* Skip duplicated separator if exist */
    4dd8:	0985                	addi	s3,s3,1
    4dda:	b799                	j	4d20 <follow_path+0x9e>
E:\Works\NSCAM\obj/../FATFS/ff.c:2961
		if (c == '.' || i >= ni) {		/* End of body or field overflow? */
    4ddc:	0ac48563          	beq	s1,a2,4e86 <follow_path+0x204>
    4de0:	0baa7163          	bgeu	s4,s10,4e82 <follow_path+0x200>
E:\Works\NSCAM\obj/../FATFS/ff.c:2971
		if (c >= 0x80) {				/* Is SBC extended character? */
    4de4:	0007d763          	bgez	a5,4df2 <follow_path+0x170>
E:\Works\NSCAM\obj/../FATFS/ff.c:2972
			c = ExCvt[c & 0x7F];		/* To upper SBC extended character */
    4de8:	07f4f493          	andi	s1,s1,127
    4dec:	94da                	add	s1,s1,s6
    4dee:	0004c483          	lbu	s1,0(s1)
E:\Works\NSCAM\obj/../FATFS/ff.c:2981
			if (strchr("*+,:;<=>[]|\"\?\x7F", (int)c)) return FR_INVALID_NAME;	/* Reject illegal chrs for SFN */
    4df2:	85a6                	mv	a1,s1
    4df4:	bc8c0513          	addi	a0,s8,-1080 # 8bc8 <ExCvt+0x8c>
    4df8:	781010ef          	jal	ra,6d78 <strchr>
    4dfc:	e159                	bnez	a0,4e82 <follow_path+0x200>
E:\Works\NSCAM\obj/../FATFS/ff.c:2982
			if (IsLower(c)) c -= 0x20;	/* To upper */
    4dfe:	f9f48793          	addi	a5,s1,-97
    4e02:	0ff7f793          	andi	a5,a5,255
    4e06:	48e5                	li	a7,25
    4e08:	02f00713          	li	a4,47
    4e0c:	05c00693          	li	a3,92
    4e10:	02e00613          	li	a2,46
    4e14:	482d                	li	a6,11
    4e16:	00f8e563          	bltu	a7,a5,4e20 <follow_path+0x19e>
    4e1a:	1481                	addi	s1,s1,-32
    4e1c:	0ff4f493          	andi	s1,s1,255
E:\Works\NSCAM\obj/../FATFS/ff.c:2983
			sfn[i++] = c;
    4e20:	014a87b3          	add	a5,s5,s4
    4e24:	00978023          	sb	s1,0(a5)
    4e28:	0a05                	addi	s4,s4,1
    4e2a:	bdd1                	j	4cfe <follow_path+0x7c>
dir_find():
E:\Works\NSCAM\obj/../FATFS/ff.c:2394
		if (c == 0) { res = FR_NO_FILE; break; }	/* Reached to end of table */
    4e2c:	4491                	li	s1,4
follow_path():
E:\Works\NSCAM\obj/../FATFS/ff.c:3048
			ns = dp->fn[NSFLAG];
    4e2e:	02b44783          	lbu	a5,43(s0)
E:\Works\NSCAM\obj/../FATFS/ff.c:3049
			if (res != FR_OK) {				/* Failed to find the object */
    4e32:	c495                	beqz	s1,4e5e <follow_path+0x1dc>
E:\Works\NSCAM\obj/../FATFS/ff.c:3050
				if (res == FR_NO_FILE) {	/* Object is not found */
    4e34:	4711                	li	a4,4
    4e36:	00e49463          	bne	s1,a4,4e3e <follow_path+0x1bc>
E:\Works\NSCAM\obj/../FATFS/ff.c:3056
						if (!(ns & NS_LAST)) res = FR_NO_PATH;	/* Adjust error code if not last segment */
    4e3a:	8b91                	andi	a5,a5,4
    4e3c:	c3a9                	beqz	a5,4e7e <follow_path+0x1fc>
E:\Works\NSCAM\obj/../FATFS/ff.c:3081
}
    4e3e:	50f2                	lw	ra,60(sp)
    4e40:	5462                	lw	s0,56(sp)
    4e42:	8526                	mv	a0,s1
    4e44:	5942                	lw	s2,48(sp)
    4e46:	54d2                	lw	s1,52(sp)
    4e48:	59b2                	lw	s3,44(sp)
    4e4a:	5a22                	lw	s4,40(sp)
    4e4c:	5a92                	lw	s5,36(sp)
    4e4e:	5b02                	lw	s6,32(sp)
    4e50:	4bf2                	lw	s7,28(sp)
    4e52:	4c62                	lw	s8,24(sp)
    4e54:	4cd2                	lw	s9,20(sp)
    4e56:	4d42                	lw	s10,16(sp)
    4e58:	4db2                	lw	s11,12(sp)
    4e5a:	6121                	addi	sp,sp,64
    4e5c:	8082                	ret
E:\Works\NSCAM\obj/../FATFS/ff.c:3061
			if (ns & NS_LAST) break;		/* Last segment matched. Function completed. */
    4e5e:	8b91                	andi	a5,a5,4
    4e60:	fff9                	bnez	a5,4e3e <follow_path+0x1bc>
E:\Works\NSCAM\obj/../FATFS/ff.c:3063
			if (!(dp->obj.attr & AM_DIR)) {	/* It is not a sub-directory and cannot follow */
    4e62:	00644783          	lbu	a5,6(s0)
    4e66:	8bc1                	andi	a5,a5,16
    4e68:	cb99                	beqz	a5,4e7e <follow_path+0x1fc>
E:\Works\NSCAM\obj/../FATFS/ff.c:3075
				dp->obj.sclust = ld_clust(fs, fs->win + dp->dptr % SS(fs));	/* Open next directory */
    4e6a:	480c                	lw	a1,16(s0)
    4e6c:	000bc503          	lbu	a0,0(s7)
    4e70:	1ff5f593          	andi	a1,a1,511
    4e74:	95e6                	add	a1,a1,s9
    4e76:	b64ff0ef          	jal	ra,41da <ld_clust.isra.2>
    4e7a:	c408                	sw	a0,8(s0)
E:\Works\NSCAM\obj/../FATFS/ff.c:3045
			res = create_name(dp, &path);	/* Get a segment name of the path */
    4e7c:	bdb9                	j	4cda <follow_path+0x58>
E:\Works\NSCAM\obj/../FATFS/ff.c:3056
						if (!(ns & NS_LAST)) res = FR_NO_PATH;	/* Adjust error code if not last segment */
    4e7e:	4495                	li	s1,5
    4e80:	bf7d                	j	4e3e <follow_path+0x1bc>
create_name():
E:\Works\NSCAM\obj/../FATFS/ff.c:2962
			if (ni == 11 || c != '.') return FR_INVALID_NAME;	/* Field overflow or invalid dot? */
    4e82:	4499                	li	s1,6
follow_path():
E:\Works\NSCAM\obj/../FATFS/ff.c:3080
	return res;
    4e84:	bf6d                	j	4e3e <follow_path+0x1bc>
create_name():
E:\Works\NSCAM\obj/../FATFS/ff.c:2962
			if (ni == 11 || c != '.') return FR_INVALID_NAME;	/* Field overflow or invalid dot? */
    4e86:	ff0d0ee3          	beq	s10,a6,4e82 <follow_path+0x200>
E:\Works\NSCAM\obj/../FATFS/ff.c:2963
			i = 8; ni = 11;				/* Enter file extension field */
    4e8a:	4a21                	li	s4,8
    4e8c:	4d2d                	li	s10,11
    4e8e:	bd85                	j	4cfe <follow_path+0x7c>

00004e90 <dir_register>:
dir_register():
E:\Works\NSCAM\obj/../FATFS/ff.c:2437
{
    4e90:	1101                	addi	sp,sp,-32
    4e92:	cc22                	sw	s0,24(sp)
    4e94:	ca26                	sw	s1,20(sp)
    4e96:	c84a                	sw	s2,16(sp)
    4e98:	ce06                	sw	ra,28(sp)
    4e9a:	c64e                	sw	s3,12(sp)
    4e9c:	84aa                	mv	s1,a0
E:\Works\NSCAM\obj/../FATFS/ff.c:2439
	FATFS *fs = dp->obj.fs;
    4e9e:	00052903          	lw	s2,0(a0)
dir_alloc():
E:\Works\NSCAM\obj/../FATFS/ff.c:1785
	res = dir_sdi(dp, 0);
    4ea2:	bfdff0ef          	jal	ra,4a9e <dir_sdi.constprop.14>
    4ea6:	842a                	mv	s0,a0
E:\Works\NSCAM\obj/../FATFS/ff.c:1786
	if (res == FR_OK) {
    4ea8:	e135                	bnez	a0,4f0c <dir_register+0x7c>
E:\Works\NSCAM\obj/../FATFS/ff.c:1794
			if (dp->dir[DIR_Name] == DDEM || dp->dir[DIR_Name] == 0) {	/* Is the entry free? */
    4eaa:	0e500993          	li	s3,229
E:\Works\NSCAM\obj/../FATFS/ff.c:1789
			res = move_window(fs, dp->sect);
    4eae:	4c8c                	lw	a1,24(s1)
    4eb0:	854a                	mv	a0,s2
    4eb2:	bd2ff0ef          	jal	ra,4284 <move_window>
    4eb6:	842a                	mv	s0,a0
E:\Works\NSCAM\obj/../FATFS/ff.c:1790
			if (res != FR_OK) break;
    4eb8:	e931                	bnez	a0,4f0c <dir_register+0x7c>
E:\Works\NSCAM\obj/../FATFS/ff.c:1794
			if (dp->dir[DIR_Name] == DDEM || dp->dir[DIR_Name] == 0) {	/* Is the entry free? */
    4eba:	4cdc                	lw	a5,28(s1)
    4ebc:	0007c783          	lbu	a5,0(a5)
    4ec0:	03379f63          	bne	a5,s3,4efe <dir_register+0x6e>
dir_register():
E:\Works\NSCAM\obj/../FATFS/ff.c:2517
		res = move_window(fs, dp->sect);
    4ec4:	4c8c                	lw	a1,24(s1)
    4ec6:	854a                	mv	a0,s2
    4ec8:	bbcff0ef          	jal	ra,4284 <move_window>
    4ecc:	842a                	mv	s0,a0
E:\Works\NSCAM\obj/../FATFS/ff.c:2518
		if (res == FR_OK) {
    4ece:	e105                	bnez	a0,4eee <dir_register+0x5e>
E:\Works\NSCAM\obj/../FATFS/ff.c:2519
			memset(dp->dir, 0, SZDIRE);	/* Clean the entry */
    4ed0:	4cc8                	lw	a0,28(s1)
    4ed2:	02000613          	li	a2,32
    4ed6:	4581                	li	a1,0
    4ed8:	9e8fb0ef          	jal	ra,c0 <memset>
E:\Works\NSCAM\obj/../FATFS/ff.c:2520
			memcpy(dp->dir + DIR_Name, dp->fn, 11);	/* Put SFN */
    4edc:	4cc8                	lw	a0,28(s1)
    4ede:	462d                	li	a2,11
    4ee0:	02048593          	addi	a1,s1,32
    4ee4:	443010ef          	jal	ra,6b26 <memcpy>
E:\Works\NSCAM\obj/../FATFS/ff.c:2524
			fs->wflag = 1;
    4ee8:	4785                	li	a5,1
    4eea:	00f901a3          	sb	a5,3(s2)
E:\Works\NSCAM\obj/../FATFS/ff.c:2529
}
    4eee:	8522                	mv	a0,s0
    4ef0:	40f2                	lw	ra,28(sp)
    4ef2:	4462                	lw	s0,24(sp)
    4ef4:	44d2                	lw	s1,20(sp)
    4ef6:	4942                	lw	s2,16(sp)
    4ef8:	49b2                	lw	s3,12(sp)
    4efa:	6105                	addi	sp,sp,32
    4efc:	8082                	ret
dir_alloc():
E:\Works\NSCAM\obj/../FATFS/ff.c:1794
			if (dp->dir[DIR_Name] == DDEM || dp->dir[DIR_Name] == 0) {	/* Is the entry free? */
    4efe:	d3f9                	beqz	a5,4ec4 <dir_register+0x34>
E:\Works\NSCAM\obj/../FATFS/ff.c:1800
			res = dir_next(dp, 1);	/* Next entry with table stretch enabled */
    4f00:	4585                	li	a1,1
    4f02:	8526                	mv	a0,s1
    4f04:	ca1ff0ef          	jal	ra,4ba4 <dir_next>
    4f08:	842a                	mv	s0,a0
E:\Works\NSCAM\obj/../FATFS/ff.c:1801
		} while (res == FR_OK);
    4f0a:	d155                	beqz	a0,4eae <dir_register+0x1e>
E:\Works\NSCAM\obj/../FATFS/ff.c:1804
	if (res == FR_NO_FILE) res = FR_DENIED;	/* No directory entry to allocate */
    4f0c:	4791                	li	a5,4
    4f0e:	fef410e3          	bne	s0,a5,4eee <dir_register+0x5e>
    4f12:	441d                	li	s0,7
    4f14:	bfe9                	j	4eee <dir_register+0x5e>

00004f16 <sync_fs>:
sync_fs():
E:\Works\NSCAM\obj/../FATFS/ff.c:1081
{
    4f16:	1141                	addi	sp,sp,-16
    4f18:	c422                	sw	s0,8(sp)
    4f1a:	c606                	sw	ra,12(sp)
    4f1c:	c226                	sw	s1,4(sp)
sync_window():
E:\Works\NSCAM\obj/../FATFS/ff.c:1032
	if (fs->wflag) {	/* Is the disk access window dirty? */
    4f1e:	00354783          	lbu	a5,3(a0)
sync_fs():
E:\Works\NSCAM\obj/../FATFS/ff.c:1081
{
    4f22:	842a                	mv	s0,a0
sync_window():
E:\Works\NSCAM\obj/../FATFS/ff.c:1032
	if (fs->wflag) {	/* Is the disk access window dirty? */
    4f24:	e7e1                	bnez	a5,4fec <sync_fs+0xd6>
sync_fs():
E:\Works\NSCAM\obj/../FATFS/ff.c:1087
		if (fs->fs_type == FS_FAT32 && fs->fsi_flag == 1) {	/* FAT32: Update FSInfo sector if needed */
    4f26:	00044703          	lbu	a4,0(s0)
    4f2a:	478d                	li	a5,3
    4f2c:	0af71763          	bne	a4,a5,4fda <sync_fs+0xc4>
    4f30:	00444703          	lbu	a4,4(s0)
    4f34:	4785                	li	a5,1
    4f36:	0af71263          	bne	a4,a5,4fda <sync_fs+0xc4>
E:\Works\NSCAM\obj/../FATFS/ff.c:1089
			memset(fs->win, 0, sizeof fs->win);
    4f3a:	03040713          	addi	a4,s0,48
    4f3e:	20000613          	li	a2,512
    4f42:	4581                	li	a1,0
    4f44:	853a                	mv	a0,a4
    4f46:	00144483          	lbu	s1,1(s0)
    4f4a:	976fb0ef          	jal	ra,c0 <memset>
st_word():
E:\Works\NSCAM\obj/../FATFS/ff.c:654
	*ptr++ = (BYTE)val; val >>= 8;
    4f4e:	05500793          	li	a5,85
    4f52:	22f40723          	sb	a5,558(s0)
E:\Works\NSCAM\obj/../FATFS/ff.c:655
	*ptr++ = (BYTE)val;
    4f56:	faa00793          	li	a5,-86
    4f5a:	22f407a3          	sb	a5,559(s0)
st_dword():
E:\Works\NSCAM\obj/../FATFS/ff.c:660
	*ptr++ = (BYTE)val; val >>= 8;
    4f5e:	05200793          	li	a5,82
    4f62:	02f40823          	sb	a5,48(s0)
E:\Works\NSCAM\obj/../FATFS/ff.c:661
	*ptr++ = (BYTE)val; val >>= 8;
    4f66:	02f408a3          	sb	a5,49(s0)
E:\Works\NSCAM\obj/../FATFS/ff.c:662
	*ptr++ = (BYTE)val; val >>= 8;
    4f6a:	06100793          	li	a5,97
    4f6e:	02f40923          	sb	a5,50(s0)
E:\Works\NSCAM\obj/../FATFS/ff.c:663
	*ptr++ = (BYTE)val;
    4f72:	20f40ba3          	sb	a5,535(s0)
sync_fs():
E:\Works\NSCAM\obj/../FATFS/ff.c:1093
			st_dword(fs->win + FSI_Free_Count, fs->free_clst);	/* Number of free clusters */
    4f76:	481c                	lw	a5,16(s0)
st_dword():
E:\Works\NSCAM\obj/../FATFS/ff.c:663
	*ptr++ = (BYTE)val;
    4f78:	04100693          	li	a3,65
    4f7c:	02d409a3          	sb	a3,51(s0)
E:\Works\NSCAM\obj/../FATFS/ff.c:662
	*ptr++ = (BYTE)val; val >>= 8;
    4f80:	20d40b23          	sb	a3,534(s0)
E:\Works\NSCAM\obj/../FATFS/ff.c:660
	*ptr++ = (BYTE)val; val >>= 8;
    4f84:	0087d693          	srli	a3,a5,0x8
    4f88:	20f40c23          	sb	a5,536(s0)
E:\Works\NSCAM\obj/../FATFS/ff.c:661
	*ptr++ = (BYTE)val; val >>= 8;
    4f8c:	20d40ca3          	sb	a3,537(s0)
    4f90:	0107d693          	srli	a3,a5,0x10
E:\Works\NSCAM\obj/../FATFS/ff.c:662
	*ptr++ = (BYTE)val; val >>= 8;
    4f94:	83e1                	srli	a5,a5,0x18
E:\Works\NSCAM\obj/../FATFS/ff.c:660
	*ptr++ = (BYTE)val; val >>= 8;
    4f96:	07200613          	li	a2,114
E:\Works\NSCAM\obj/../FATFS/ff.c:663
	*ptr++ = (BYTE)val;
    4f9a:	20f40da3          	sb	a5,539(s0)
sync_fs():
E:\Works\NSCAM\obj/../FATFS/ff.c:1094
			st_dword(fs->win + FSI_Nxt_Free, fs->last_clst);	/* Last allocated culuster */
    4f9e:	445c                	lw	a5,12(s0)
st_dword():
E:\Works\NSCAM\obj/../FATFS/ff.c:660
	*ptr++ = (BYTE)val; val >>= 8;
    4fa0:	20c40a23          	sb	a2,532(s0)
E:\Works\NSCAM\obj/../FATFS/ff.c:661
	*ptr++ = (BYTE)val; val >>= 8;
    4fa4:	20c40aa3          	sb	a2,533(s0)
sync_fs():
E:\Works\NSCAM\obj/../FATFS/ff.c:1095
			fs->winsect = fs->volbase + 1;						/* Write it into the FSInfo sector (Next to VBR) */
    4fa8:	4c50                	lw	a2,28(s0)
st_dword():
E:\Works\NSCAM\obj/../FATFS/ff.c:662
	*ptr++ = (BYTE)val; val >>= 8;
    4faa:	20d40d23          	sb	a3,538(s0)
E:\Works\NSCAM\obj/../FATFS/ff.c:660
	*ptr++ = (BYTE)val; val >>= 8;
    4fae:	0087d693          	srli	a3,a5,0x8
    4fb2:	20f40e23          	sb	a5,540(s0)
E:\Works\NSCAM\obj/../FATFS/ff.c:661
	*ptr++ = (BYTE)val; val >>= 8;
    4fb6:	20d40ea3          	sb	a3,541(s0)
sync_fs():
E:\Works\NSCAM\obj/../FATFS/ff.c:1095
			fs->winsect = fs->volbase + 1;						/* Write it into the FSInfo sector (Next to VBR) */
    4fba:	0605                	addi	a2,a2,1
st_dword():
E:\Works\NSCAM\obj/../FATFS/ff.c:661
	*ptr++ = (BYTE)val; val >>= 8;
    4fbc:	0107d693          	srli	a3,a5,0x10
E:\Works\NSCAM\obj/../FATFS/ff.c:662
	*ptr++ = (BYTE)val; val >>= 8;
    4fc0:	83e1                	srli	a5,a5,0x18
    4fc2:	20d40f23          	sb	a3,542(s0)
sync_fs():
E:\Works\NSCAM\obj/../FATFS/ff.c:1096
			disk_write(fs->pdrv, fs->win, fs->winsect, 1);
    4fc6:	85aa                	mv	a1,a0
st_dword():
E:\Works\NSCAM\obj/../FATFS/ff.c:663
	*ptr++ = (BYTE)val;
    4fc8:	20f40fa3          	sb	a5,543(s0)
sync_fs():
E:\Works\NSCAM\obj/../FATFS/ff.c:1095
			fs->winsect = fs->volbase + 1;						/* Write it into the FSInfo sector (Next to VBR) */
    4fcc:	d450                	sw	a2,44(s0)
E:\Works\NSCAM\obj/../FATFS/ff.c:1096
			disk_write(fs->pdrv, fs->win, fs->winsect, 1);
    4fce:	4685                	li	a3,1
    4fd0:	8526                	mv	a0,s1
    4fd2:	90aff0ef          	jal	ra,40dc <disk_write>
E:\Works\NSCAM\obj/../FATFS/ff.c:1097
			fs->fsi_flag = 0;
    4fd6:	00040223          	sb	zero,4(s0)
E:\Works\NSCAM\obj/../FATFS/ff.c:1100
		if (disk_ioctl(fs->pdrv, CTRL_SYNC, 0) != RES_OK) res = FR_DISK_ERR;
    4fda:	00144503          	lbu	a0,1(s0)
    4fde:	4601                	li	a2,0
    4fe0:	4581                	li	a1,0
    4fe2:	92eff0ef          	jal	ra,4110 <disk_ioctl>
    4fe6:	00a03533          	snez	a0,a0
E:\Works\NSCAM\obj/../FATFS/ff.c:1103
	return res;
    4fea:	a021                	j	4ff2 <sync_fs+0xdc>
sync_window():
E:\Works\NSCAM\obj/../FATFS/ff.c:1103
    4fec:	a3cff0ef          	jal	ra,4228 <sync_window.part.5>
sync_fs():
E:\Works\NSCAM\obj/../FATFS/ff.c:1086
	if (res == FR_OK) {
    4ff0:	d91d                	beqz	a0,4f26 <sync_fs+0x10>
E:\Works\NSCAM\obj/../FATFS/ff.c:1104
}
    4ff2:	40b2                	lw	ra,12(sp)
    4ff4:	4422                	lw	s0,8(sp)
    4ff6:	4492                	lw	s1,4(sp)
    4ff8:	0141                	addi	sp,sp,16
    4ffa:	8082                	ret

00004ffc <f_mount>:
f_mount():
E:\Works\NSCAM\obj/../FATFS/ff.c:3610
FRESULT f_mount (
	FATFS* fs,			/* Pointer to the filesystem object to be registered (NULL:unmount)*/
	const TCHAR* path,	/* Logical drive number to be mounted/unmounted */
	BYTE opt			/* Mount option: 0=Do not mount (delayed mount), 1=Mount immediately */
)
{
    4ffc:	7179                	addi	sp,sp,-48
    4ffe:	c62a                	sw	a0,12(sp)
E:\Works\NSCAM\obj/../FATFS/ff.c:3618
	FRESULT res;
	const TCHAR *rp = path;


	/* Get logical drive number */
	vol = get_ldnumber(&rp);
    5000:	0868                	addi	a0,sp,28
E:\Works\NSCAM\obj/../FATFS/ff.c:3610
{
    5002:	d606                	sw	ra,44(sp)
    5004:	c42e                	sw	a1,8(sp)
    5006:	c232                	sw	a2,4(sp)
E:\Works\NSCAM\obj/../FATFS/ff.c:3614
	const TCHAR *rp = path;
    5008:	ce2e                	sw	a1,28(sp)
E:\Works\NSCAM\obj/../FATFS/ff.c:3618
	vol = get_ldnumber(&rp);
    500a:	944ff0ef          	jal	ra,414e <get_ldnumber>
E:\Works\NSCAM\obj/../FATFS/ff.c:3619
	if (vol < 0) return FR_INVALID_DRIVE;
    500e:	02054d63          	bltz	a0,5048 <f_mount+0x4c>
E:\Works\NSCAM\obj/../FATFS/ff.c:3620
	cfs = FatFs[vol];					/* Pointer to fs object */
    5012:	82418713          	addi	a4,gp,-2012 # 20000084 <FatFs>
    5016:	050a                	slli	a0,a0,0x2
    5018:	972a                	add	a4,a4,a0
    501a:	4318                	lw	a4,0(a4)
E:\Works\NSCAM\obj/../FATFS/ff.c:3622

	if (cfs) {
    501c:	82418793          	addi	a5,gp,-2012 # 20000084 <FatFs>
    5020:	4612                	lw	a2,4(sp)
    5022:	c319                	beqz	a4,5028 <f_mount+0x2c>
E:\Works\NSCAM\obj/../FATFS/ff.c:3629
		clear_lock(cfs);
#endif
#if FF_FS_REENTRANT						/* Discard sync object of the current volume */
		if (!ff_del_syncobj(cfs->sobj)) return FR_INT_ERR;
#endif
		cfs->fs_type = 0;				/* Clear old fs object */
    5024:	00070023          	sb	zero,0(a4)
E:\Works\NSCAM\obj/../FATFS/ff.c:3632
	}

	if (fs) {
    5028:	4732                	lw	a4,12(sp)
    502a:	c319                	beqz	a4,5030 <f_mount+0x34>
E:\Works\NSCAM\obj/../FATFS/ff.c:3633
		fs->fs_type = 0;				/* Clear new fs object */
    502c:	00070023          	sb	zero,0(a4)
E:\Works\NSCAM\obj/../FATFS/ff.c:3638
#if FF_FS_REENTRANT						/* Create sync object for the new volume */
		if (!ff_cre_syncobj((BYTE)vol, &fs->sobj)) return FR_INT_ERR;
#endif
	}
	FatFs[vol] = fs;					/* Register new fs object */
    5030:	97aa                	add	a5,a5,a0
    5032:	c398                	sw	a4,0(a5)
E:\Works\NSCAM\obj/../FATFS/ff.c:3640

	if (opt == 0) return FR_OK;			/* Do not mount now, it will be mounted later */
    5034:	4501                	li	a0,0
    5036:	c611                	beqz	a2,5042 <f_mount+0x46>
E:\Works\NSCAM\obj/../FATFS/ff.c:3642

	res = mount_volume(&path, &fs, 0);	/* Force mounted the volume */
    5038:	4601                	li	a2,0
    503a:	006c                	addi	a1,sp,12
    503c:	0028                	addi	a0,sp,8
    503e:	f6aff0ef          	jal	ra,47a8 <mount_volume>
E:\Works\NSCAM\obj/../FATFS/ff.c:3644
	LEAVE_FF(fs, res);
}
    5042:	50b2                	lw	ra,44(sp)
    5044:	6145                	addi	sp,sp,48
    5046:	8082                	ret
E:\Works\NSCAM\obj/../FATFS/ff.c:3619
	if (vol < 0) return FR_INVALID_DRIVE;
    5048:	452d                	li	a0,11
    504a:	bfe5                	j	5042 <f_mount+0x46>

0000504c <f_open>:
f_open():
E:\Works\NSCAM\obj/../FATFS/ff.c:3658
FRESULT f_open (
	FIL* fp,			/* Pointer to the blank file object */
	const TCHAR* path,	/* Pointer to the file name */
	BYTE mode			/* Access mode and open mode flags */
)
{
    504c:	7159                	addi	sp,sp,-112
    504e:	ccd2                	sw	s4,88(sp)
    5050:	d686                	sw	ra,108(sp)
    5052:	d4a2                	sw	s0,104(sp)
    5054:	d2a6                	sw	s1,100(sp)
    5056:	d0ca                	sw	s2,96(sp)
    5058:	cece                	sw	s3,92(sp)
    505a:	cad6                	sw	s5,84(sp)
    505c:	c8da                	sw	s6,80(sp)
    505e:	c6de                	sw	s7,76(sp)
    5060:	c62e                	sw	a1,12(sp)
E:\Works\NSCAM\obj/../FATFS/ff.c:3670
	FSIZE_t ofs;
#endif
	DEF_NAMBUF


	if (!fp) return FR_INVALID_OBJECT;
    5062:	4a25                	li	s4,9
    5064:	c929                	beqz	a0,50b6 <f_open+0x6a>
E:\Works\NSCAM\obj/../FATFS/ff.c:3673

	/* Get logical drive number */
	mode &= FF_FS_READONLY ? FA_READ : FA_READ | FA_WRITE | FA_CREATE_ALWAYS | FA_CREATE_NEW | FA_OPEN_ALWAYS | FA_OPEN_APPEND;
    5066:	03f67913          	andi	s2,a2,63
    506a:	84b2                	mv	s1,a2
    506c:	842a                	mv	s0,a0
E:\Works\NSCAM\obj/../FATFS/ff.c:3674
	res = mount_volume(&path, &fs, mode);
    506e:	864a                	mv	a2,s2
    5070:	080c                	addi	a1,sp,16
    5072:	0068                	addi	a0,sp,12
    5074:	f34ff0ef          	jal	ra,47a8 <mount_volume>
    5078:	8a2a                	mv	s4,a0
E:\Works\NSCAM\obj/../FATFS/ff.c:3675
	if (res == FR_OK) {
    507a:	e91d                	bnez	a0,50b0 <f_open+0x64>
E:\Works\NSCAM\obj/../FATFS/ff.c:3676
		dj.obj.fs = fs;
    507c:	47c2                	lw	a5,16(sp)
E:\Works\NSCAM\obj/../FATFS/ff.c:3678
		INIT_NAMBUF(fs);
		res = follow_path(&dj, path);	/* Follow the file path */
    507e:	45b2                	lw	a1,12(sp)
    5080:	0848                	addi	a0,sp,20
E:\Works\NSCAM\obj/../FATFS/ff.c:3676
		dj.obj.fs = fs;
    5082:	ca3e                	sw	a5,20(sp)
E:\Works\NSCAM\obj/../FATFS/ff.c:3678
		res = follow_path(&dj, path);	/* Follow the file path */
    5084:	bffff0ef          	jal	ra,4c82 <follow_path>
E:\Works\NSCAM\obj/../FATFS/ff.c:3680
#if !FF_FS_READONLY	/* Read/Write configuration */
		if (res == FR_OK) {
    5088:	e511                	bnez	a0,5094 <f_open+0x48>
E:\Works\NSCAM\obj/../FATFS/ff.c:3681
			if (dj.fn[NSFLAG] & NS_NONAME) {	/* Origin directory itself? */
    508a:	03f10783          	lb	a5,63(sp)
    508e:	0007d363          	bgez	a5,5094 <f_open+0x48>
E:\Works\NSCAM\obj/../FATFS/ff.c:3682
				res = FR_INVALID_NAME;
    5092:	4519                	li	a0,6
E:\Works\NSCAM\obj/../FATFS/ff.c:3691
				res = chk_lock(&dj, (mode & ~FA_READ) ? 1 : 0);		/* Check if the file can be used */
			}
#endif
		}
		/* Create or Open a file */
		if (mode & (FA_CREATE_ALWAYS | FA_OPEN_ALWAYS | FA_CREATE_NEW)) {
    5094:	01c4f793          	andi	a5,s1,28
    5098:	18078663          	beqz	a5,5224 <f_open+0x1d8>
E:\Works\NSCAM\obj/../FATFS/ff.c:3692
			if (res != FR_OK) {					/* No file, create new */
    509c:	c90d                	beqz	a0,50ce <f_open+0x82>
E:\Works\NSCAM\obj/../FATFS/ff.c:3693
				if (res == FR_NO_FILE) {		/* There is no file to open, create a new entry */
    509e:	4791                	li	a5,4
    50a0:	00f51863          	bne	a0,a5,50b0 <f_open+0x64>
E:\Works\NSCAM\obj/../FATFS/ff.c:3697
#if FF_FS_LOCK != 0
					res = enq_lock() ? dir_register(&dj) : FR_TOO_MANY_OPEN_FILES;
#else
					res = dir_register(&dj);
    50a4:	0848                	addi	a0,sp,20
    50a6:	debff0ef          	jal	ra,4e90 <dir_register>
E:\Works\NSCAM\obj/../FATFS/ff.c:3700
#endif
				}
				mode |= FA_CREATE_ALWAYS;		/* File is created */
    50aa:	00896913          	ori	s2,s2,8
E:\Works\NSCAM\obj/../FATFS/ff.c:3709
					res = FR_DENIED;
				} else {
					if (mode & FA_CREATE_NEW) res = FR_EXIST;	/* Cannot create as new file */
				}
			}
			if (res == FR_OK && (mode & FA_CREATE_ALWAYS)) {	/* Truncate the file if overwrite mode */
    50ae:	c91d                	beqz	a0,50e4 <f_open+0x98>
E:\Works\NSCAM\obj/../FATFS/ff.c:3838 (discriminator 1)
		}

		FREE_NAMBUF();
	}

	if (res != FR_OK) fp->obj.fs = 0;	/* Invalidate file object on error */
    50b0:	00042023          	sw	zero,0(s0)
    50b4:	8a2a                	mv	s4,a0
E:\Works\NSCAM\obj/../FATFS/ff.c:3841

	LEAVE_FF(fs, res);
}
    50b6:	50b6                	lw	ra,108(sp)
    50b8:	5426                	lw	s0,104(sp)
    50ba:	8552                	mv	a0,s4
    50bc:	5496                	lw	s1,100(sp)
    50be:	5906                	lw	s2,96(sp)
    50c0:	49f6                	lw	s3,92(sp)
    50c2:	4a66                	lw	s4,88(sp)
    50c4:	4ad6                	lw	s5,84(sp)
    50c6:	4b46                	lw	s6,80(sp)
    50c8:	4bb6                	lw	s7,76(sp)
    50ca:	6165                	addi	sp,sp,112
    50cc:	8082                	ret
E:\Works\NSCAM\obj/../FATFS/ff.c:3703
				if (dj.obj.attr & (AM_RDO | AM_DIR)) {	/* Cannot overwrite it (R/O or DIR) */
    50ce:	01a14783          	lbu	a5,26(sp)
    50d2:	8bc5                	andi	a5,a5,17
    50d4:	16079363          	bnez	a5,523a <f_open+0x1ee>
E:\Works\NSCAM\obj/../FATFS/ff.c:3706
					if (mode & FA_CREATE_NEW) res = FR_EXIST;	/* Cannot create as new file */
    50d8:	0044f793          	andi	a5,s1,4
    50dc:	18079063          	bnez	a5,525c <f_open+0x210>
E:\Works\NSCAM\obj/../FATFS/ff.c:3709 (discriminator 1)
			if (res == FR_OK && (mode & FA_CREATE_ALWAYS)) {	/* Truncate the file if overwrite mode */
    50e0:	88a1                	andi	s1,s1,8
    50e2:	c4d1                	beqz	s1,516e <f_open+0x122>
E:\Works\NSCAM\obj/../FATFS/ff.c:3731
					st_dword(dj.dir + DIR_CrtTime, tm);
    50e4:	57c2                	lw	a5,48(sp)
st_dword():
E:\Works\NSCAM\obj/../FATFS/ff.c:663
	*ptr++ = (BYTE)val;
    50e6:	05300713          	li	a4,83
E:\Works\NSCAM\obj/../FATFS/ff.c:662
	*ptr++ = (BYTE)val; val >>= 8;
    50ea:	04a00693          	li	a3,74
E:\Works\NSCAM\obj/../FATFS/ff.c:663
	*ptr++ = (BYTE)val;
    50ee:	00e788a3          	sb	a4,17(a5)
E:\Works\NSCAM\obj/../FATFS/ff.c:662
	*ptr++ = (BYTE)val; val >>= 8;
    50f2:	00d78823          	sb	a3,16(a5)
E:\Works\NSCAM\obj/../FATFS/ff.c:660
	*ptr++ = (BYTE)val; val >>= 8;
    50f6:	00078723          	sb	zero,14(a5)
E:\Works\NSCAM\obj/../FATFS/ff.c:661
	*ptr++ = (BYTE)val; val >>= 8;
    50fa:	000787a3          	sb	zero,15(a5)
f_open():
E:\Works\NSCAM\obj/../FATFS/ff.c:3732
					st_dword(dj.dir + DIR_ModTime, tm);
    50fe:	57c2                	lw	a5,48(sp)
E:\Works\NSCAM\obj/../FATFS/ff.c:3733
					cl = ld_clust(fs, dj.dir);			/* Get current cluster chain */
    5100:	49c2                	lw	s3,16(sp)
st_dword():
E:\Works\NSCAM\obj/../FATFS/ff.c:663
	*ptr++ = (BYTE)val;
    5102:	00e78ca3          	sb	a4,25(a5)
E:\Works\NSCAM\obj/../FATFS/ff.c:662
	*ptr++ = (BYTE)val; val >>= 8;
    5106:	00d78c23          	sb	a3,24(a5)
E:\Works\NSCAM\obj/../FATFS/ff.c:660
	*ptr++ = (BYTE)val; val >>= 8;
    510a:	00078b23          	sb	zero,22(a5)
E:\Works\NSCAM\obj/../FATFS/ff.c:661
	*ptr++ = (BYTE)val; val >>= 8;
    510e:	00078ba3          	sb	zero,23(a5)
f_open():
E:\Works\NSCAM\obj/../FATFS/ff.c:3733
					cl = ld_clust(fs, dj.dir);			/* Get current cluster chain */
    5112:	5ac2                	lw	s5,48(sp)
    5114:	0009c503          	lbu	a0,0(s3)
    5118:	85d6                	mv	a1,s5
    511a:	8c0ff0ef          	jal	ra,41da <ld_clust.isra.2>
E:\Works\NSCAM\obj/../FATFS/ff.c:3734
					dj.dir[DIR_Attr] = AM_ARC;			/* Reset attribute */
    511e:	02000793          	li	a5,32
    5122:	00fa85a3          	sb	a5,11(s5)
E:\Works\NSCAM\obj/../FATFS/ff.c:3735
					st_clust(fs, dj.dir, 0);			/* Reset file allocation info */
    5126:	55c2                	lw	a1,48(sp)
E:\Works\NSCAM\obj/../FATFS/ff.c:3733
					cl = ld_clust(fs, dj.dir);			/* Get current cluster chain */
    5128:	84aa                	mv	s1,a0
E:\Works\NSCAM\obj/../FATFS/ff.c:3735
					st_clust(fs, dj.dir, 0);			/* Reset file allocation info */
    512a:	4601                	li	a2,0
    512c:	854e                	mv	a0,s3
    512e:	8d2ff0ef          	jal	ra,4200 <st_clust.isra.3>
E:\Works\NSCAM\obj/../FATFS/ff.c:3736
					st_dword(dj.dir + DIR_FileSize, 0);
    5132:	57c2                	lw	a5,48(sp)
E:\Works\NSCAM\obj/../FATFS/ff.c:3737
					fs->wflag = 1;
    5134:	4705                	li	a4,1
st_dword():
E:\Works\NSCAM\obj/../FATFS/ff.c:660
	*ptr++ = (BYTE)val; val >>= 8;
    5136:	00078e23          	sb	zero,28(a5)
E:\Works\NSCAM\obj/../FATFS/ff.c:661
	*ptr++ = (BYTE)val; val >>= 8;
    513a:	00078ea3          	sb	zero,29(a5)
E:\Works\NSCAM\obj/../FATFS/ff.c:662
	*ptr++ = (BYTE)val; val >>= 8;
    513e:	00078f23          	sb	zero,30(a5)
E:\Works\NSCAM\obj/../FATFS/ff.c:663
	*ptr++ = (BYTE)val;
    5142:	00078fa3          	sb	zero,31(a5)
f_open():
E:\Works\NSCAM\obj/../FATFS/ff.c:3737
					fs->wflag = 1;
    5146:	47c2                	lw	a5,16(sp)
    5148:	00e781a3          	sb	a4,3(a5)
E:\Works\NSCAM\obj/../FATFS/ff.c:3738
					if (cl != 0) {						/* Remove the cluster chain if exist */
    514c:	c08d                	beqz	s1,516e <f_open+0x122>
E:\Works\NSCAM\obj/../FATFS/ff.c:3740
						res = remove_chain(&dj.obj, cl, 0);
    514e:	4601                	li	a2,0
    5150:	85a6                	mv	a1,s1
    5152:	0848                	addi	a0,sp,20
E:\Works\NSCAM\obj/../FATFS/ff.c:3739
						sc = fs->winsect;
    5154:	02c7a983          	lw	s3,44(a5)
E:\Works\NSCAM\obj/../FATFS/ff.c:3740
						res = remove_chain(&dj.obj, cl, 0);
    5158:	db8ff0ef          	jal	ra,4710 <remove_chain>
E:\Works\NSCAM\obj/../FATFS/ff.c:3741
						if (res == FR_OK) {
    515c:	f931                	bnez	a0,50b0 <f_open+0x64>
E:\Works\NSCAM\obj/../FATFS/ff.c:3742
							res = move_window(fs, sc);
    515e:	4542                	lw	a0,16(sp)
    5160:	85ce                	mv	a1,s3
E:\Works\NSCAM\obj/../FATFS/ff.c:3743
							fs->last_clst = cl - 1;		/* Reuse the cluster hole */
    5162:	14fd                	addi	s1,s1,-1
E:\Works\NSCAM\obj/../FATFS/ff.c:3742
							res = move_window(fs, sc);
    5164:	920ff0ef          	jal	ra,4284 <move_window>
E:\Works\NSCAM\obj/../FATFS/ff.c:3743
							fs->last_clst = cl - 1;		/* Reuse the cluster hole */
    5168:	47c2                	lw	a5,16(sp)
    516a:	c7c4                	sw	s1,12(a5)
E:\Works\NSCAM\obj/../FATFS/ff.c:3760
		if (res == FR_OK) {
    516c:	f131                	bnez	a0,50b0 <f_open+0x64>
E:\Works\NSCAM\obj/../FATFS/ff.c:3761
			if (mode & FA_CREATE_ALWAYS) mode |= FA_MODIFIED;	/* Set file change flag if created or overwritten */
    516e:	00897793          	andi	a5,s2,8
    5172:	c399                	beqz	a5,5178 <f_open+0x12c>
E:\Works\NSCAM\obj/../FATFS/ff.c:3761 (discriminator 1)
    5174:	04096913          	ori	s2,s2,64
E:\Works\NSCAM\obj/../FATFS/ff.c:3762
			fp->dir_sect = fs->winsect;			/* Pointer to the directory entry */
    5178:	4ac2                	lw	s5,16(sp)
E:\Works\NSCAM\obj/../FATFS/ff.c:3763
			fp->dir_ptr = dj.dir;
    517a:	54c2                	lw	s1,48(sp)
E:\Works\NSCAM\obj/../FATFS/ff.c:3805
			memset(fp->buf, 0, sizeof fp->buf);	/* Clear sector buffer */
    517c:	02840b13          	addi	s6,s0,40
E:\Works\NSCAM\obj/../FATFS/ff.c:3762
			fp->dir_sect = fs->winsect;			/* Pointer to the directory entry */
    5180:	02caa783          	lw	a5,44(s5)
E:\Works\NSCAM\obj/../FATFS/ff.c:3763
			fp->dir_ptr = dj.dir;
    5184:	d044                	sw	s1,36(s0)
E:\Works\NSCAM\obj/../FATFS/ff.c:3791
				fp->obj.sclust = ld_clust(fs, dj.dir);					/* Get object allocation info */
    5186:	85a6                	mv	a1,s1
E:\Works\NSCAM\obj/../FATFS/ff.c:3762
			fp->dir_sect = fs->winsect;			/* Pointer to the directory entry */
    5188:	d01c                	sw	a5,32(s0)
E:\Works\NSCAM\obj/../FATFS/ff.c:3791
				fp->obj.sclust = ld_clust(fs, dj.dir);					/* Get object allocation info */
    518a:	000ac503          	lbu	a0,0(s5)
    518e:	84cff0ef          	jal	ra,41da <ld_clust.isra.2>
    5192:	c408                	sw	a0,8(s0)
    5194:	89aa                	mv	s3,a0
E:\Works\NSCAM\obj/../FATFS/ff.c:3792
				fp->obj.objsize = ld_dword(dj.dir + DIR_FileSize);
    5196:	01c48513          	addi	a0,s1,28
    519a:	f7bfe0ef          	jal	ra,4114 <ld_dword>
E:\Works\NSCAM\obj/../FATFS/ff.c:3798
			fp->obj.id = fs->id;
    519e:	006ad783          	lhu	a5,6(s5)
E:\Works\NSCAM\obj/../FATFS/ff.c:3792
				fp->obj.objsize = ld_dword(dj.dir + DIR_FileSize);
    51a2:	c448                	sw	a0,12(s0)
E:\Works\NSCAM\obj/../FATFS/ff.c:3799
			fp->flag = mode;	/* Set file access mode */
    51a4:	01240823          	sb	s2,16(s0)
E:\Works\NSCAM\obj/../FATFS/ff.c:3792
				fp->obj.objsize = ld_dword(dj.dir + DIR_FileSize);
    51a8:	84aa                	mv	s1,a0
E:\Works\NSCAM\obj/../FATFS/ff.c:3797
			fp->obj.fs = fs;	/* Validate the file object */
    51aa:	01542023          	sw	s5,0(s0)
E:\Works\NSCAM\obj/../FATFS/ff.c:3798
			fp->obj.id = fs->id;
    51ae:	00f41223          	sh	a5,4(s0)
E:\Works\NSCAM\obj/../FATFS/ff.c:3800
			fp->err = 0;		/* Clear error flag */
    51b2:	000408a3          	sb	zero,17(s0)
E:\Works\NSCAM\obj/../FATFS/ff.c:3801
			fp->sect = 0;		/* Invalidate current data sector */
    51b6:	00042e23          	sw	zero,28(s0)
E:\Works\NSCAM\obj/../FATFS/ff.c:3802
			fp->fptr = 0;		/* Set file pointer top of the file */
    51ba:	00042a23          	sw	zero,20(s0)
E:\Works\NSCAM\obj/../FATFS/ff.c:3805
			memset(fp->buf, 0, sizeof fp->buf);	/* Clear sector buffer */
    51be:	20000613          	li	a2,512
    51c2:	4581                	li	a1,0
    51c4:	855a                	mv	a0,s6
E:\Works\NSCAM\obj/../FATFS/ff.c:3807
			if ((mode & FA_SEEKEND) && fp->obj.objsize > 0) {	/* Seek to end of file if FA_OPEN_APPEND is specified */
    51c6:	02097913          	andi	s2,s2,32
E:\Works\NSCAM\obj/../FATFS/ff.c:3805
			memset(fp->buf, 0, sizeof fp->buf);	/* Clear sector buffer */
    51ca:	ef7fa0ef          	jal	ra,c0 <memset>
E:\Works\NSCAM\obj/../FATFS/ff.c:3807
			if ((mode & FA_SEEKEND) && fp->obj.objsize > 0) {	/* Seek to end of file if FA_OPEN_APPEND is specified */
    51ce:	ee0904e3          	beqz	s2,50b6 <f_open+0x6a>
E:\Works\NSCAM\obj/../FATFS/ff.c:3807 (discriminator 1)
    51d2:	ee0482e3          	beqz	s1,50b6 <f_open+0x6a>
E:\Works\NSCAM\obj/../FATFS/ff.c:3809
				bcs = (DWORD)fs->csize * SS(fs);	/* Cluster size in byte */
    51d6:	00aad903          	lhu	s2,10(s5)
E:\Works\NSCAM\obj/../FATFS/ff.c:3808
				fp->fptr = fp->obj.objsize;			/* Offset to seek */
    51da:	c844                	sw	s1,20(s0)
E:\Works\NSCAM\obj/../FATFS/ff.c:3813
					if (clst <= 1) res = FR_INT_ERR;
    51dc:	4a85                	li	s5,1
E:\Works\NSCAM\obj/../FATFS/ff.c:3809
				bcs = (DWORD)fs->csize * SS(fs);	/* Cluster size in byte */
    51de:	0926                	slli	s2,s2,0x9
E:\Works\NSCAM\obj/../FATFS/ff.c:3811
				for (ofs = fp->obj.objsize; res == FR_OK && ofs > bcs; ofs -= bcs) {
    51e0:	5bfd                	li	s7,-1
E:\Works\NSCAM\obj/../FATFS/ff.c:3811 (discriminator 3)
    51e2:	04996e63          	bltu	s2,s1,523e <f_open+0x1f2>
    51e6:	4501                	li	a0,0
E:\Works\NSCAM\obj/../FATFS/ff.c:3816
				fp->clust = clst;
    51e8:	01342c23          	sw	s3,24(s0)
E:\Works\NSCAM\obj/../FATFS/ff.c:3817
				if (res == FR_OK && ofs % SS(fs)) {	/* Fill sector buffer if not on the sector boundary */
    51ec:	ec0512e3          	bnez	a0,50b0 <f_open+0x64>
E:\Works\NSCAM\obj/../FATFS/ff.c:3817 (discriminator 1)
    51f0:	1ff4f793          	andi	a5,s1,511
    51f4:	ec0781e3          	beqz	a5,50b6 <f_open+0x6a>
E:\Works\NSCAM\obj/../FATFS/ff.c:3818
					sc = clst2sect(fs, clst);
    51f8:	4942                	lw	s2,16(sp)
    51fa:	85ce                	mv	a1,s3
    51fc:	854a                	mv	a0,s2
    51fe:	f35fe0ef          	jal	ra,4132 <clst2sect>
    5202:	862a                	mv	a2,a0
E:\Works\NSCAM\obj/../FATFS/ff.c:3820
						res = FR_INT_ERR;
    5204:	4509                	li	a0,2
E:\Works\NSCAM\obj/../FATFS/ff.c:3819
					if (sc == 0) {
    5206:	ea0605e3          	beqz	a2,50b0 <f_open+0x64>
E:\Works\NSCAM\obj/../FATFS/ff.c:3822
						fp->sect = sc + (DWORD)(ofs / SS(fs));
    520a:	80a5                	srli	s1,s1,0x9
    520c:	9626                	add	a2,a2,s1
    520e:	cc50                	sw	a2,28(s0)
E:\Works\NSCAM\obj/../FATFS/ff.c:3824
						if (disk_read(fs->pdrv, fp->buf, fp->sect, 1) != RES_OK) res = FR_DISK_ERR;
    5210:	00194503          	lbu	a0,1(s2)
    5214:	4685                	li	a3,1
    5216:	85da                	mv	a1,s6
    5218:	e91fe0ef          	jal	ra,40a8 <disk_read>
    521c:	e8050de3          	beqz	a0,50b6 <f_open+0x6a>
    5220:	4505                	li	a0,1
    5222:	b579                	j	50b0 <f_open+0x64>
E:\Works\NSCAM\obj/../FATFS/ff.c:3750
			if (res == FR_OK) {					/* Is the object exsiting? */
    5224:	e80516e3          	bnez	a0,50b0 <f_open+0x64>
E:\Works\NSCAM\obj/../FATFS/ff.c:3751
				if (dj.obj.attr & AM_DIR) {		/* File open against a directory */
    5228:	01a14783          	lbu	a5,26(sp)
    522c:	0107f713          	andi	a4,a5,16
    5230:	eb05                	bnez	a4,5260 <f_open+0x214>
E:\Works\NSCAM\obj/../FATFS/ff.c:3754
					if ((mode & FA_WRITE) && (dj.obj.attr & AM_RDO)) { /* Write mode open against R/O file */
    5232:	8889                	andi	s1,s1,2
    5234:	dc8d                	beqz	s1,516e <f_open+0x122>
E:\Works\NSCAM\obj/../FATFS/ff.c:3754 (discriminator 1)
    5236:	8b85                	andi	a5,a5,1
    5238:	db9d                	beqz	a5,516e <f_open+0x122>
E:\Works\NSCAM\obj/../FATFS/ff.c:3704
					res = FR_DENIED;
    523a:	451d                	li	a0,7
    523c:	bd95                	j	50b0 <f_open+0x64>
E:\Works\NSCAM\obj/../FATFS/ff.c:3812
					clst = get_fat(&fp->obj, clst);
    523e:	4008                	lw	a0,0(s0)
    5240:	85ce                	mv	a1,s3
    5242:	412484b3          	sub	s1,s1,s2
    5246:	ad4ff0ef          	jal	ra,451a <get_fat.isra.8>
    524a:	89aa                	mv	s3,a0
E:\Works\NSCAM\obj/../FATFS/ff.c:3813
					if (clst <= 1) res = FR_INT_ERR;
    524c:	00aaf663          	bgeu	s5,a0,5258 <f_open+0x20c>
E:\Works\NSCAM\obj/../FATFS/ff.c:3811
				for (ofs = fp->obj.objsize; res == FR_OK && ofs > bcs; ofs -= bcs) {
    5250:	f97519e3          	bne	a0,s7,51e2 <f_open+0x196>
E:\Works\NSCAM\obj/../FATFS/ff.c:3814
					if (clst == 0xFFFFFFFF) res = FR_DISK_ERR;
    5254:	4505                	li	a0,1
    5256:	bf49                	j	51e8 <f_open+0x19c>
E:\Works\NSCAM\obj/../FATFS/ff.c:3813
					if (clst <= 1) res = FR_INT_ERR;
    5258:	4509                	li	a0,2
    525a:	b779                	j	51e8 <f_open+0x19c>
E:\Works\NSCAM\obj/../FATFS/ff.c:3706
					if (mode & FA_CREATE_NEW) res = FR_EXIST;	/* Cannot create as new file */
    525c:	4521                	li	a0,8
    525e:	bd89                	j	50b0 <f_open+0x64>
E:\Works\NSCAM\obj/../FATFS/ff.c:3752
					res = FR_NO_FILE;
    5260:	4511                	li	a0,4
    5262:	b5b9                	j	50b0 <f_open+0x64>

00005264 <f_read>:
f_read():
E:\Works\NSCAM\obj/../FATFS/ff.c:3856
	FIL* fp, 	/* Open file to be read */
	void* buff,	/* Data buffer to store the read data */
	UINT btr,	/* Number of bytes to read */
	UINT* br	/* Number of bytes read */
)
{
    5264:	711d                	addi	sp,sp,-96
    5266:	cca2                	sw	s0,88(sp)
    5268:	c4d2                	sw	s4,72(sp)
    526a:	c2d6                	sw	s5,68(sp)
    526c:	de5e                	sw	s7,60(sp)
    526e:	ce86                	sw	ra,92(sp)
    5270:	caa6                	sw	s1,84(sp)
    5272:	c8ca                	sw	s2,80(sp)
    5274:	c6ce                	sw	s3,76(sp)
    5276:	c0da                	sw	s6,64(sp)
    5278:	dc62                	sw	s8,56(sp)
    527a:	da66                	sw	s9,52(sp)
    527c:	d86a                	sw	s10,48(sp)
    527e:	d66e                	sw	s11,44(sp)
    5280:	8aae                	mv	s5,a1
E:\Works\NSCAM\obj/../FATFS/ff.c:3866
	FSIZE_t remain;
	UINT rcnt, cc, csect;
	BYTE *rbuff = (BYTE*)buff;


	*br = 0;	/* Clear read byte counter */
    5282:	0006a023          	sw	zero,0(a3) # 1000 <__sccb_ack+0x36>
E:\Works\NSCAM\obj/../FATFS/ff.c:3867
	res = validate(&fp->obj, &fs);				/* Check validity of the file object */
    5286:	086c                	addi	a1,sp,28
E:\Works\NSCAM\obj/../FATFS/ff.c:3856
{
    5288:	842a                	mv	s0,a0
    528a:	c632                	sw	a2,12(sp)
    528c:	8bb6                	mv	s7,a3
E:\Works\NSCAM\obj/../FATFS/ff.c:3867
	res = validate(&fp->obj, &fs);				/* Check validity of the file object */
    528e:	f03fe0ef          	jal	ra,4190 <validate>
    5292:	8a2a                	mv	s4,a0
E:\Works\NSCAM\obj/../FATFS/ff.c:3868
	if (res != FR_OK || (res = (FRESULT)fp->err) != FR_OK) LEAVE_FF(fs, res);	/* Check validity */
    5294:	e525                	bnez	a0,52fc <f_read+0x98>
E:\Works\NSCAM\obj/../FATFS/ff.c:3868 (discriminator 2)
    5296:	01144a03          	lbu	s4,17(s0)
    529a:	060a1163          	bnez	s4,52fc <f_read+0x98>
E:\Works\NSCAM\obj/../FATFS/ff.c:3869
	if (!(fp->flag & FA_READ)) LEAVE_FF(fs, FR_DENIED); /* Check access mode */
    529e:	01044783          	lbu	a5,16(s0)
    52a2:	8b85                	andi	a5,a5,1
    52a4:	16078363          	beqz	a5,540a <f_read+0x1a6>
E:\Works\NSCAM\obj/../FATFS/ff.c:3870
	remain = fp->obj.objsize - fp->fptr;
    52a8:	00c42903          	lw	s2,12(s0)
    52ac:	485c                	lw	a5,20(s0)
    52ae:	4632                	lw	a2,12(sp)
    52b0:	40f90933          	sub	s2,s2,a5
    52b4:	01267363          	bgeu	a2,s2,52ba <f_read+0x56>
    52b8:	8932                	mv	s2,a2
E:\Works\NSCAM\obj/../FATFS/ff.c:3929
				if (disk_read(fs->pdrv, fp->buf, sect, 1) != RES_OK)	ABORT(fs, FR_DISK_ERR);	/* Fill sector cache */
			}
#endif
			fp->sect = sect;
		}
		rcnt = SS(fs) - (UINT)fp->fptr % SS(fs);	/* Number of bytes remains in the sector */
    52ba:	20000c13          	li	s8,512
E:\Works\NSCAM\obj/../FATFS/ff.c:3935
		if (rcnt > btr) rcnt = btr;					/* Clip it by btr if needed */
#if FF_FS_TINY
		if (move_window(fs, fp->sect) != FR_OK) ABORT(fs, FR_DISK_ERR);	/* Move sector window */
		memcpy(rbuff, fs->win + fp->fptr % SS(fs), rcnt);	/* Extract partial sector */
#else
		memcpy(rbuff, fp->buf + fp->fptr % SS(fs), rcnt);	/* Extract partial sector */
    52be:	02840b13          	addi	s6,s0,40
E:\Works\NSCAM\obj/../FATFS/ff.c:3897
			if (cc > 0) {						/* Read maximum contiguous sectors directly */
    52c2:	1ff00c93          	li	s9,511
E:\Works\NSCAM\obj/../FATFS/ff.c:3890
				if (clst == 0xFFFFFFFF) ABORT(fs, FR_DISK_ERR);
    52c6:	5d7d                	li	s10,-1
E:\Works\NSCAM\obj/../FATFS/ff.c:3873 (discriminator 1)
	for ( ; btr > 0; btr -= rcnt, *br += rcnt, rbuff += rcnt, fp->fptr += rcnt) {	/* Repeat until btr bytes read */
    52c8:	02090a63          	beqz	s2,52fc <f_read+0x98>
E:\Works\NSCAM\obj/../FATFS/ff.c:3874
		if (fp->fptr % SS(fs) == 0) {			/* On the sector boundary? */
    52cc:	485c                	lw	a5,20(s0)
    52ce:	1ff7f713          	andi	a4,a5,511
    52d2:	10071d63          	bnez	a4,53ec <f_read+0x188>
E:\Works\NSCAM\obj/../FATFS/ff.c:3875
			csect = (UINT)(fp->fptr / SS(fs) & (fs->csize - 1));	/* Sector offset in the cluster */
    52d6:	4772                	lw	a4,28(sp)
    52d8:	00a75d83          	lhu	s11,10(a4)
    52dc:	0097d713          	srli	a4,a5,0x9
    52e0:	1dfd                	addi	s11,s11,-1
    52e2:	00edfdb3          	and	s11,s11,a4
E:\Works\NSCAM\obj/../FATFS/ff.c:3876
			if (csect == 0) {					/* On the cluster boundary? */
    52e6:	040d9863          	bnez	s11,5336 <f_read+0xd2>
E:\Works\NSCAM\obj/../FATFS/ff.c:3877
				if (fp->fptr == 0) {			/* On the top of the file? */
    52ea:	eb8d                	bnez	a5,531c <f_read+0xb8>
E:\Works\NSCAM\obj/../FATFS/ff.c:3878
					clst = fp->obj.sclust;		/* Follow cluster chain from the origin */
    52ec:	4408                	lw	a0,8(s0)
E:\Works\NSCAM\obj/../FATFS/ff.c:3889
				if (clst < 2) ABORT(fs, FR_INT_ERR);
    52ee:	4785                	li	a5,1
    52f0:	02a7eb63          	bltu	a5,a0,5326 <f_read+0xc2>
E:\Works\NSCAM\obj/../FATFS/ff.c:3889 (discriminator 1)
    52f4:	4789                	li	a5,2
    52f6:	00f408a3          	sb	a5,17(s0)
    52fa:	4a09                	li	s4,2
E:\Works\NSCAM\obj/../FATFS/ff.c:3940
#endif
	}

	LEAVE_FF(fs, FR_OK);
}
    52fc:	40f6                	lw	ra,92(sp)
    52fe:	4466                	lw	s0,88(sp)
    5300:	8552                	mv	a0,s4
    5302:	44d6                	lw	s1,84(sp)
    5304:	4946                	lw	s2,80(sp)
    5306:	49b6                	lw	s3,76(sp)
    5308:	4a26                	lw	s4,72(sp)
    530a:	4a96                	lw	s5,68(sp)
    530c:	4b06                	lw	s6,64(sp)
    530e:	5bf2                	lw	s7,60(sp)
    5310:	5c62                	lw	s8,56(sp)
    5312:	5cd2                	lw	s9,52(sp)
    5314:	5d42                	lw	s10,48(sp)
    5316:	5db2                	lw	s11,44(sp)
    5318:	6125                	addi	sp,sp,96
    531a:	8082                	ret
E:\Works\NSCAM\obj/../FATFS/ff.c:3886
						clst = get_fat(&fp->obj, fp->clust);	/* Follow cluster chain on the FAT */
    531c:	4c0c                	lw	a1,24(s0)
    531e:	4008                	lw	a0,0(s0)
    5320:	9faff0ef          	jal	ra,451a <get_fat.isra.8>
    5324:	b7e9                	j	52ee <f_read+0x8a>
E:\Works\NSCAM\obj/../FATFS/ff.c:3890 (discriminator 2)
				if (clst == 0xFFFFFFFF) ABORT(fs, FR_DISK_ERR);
    5326:	01a51763          	bne	a0,s10,5334 <f_read+0xd0>
E:\Works\NSCAM\obj/../FATFS/ff.c:3890 (discriminator 1)
    532a:	4785                	li	a5,1
    532c:	00f408a3          	sb	a5,17(s0)
    5330:	4a05                	li	s4,1
    5332:	b7e9                	j	52fc <f_read+0x98>
E:\Works\NSCAM\obj/../FATFS/ff.c:3891 (discriminator 2)
				fp->clust = clst;				/* Update current cluster */
    5334:	cc08                	sw	a0,24(s0)
E:\Works\NSCAM\obj/../FATFS/ff.c:3893
			sect = clst2sect(fs, fp->clust);	/* Get current sector */
    5336:	47f2                	lw	a5,28(sp)
    5338:	4c0c                	lw	a1,24(s0)
    533a:	853e                	mv	a0,a5
    533c:	c63e                	sw	a5,12(sp)
    533e:	df5fe0ef          	jal	ra,4132 <clst2sect>
E:\Works\NSCAM\obj/../FATFS/ff.c:3894
			if (sect == 0) ABORT(fs, FR_INT_ERR);
    5342:	d94d                	beqz	a0,52f4 <f_read+0x90>
E:\Works\NSCAM\obj/../FATFS/ff.c:3895 (discriminator 2)
			sect += csect;
    5344:	00ad89b3          	add	s3,s11,a0
E:\Works\NSCAM\obj/../FATFS/ff.c:3897 (discriminator 2)
			if (cc > 0) {						/* Read maximum contiguous sectors directly */
    5348:	47b2                	lw	a5,12(sp)
    534a:	072cf263          	bgeu	s9,s2,53ae <f_read+0x14a>
E:\Works\NSCAM\obj/../FATFS/ff.c:3898
				if (csect + cc > fs->csize) {	/* Clip at cluster boundary */
    534e:	00a7d703          	lhu	a4,10(a5)
E:\Works\NSCAM\obj/../FATFS/ff.c:3896
			cc = btr / SS(fs);					/* When remaining bytes >= sector size, */
    5352:	00995493          	srli	s1,s2,0x9
E:\Works\NSCAM\obj/../FATFS/ff.c:3898
				if (csect + cc > fs->csize) {	/* Clip at cluster boundary */
    5356:	009d86b3          	add	a3,s11,s1
    535a:	00d77463          	bgeu	a4,a3,5362 <f_read+0xfe>
E:\Works\NSCAM\obj/../FATFS/ff.c:3899
					cc = fs->csize - csect;
    535e:	41b704b3          	sub	s1,a4,s11
E:\Works\NSCAM\obj/../FATFS/ff.c:3901
				if (disk_read(fs->pdrv, rbuff, sect, cc) != RES_OK) ABORT(fs, FR_DISK_ERR);
    5362:	0017c503          	lbu	a0,1(a5)
    5366:	86a6                	mv	a3,s1
    5368:	864e                	mv	a2,s3
    536a:	85d6                	mv	a1,s5
    536c:	d3dfe0ef          	jal	ra,40a8 <disk_read>
    5370:	fd4d                	bnez	a0,532a <f_read+0xc6>
E:\Works\NSCAM\obj/../FATFS/ff.c:3908 (discriminator 2)
				if ((fp->flag & FA_DIRTY) && fp->sect - sect < cc) {
    5372:	01040783          	lb	a5,16(s0)
    5376:	0007df63          	bgez	a5,5394 <f_read+0x130>
E:\Works\NSCAM\obj/../FATFS/ff.c:3908 (discriminator 1)
    537a:	4c48                	lw	a0,28(s0)
    537c:	413509b3          	sub	s3,a0,s3
    5380:	0099fa63          	bgeu	s3,s1,5394 <f_read+0x130>
E:\Works\NSCAM\obj/../FATFS/ff.c:3909
					memcpy(rbuff + ((fp->sect - sect) * SS(fs)), fp->buf, SS(fs));
    5384:	09a6                	slli	s3,s3,0x9
    5386:	20000613          	li	a2,512
    538a:	85da                	mv	a1,s6
    538c:	013a8533          	add	a0,s5,s3
    5390:	796010ef          	jal	ra,6b26 <memcpy>
E:\Works\NSCAM\obj/../FATFS/ff.c:3913
				rcnt = SS(fs) * cc;				/* Number of bytes transferred */
    5394:	04a6                	slli	s1,s1,0x9
E:\Works\NSCAM\obj/../FATFS/ff.c:3873
	for ( ; btr > 0; btr -= rcnt, *br += rcnt, rbuff += rcnt, fp->fptr += rcnt) {	/* Repeat until btr bytes read */
    5396:	000ba783          	lw	a5,0(s7)
    539a:	40990933          	sub	s2,s2,s1
    539e:	9aa6                	add	s5,s5,s1
    53a0:	97a6                	add	a5,a5,s1
    53a2:	00fba023          	sw	a5,0(s7)
    53a6:	485c                	lw	a5,20(s0)
    53a8:	94be                	add	s1,s1,a5
    53aa:	c844                	sw	s1,20(s0)
    53ac:	bf31                	j	52c8 <f_read+0x64>
E:\Works\NSCAM\obj/../FATFS/ff.c:3917
			if (fp->sect != sect) {			/* Load data sector if not in cache */
    53ae:	4c50                	lw	a2,28(s0)
    53b0:	03360c63          	beq	a2,s3,53e8 <f_read+0x184>
E:\Works\NSCAM\obj/../FATFS/ff.c:3919
				if (fp->flag & FA_DIRTY) {		/* Write-back dirty sector cache */
    53b4:	01040703          	lb	a4,16(s0)
    53b8:	00075f63          	bgez	a4,53d6 <f_read+0x172>
E:\Works\NSCAM\obj/../FATFS/ff.c:3920
					if (disk_write(fs->pdrv, fp->buf, fp->sect, 1) != RES_OK) ABORT(fs, FR_DISK_ERR);
    53bc:	0017c503          	lbu	a0,1(a5)
    53c0:	4685                	li	a3,1
    53c2:	85da                	mv	a1,s6
    53c4:	d19fe0ef          	jal	ra,40dc <disk_write>
    53c8:	f12d                	bnez	a0,532a <f_read+0xc6>
E:\Works\NSCAM\obj/../FATFS/ff.c:3921 (discriminator 2)
					fp->flag &= (BYTE)~FA_DIRTY;
    53ca:	01044783          	lbu	a5,16(s0)
    53ce:	07f7f793          	andi	a5,a5,127
    53d2:	00f40823          	sb	a5,16(s0)
E:\Works\NSCAM\obj/../FATFS/ff.c:3924
				if (disk_read(fs->pdrv, fp->buf, sect, 1) != RES_OK)	ABORT(fs, FR_DISK_ERR);	/* Fill sector cache */
    53d6:	47f2                	lw	a5,28(sp)
    53d8:	4685                	li	a3,1
    53da:	864e                	mv	a2,s3
    53dc:	0017c503          	lbu	a0,1(a5)
    53e0:	85da                	mv	a1,s6
    53e2:	cc7fe0ef          	jal	ra,40a8 <disk_read>
    53e6:	f131                	bnez	a0,532a <f_read+0xc6>
E:\Works\NSCAM\obj/../FATFS/ff.c:3927
			fp->sect = sect;
    53e8:	01342e23          	sw	s3,28(s0)
E:\Works\NSCAM\obj/../FATFS/ff.c:3929
		rcnt = SS(fs) - (UINT)fp->fptr % SS(fs);	/* Number of bytes remains in the sector */
    53ec:	484c                	lw	a1,20(s0)
    53ee:	84ca                	mv	s1,s2
    53f0:	1ff5f593          	andi	a1,a1,511
    53f4:	40bc07b3          	sub	a5,s8,a1
E:\Works\NSCAM\obj/../FATFS/ff.c:3930
		if (rcnt > btr) rcnt = btr;					/* Clip it by btr if needed */
    53f8:	0127f363          	bgeu	a5,s2,53fe <f_read+0x19a>
    53fc:	84be                	mv	s1,a5
E:\Works\NSCAM\obj/../FATFS/ff.c:3935
		memcpy(rbuff, fp->buf + fp->fptr % SS(fs), rcnt);	/* Extract partial sector */
    53fe:	8626                	mv	a2,s1
    5400:	95da                	add	a1,a1,s6
    5402:	8556                	mv	a0,s5
    5404:	722010ef          	jal	ra,6b26 <memcpy>
    5408:	b779                	j	5396 <f_read+0x132>
E:\Works\NSCAM\obj/../FATFS/ff.c:3869
	if (!(fp->flag & FA_READ)) LEAVE_FF(fs, FR_DENIED); /* Check access mode */
    540a:	4a1d                	li	s4,7
    540c:	bdc5                	j	52fc <f_read+0x98>

0000540e <f_write>:
f_write():
E:\Works\NSCAM\obj/../FATFS/ff.c:3956
	FIL* fp,			/* Open file to be written */
	const void* buff,	/* Data to be written */
	UINT btw,			/* Number of bytes to write */
	UINT* bw			/* Number of bytes written */
)
{
    540e:	711d                	addi	sp,sp,-96
    5410:	cca2                	sw	s0,88(sp)
    5412:	c8ca                	sw	s2,80(sp)
    5414:	c6ce                	sw	s3,76(sp)
    5416:	c4d2                	sw	s4,72(sp)
    5418:	c0da                	sw	s6,64(sp)
    541a:	ce86                	sw	ra,92(sp)
    541c:	caa6                	sw	s1,84(sp)
    541e:	c2d6                	sw	s5,68(sp)
    5420:	de5e                	sw	s7,60(sp)
    5422:	dc62                	sw	s8,56(sp)
    5424:	da66                	sw	s9,52(sp)
    5426:	d86a                	sw	s10,48(sp)
    5428:	d66e                	sw	s11,44(sp)
    542a:	8a2e                	mv	s4,a1
E:\Works\NSCAM\obj/../FATFS/ff.c:3965
	LBA_t sect;
	UINT wcnt, cc, csect;
	const BYTE *wbuff = (const BYTE*)buff;


	*bw = 0;	/* Clear write byte counter */
    542c:	0006a023          	sw	zero,0(a3)
E:\Works\NSCAM\obj/../FATFS/ff.c:3966
	res = validate(&fp->obj, &fs);			/* Check validity of the file object */
    5430:	086c                	addi	a1,sp,28
E:\Works\NSCAM\obj/../FATFS/ff.c:3956
{
    5432:	842a                	mv	s0,a0
    5434:	8932                	mv	s2,a2
    5436:	8b36                	mv	s6,a3
E:\Works\NSCAM\obj/../FATFS/ff.c:3966
	res = validate(&fp->obj, &fs);			/* Check validity of the file object */
    5438:	d59fe0ef          	jal	ra,4190 <validate>
    543c:	89aa                	mv	s3,a0
E:\Works\NSCAM\obj/../FATFS/ff.c:3967
	if (res != FR_OK || (res = (FRESULT)fp->err) != FR_OK) LEAVE_FF(fs, res);	/* Check validity */
    543e:	e529                	bnez	a0,5488 <f_write+0x7a>
E:\Works\NSCAM\obj/../FATFS/ff.c:3967 (discriminator 2)
    5440:	01144983          	lbu	s3,17(s0)
    5444:	04099263          	bnez	s3,5488 <f_write+0x7a>
E:\Works\NSCAM\obj/../FATFS/ff.c:3968
	if (!(fp->flag & FA_WRITE)) LEAVE_FF(fs, FR_DENIED);	/* Check access mode */
    5448:	01044783          	lbu	a5,16(s0)
    544c:	8b89                	andi	a5,a5,2
    544e:	1a078263          	beqz	a5,55f2 <f_write+0x1e4>
E:\Works\NSCAM\obj/../FATFS/ff.c:3971

	/* Check fptr wrap-around (file size cannot reach 4 GiB at FAT volume) */
	if ((!FF_FS_EXFAT || fs->fs_type != FS_EXFAT) && (DWORD)(fp->fptr + btw) < (DWORD)fp->fptr) {
    5452:	485c                	lw	a5,20(s0)
    5454:	01278733          	add	a4,a5,s2
    5458:	00f77463          	bgeu	a4,a5,5460 <f_write+0x52>
E:\Works\NSCAM\obj/../FATFS/ff.c:3972
		btw = (UINT)(0xFFFFFFFF - (DWORD)fp->fptr);
    545c:	fff7c913          	not	s2,a5
E:\Works\NSCAM\obj/../FATFS/ff.c:4047 (discriminator 1)
					ABORT(fs, FR_DISK_ERR);
			}
#endif
			fp->sect = sect;
		}
		wcnt = SS(fs) - (UINT)fp->fptr % SS(fs);	/* Number of bytes remains in the sector */
    5460:	20000b93          	li	s7,512
E:\Works\NSCAM\obj/../FATFS/ff.c:4054 (discriminator 1)
#if FF_FS_TINY
		if (move_window(fs, fp->sect) != FR_OK) ABORT(fs, FR_DISK_ERR);	/* Move sector window */
		memcpy(fs->win + fp->fptr % SS(fs), wbuff, wcnt);	/* Fit data to the sector */
		fs->wflag = 1;
#else
		memcpy(fp->buf + fp->fptr % SS(fs), wbuff, wcnt);	/* Fit data to the sector */
    5464:	02840a93          	addi	s5,s0,40
E:\Works\NSCAM\obj/../FATFS/ff.c:4012 (discriminator 1)
			if (cc > 0) {					/* Write maximum contiguous sectors directly */
    5468:	1ff00c13          	li	s8,511
E:\Works\NSCAM\obj/../FATFS/ff.c:3996 (discriminator 1)
				if (clst == 0xFFFFFFFF) ABORT(fs, FR_DISK_ERR);
    546c:	5cfd                	li	s9,-1
    546e:	a8ed                	j	5568 <f_write+0x15a>
E:\Works\NSCAM\obj/../FATFS/ff.c:3991
						clst = create_chain(&fp->obj, fp->clust);	/* Follow or stretch cluster chain on the FAT */
    5470:	4c0c                	lw	a1,24(s0)
    5472:	8522                	mv	a0,s0
    5474:	988ff0ef          	jal	ra,45fc <create_chain>
E:\Works\NSCAM\obj/../FATFS/ff.c:3994
				if (clst == 0) break;		/* Could not allocate a new cluster (disk full) */
    5478:	10051e63          	bnez	a0,5594 <f_write+0x186>
E:\Works\NSCAM\obj/../FATFS/ff.c:4059
		fp->flag |= FA_DIRTY;
#endif
	}

	fp->flag |= FA_MODIFIED;				/* Set file change flag */
    547c:	01044783          	lbu	a5,16(s0)
    5480:	0407e793          	ori	a5,a5,64
    5484:	00f40823          	sb	a5,16(s0)
E:\Works\NSCAM\obj/../FATFS/ff.c:4062

	LEAVE_FF(fs, FR_OK);
}
    5488:	40f6                	lw	ra,92(sp)
    548a:	4466                	lw	s0,88(sp)
    548c:	854e                	mv	a0,s3
    548e:	44d6                	lw	s1,84(sp)
    5490:	4946                	lw	s2,80(sp)
    5492:	49b6                	lw	s3,76(sp)
    5494:	4a26                	lw	s4,72(sp)
    5496:	4a96                	lw	s5,68(sp)
    5498:	4b06                	lw	s6,64(sp)
    549a:	5bf2                	lw	s7,60(sp)
    549c:	5c62                	lw	s8,56(sp)
    549e:	5cd2                	lw	s9,52(sp)
    54a0:	5d42                	lw	s10,48(sp)
    54a2:	5db2                	lw	s11,44(sp)
    54a4:	6125                	addi	sp,sp,96
    54a6:	8082                	ret
E:\Works\NSCAM\obj/../FATFS/ff.c:3996 (discriminator 2)
				if (clst == 0xFFFFFFFF) ABORT(fs, FR_DISK_ERR);
    54a8:	01951763          	bne	a0,s9,54b6 <f_write+0xa8>
E:\Works\NSCAM\obj/../FATFS/ff.c:3996 (discriminator 1)
    54ac:	4785                	li	a5,1
    54ae:	00f408a3          	sb	a5,17(s0)
    54b2:	4985                	li	s3,1
    54b4:	bfd1                	j	5488 <f_write+0x7a>
E:\Works\NSCAM\obj/../FATFS/ff.c:3998 (discriminator 2)
				if (fp->obj.sclust == 0) fp->obj.sclust = clst;	/* Set start cluster if the first write */
    54b6:	441c                	lw	a5,8(s0)
E:\Works\NSCAM\obj/../FATFS/ff.c:3997 (discriminator 2)
				fp->clust = clst;			/* Update current cluster */
    54b8:	cc08                	sw	a0,24(s0)
E:\Works\NSCAM\obj/../FATFS/ff.c:3998 (discriminator 2)
				if (fp->obj.sclust == 0) fp->obj.sclust = clst;	/* Set start cluster if the first write */
    54ba:	e391                	bnez	a5,54be <f_write+0xb0>
E:\Works\NSCAM\obj/../FATFS/ff.c:3998 (discriminator 1)
    54bc:	c408                	sw	a0,8(s0)
E:\Works\NSCAM\obj/../FATFS/ff.c:4003
			if (fp->flag & FA_DIRTY) {		/* Write-back sector cache */
    54be:	01040783          	lb	a5,16(s0)
    54c2:	0207d163          	bgez	a5,54e4 <f_write+0xd6>
E:\Works\NSCAM\obj/../FATFS/ff.c:4004
				if (disk_write(fs->pdrv, fp->buf, fp->sect, 1) != RES_OK) ABORT(fs, FR_DISK_ERR);
    54c6:	47f2                	lw	a5,28(sp)
    54c8:	4c50                	lw	a2,28(s0)
    54ca:	4685                	li	a3,1
    54cc:	0017c503          	lbu	a0,1(a5)
    54d0:	85d6                	mv	a1,s5
    54d2:	c0bfe0ef          	jal	ra,40dc <disk_write>
    54d6:	f979                	bnez	a0,54ac <f_write+0x9e>
E:\Works\NSCAM\obj/../FATFS/ff.c:4005 (discriminator 2)
				fp->flag &= (BYTE)~FA_DIRTY;
    54d8:	01044783          	lbu	a5,16(s0)
    54dc:	07f7f793          	andi	a5,a5,127
    54e0:	00f40823          	sb	a5,16(s0)
E:\Works\NSCAM\obj/../FATFS/ff.c:4008
			sect = clst2sect(fs, fp->clust);	/* Get current sector */
    54e4:	47f2                	lw	a5,28(sp)
    54e6:	4c0c                	lw	a1,24(s0)
    54e8:	853e                	mv	a0,a5
    54ea:	c63e                	sw	a5,12(sp)
    54ec:	c47fe0ef          	jal	ra,4132 <clst2sect>
E:\Works\NSCAM\obj/../FATFS/ff.c:4009
			if (sect == 0) ABORT(fs, FR_INT_ERR);
    54f0:	c54d                	beqz	a0,559a <f_write+0x18c>
E:\Works\NSCAM\obj/../FATFS/ff.c:4010 (discriminator 2)
			sect += csect;
    54f2:	00ad8d33          	add	s10,s11,a0
E:\Works\NSCAM\obj/../FATFS/ff.c:4012 (discriminator 2)
			if (cc > 0) {					/* Write maximum contiguous sectors directly */
    54f6:	47b2                	lw	a5,12(sp)
    54f8:	0b2c7663          	bgeu	s8,s2,55a4 <f_write+0x196>
E:\Works\NSCAM\obj/../FATFS/ff.c:4013
				if (csect + cc > fs->csize) {	/* Clip at cluster boundary */
    54fc:	00a7d703          	lhu	a4,10(a5)
E:\Works\NSCAM\obj/../FATFS/ff.c:4011
			cc = btw / SS(fs);				/* When remaining bytes >= sector size, */
    5500:	00995493          	srli	s1,s2,0x9
E:\Works\NSCAM\obj/../FATFS/ff.c:4013
				if (csect + cc > fs->csize) {	/* Clip at cluster boundary */
    5504:	009d86b3          	add	a3,s11,s1
    5508:	00d77463          	bgeu	a4,a3,5510 <f_write+0x102>
E:\Works\NSCAM\obj/../FATFS/ff.c:4014
					cc = fs->csize - csect;
    550c:	41b704b3          	sub	s1,a4,s11
E:\Works\NSCAM\obj/../FATFS/ff.c:4016
				if (disk_write(fs->pdrv, wbuff, sect, cc) != RES_OK) ABORT(fs, FR_DISK_ERR);
    5510:	0017c503          	lbu	a0,1(a5)
    5514:	86a6                	mv	a3,s1
    5516:	866a                	mv	a2,s10
    5518:	85d2                	mv	a1,s4
    551a:	bc3fe0ef          	jal	ra,40dc <disk_write>
    551e:	f559                	bnez	a0,54ac <f_write+0x9e>
E:\Works\NSCAM\obj/../FATFS/ff.c:4024 (discriminator 2)
				if (fp->sect - sect < cc) { /* Refill sector cache if it gets invalidated by the direct write */
    5520:	4c4c                	lw	a1,28(s0)
    5522:	41a58d33          	sub	s10,a1,s10
    5526:	029d7063          	bgeu	s10,s1,5546 <f_write+0x138>
E:\Works\NSCAM\obj/../FATFS/ff.c:4025
					memcpy(fp->buf, wbuff + ((fp->sect - sect) * SS(fs)), SS(fs));
    552a:	0d26                	slli	s10,s10,0x9
    552c:	20000613          	li	a2,512
    5530:	01aa05b3          	add	a1,s4,s10
    5534:	8556                	mv	a0,s5
    5536:	5f0010ef          	jal	ra,6b26 <memcpy>
E:\Works\NSCAM\obj/../FATFS/ff.c:4026
					fp->flag &= (BYTE)~FA_DIRTY;
    553a:	01044783          	lbu	a5,16(s0)
    553e:	07f7f793          	andi	a5,a5,127
    5542:	00f40823          	sb	a5,16(s0)
E:\Works\NSCAM\obj/../FATFS/ff.c:4030
				wcnt = SS(fs) * cc;		/* Number of bytes transferred */
    5546:	04a6                	slli	s1,s1,0x9
E:\Works\NSCAM\obj/../FATFS/ff.c:3975
	for ( ; btw > 0; btw -= wcnt, *bw += wcnt, wbuff += wcnt, fp->fptr += wcnt, fp->obj.objsize = (fp->fptr > fp->obj.objsize) ? fp->fptr : fp->obj.objsize) {	/* Repeat until all data written */
    5548:	000b2783          	lw	a5,0(s6)
    554c:	40990933          	sub	s2,s2,s1
    5550:	9a26                	add	s4,s4,s1
    5552:	97a6                	add	a5,a5,s1
    5554:	00fb2023          	sw	a5,0(s6)
    5558:	485c                	lw	a5,20(s0)
    555a:	94be                	add	s1,s1,a5
    555c:	445c                	lw	a5,12(s0)
    555e:	c844                	sw	s1,20(s0)
    5560:	0097f363          	bgeu	a5,s1,5566 <f_write+0x158>
    5564:	87a6                	mv	a5,s1
    5566:	c45c                	sw	a5,12(s0)
E:\Works\NSCAM\obj/../FATFS/ff.c:3975 (discriminator 1)
    5568:	f0090ae3          	beqz	s2,547c <f_write+0x6e>
E:\Works\NSCAM\obj/../FATFS/ff.c:3976
		if (fp->fptr % SS(fs) == 0) {		/* On the sector boundary? */
    556c:	485c                	lw	a5,20(s0)
    556e:	1ff7f713          	andi	a4,a5,511
    5572:	eb39                	bnez	a4,55c8 <f_write+0x1ba>
E:\Works\NSCAM\obj/../FATFS/ff.c:3977
			csect = (UINT)(fp->fptr / SS(fs)) & (fs->csize - 1);	/* Sector offset in the cluster */
    5574:	4772                	lw	a4,28(sp)
    5576:	00a75d83          	lhu	s11,10(a4)
    557a:	0097d713          	srli	a4,a5,0x9
    557e:	1dfd                	addi	s11,s11,-1
    5580:	00edfdb3          	and	s11,s11,a4
E:\Works\NSCAM\obj/../FATFS/ff.c:3978
			if (csect == 0) {				/* On the cluster boundary? */
    5584:	f20d9de3          	bnez	s11,54be <f_write+0xb0>
E:\Works\NSCAM\obj/../FATFS/ff.c:3979
				if (fp->fptr == 0) {		/* On the top of the file? */
    5588:	ee0794e3          	bnez	a5,5470 <f_write+0x62>
E:\Works\NSCAM\obj/../FATFS/ff.c:3980
					clst = fp->obj.sclust;	/* Follow from the origin */
    558c:	4408                	lw	a0,8(s0)
E:\Works\NSCAM\obj/../FATFS/ff.c:3982
						clst = create_chain(&fp->obj, 0);	/* create a new cluster chain */
    558e:	4581                	li	a1,0
E:\Works\NSCAM\obj/../FATFS/ff.c:3981
					if (clst == 0) {		/* If no cluster is allocated, */
    5590:	ee0501e3          	beqz	a0,5472 <f_write+0x64>
E:\Works\NSCAM\obj/../FATFS/ff.c:3995
				if (clst == 1) ABORT(fs, FR_INT_ERR);
    5594:	4785                	li	a5,1
    5596:	f0f519e3          	bne	a0,a5,54a8 <f_write+0x9a>
E:\Works\NSCAM\obj/../FATFS/ff.c:3995 (discriminator 1)
    559a:	4789                	li	a5,2
    559c:	00f408a3          	sb	a5,17(s0)
    55a0:	4989                	li	s3,2
    55a2:	b5dd                	j	5488 <f_write+0x7a>
E:\Works\NSCAM\obj/../FATFS/ff.c:4039
			if (fp->sect != sect && 		/* Fill sector cache with file data */
    55a4:	4c58                	lw	a4,28(s0)
    55a6:	01a70f63          	beq	a4,s10,55c4 <f_write+0x1b6>
E:\Works\NSCAM\obj/../FATFS/ff.c:4039 (discriminator 1)
    55aa:	4454                	lw	a3,12(s0)
    55ac:	4858                	lw	a4,20(s0)
    55ae:	00d77b63          	bgeu	a4,a3,55c4 <f_write+0x1b6>
E:\Works\NSCAM\obj/../FATFS/ff.c:4041
				disk_read(fs->pdrv, fp->buf, sect, 1) != RES_OK) {
    55b2:	0017c503          	lbu	a0,1(a5)
    55b6:	4685                	li	a3,1
    55b8:	866a                	mv	a2,s10
    55ba:	85d6                	mv	a1,s5
    55bc:	aedfe0ef          	jal	ra,40a8 <disk_read>
E:\Works\NSCAM\obj/../FATFS/ff.c:4040
				fp->fptr < fp->obj.objsize &&
    55c0:	ee0516e3          	bnez	a0,54ac <f_write+0x9e>
E:\Works\NSCAM\obj/../FATFS/ff.c:4045
			fp->sect = sect;
    55c4:	01a42e23          	sw	s10,28(s0)
E:\Works\NSCAM\obj/../FATFS/ff.c:4047
		wcnt = SS(fs) - (UINT)fp->fptr % SS(fs);	/* Number of bytes remains in the sector */
    55c8:	4848                	lw	a0,20(s0)
    55ca:	84ca                	mv	s1,s2
    55cc:	1ff57513          	andi	a0,a0,511
    55d0:	40ab87b3          	sub	a5,s7,a0
E:\Works\NSCAM\obj/../FATFS/ff.c:4048
		if (wcnt > btw) wcnt = btw;					/* Clip it by btw if needed */
    55d4:	0127f363          	bgeu	a5,s2,55da <f_write+0x1cc>
    55d8:	84be                	mv	s1,a5
E:\Works\NSCAM\obj/../FATFS/ff.c:4054
		memcpy(fp->buf + fp->fptr % SS(fs), wbuff, wcnt);	/* Fit data to the sector */
    55da:	8626                	mv	a2,s1
    55dc:	85d2                	mv	a1,s4
    55de:	9556                	add	a0,a0,s5
    55e0:	546010ef          	jal	ra,6b26 <memcpy>
E:\Works\NSCAM\obj/../FATFS/ff.c:4055
		fp->flag |= FA_DIRTY;
    55e4:	01044783          	lbu	a5,16(s0)
    55e8:	f807e793          	ori	a5,a5,-128
    55ec:	00f40823          	sb	a5,16(s0)
    55f0:	bfa1                	j	5548 <f_write+0x13a>
E:\Works\NSCAM\obj/../FATFS/ff.c:3968
	if (!(fp->flag & FA_WRITE)) LEAVE_FF(fs, FR_DENIED);	/* Check access mode */
    55f2:	499d                	li	s3,7
    55f4:	bd51                	j	5488 <f_write+0x7a>

000055f6 <putc_bfd>:
putc_bfd():
E:\Works\NSCAM\obj/../FATFS/ff.c:6489


/* Buffered file write with code conversion */

static void putc_bfd (putbuff* pb, TCHAR c)
{
    55f6:	7179                	addi	sp,sp,-48
    55f8:	d422                	sw	s0,40(sp)
    55fa:	ce4e                	sw	s3,28(sp)
    55fc:	d606                	sw	ra,44(sp)
    55fe:	d226                	sw	s1,36(sp)
    5600:	d04a                	sw	s2,32(sp)
E:\Works\NSCAM\obj/../FATFS/ff.c:6500
	DWORD dc;
	const TCHAR *tp;
#endif
#endif

	if (FF_USE_STRFUNC == 2 && c == '\n') {	 /* LF -> CRLF conversion */
    5602:	47a9                	li	a5,10
E:\Works\NSCAM\obj/../FATFS/ff.c:6489
{
    5604:	842a                	mv	s0,a0
    5606:	89ae                	mv	s3,a1
E:\Works\NSCAM\obj/../FATFS/ff.c:6500
	if (FF_USE_STRFUNC == 2 && c == '\n') {	 /* LF -> CRLF conversion */
    5608:	00f59463          	bne	a1,a5,5610 <putc_bfd+0x1a>
E:\Works\NSCAM\obj/../FATFS/ff.c:6501
		putc_bfd(pb, '\r');
    560c:	45b5                	li	a1,13
    560e:	37e5                	jal	55f6 <putc_bfd>
E:\Works\NSCAM\obj/../FATFS/ff.c:6504
	}

	i = pb->idx;			/* Write index of pb->buf[] */
    5610:	405c                	lw	a5,4(s0)
E:\Works\NSCAM\obj/../FATFS/ff.c:6505
	if (i < 0) return;		/* In write error? */
    5612:	0207cf63          	bltz	a5,5650 <putc_bfd+0x5a>
E:\Works\NSCAM\obj/../FATFS/ff.c:6605
	}
	pb->buf[i++] = (BYTE)wc;
#endif

#else							/* ANSI/OEM input (without re-encoding) */
	pb->buf[i++] = (BYTE)c;
    5616:	00178493          	addi	s1,a5,1
    561a:	97a2                	add	a5,a5,s0
E:\Works\NSCAM\obj/../FATFS/ff.c:6506
	nc = pb->nchr;			/* Write unit counter */
    561c:	00842903          	lw	s2,8(s0)
E:\Works\NSCAM\obj/../FATFS/ff.c:6605
	pb->buf[i++] = (BYTE)c;
    5620:	01378623          	sb	s3,12(a5)
E:\Works\NSCAM\obj/../FATFS/ff.c:6608
#endif

	if (i >= (int)(sizeof pb->buf) - 4) {	/* Write buffered characters to the file */
    5624:	03b00793          	li	a5,59
    5628:	0297d063          	bge	a5,s1,5648 <putc_bfd+0x52>
E:\Works\NSCAM\obj/../FATFS/ff.c:6609
		f_write(pb->fp, pb->buf, (UINT)i, &n);
    562c:	4008                	lw	a0,0(s0)
    562e:	8626                	mv	a2,s1
    5630:	0074                	addi	a3,sp,12
    5632:	00c40593          	addi	a1,s0,12
    5636:	dd9ff0ef          	jal	ra,540e <f_write>
E:\Works\NSCAM\obj/../FATFS/ff.c:6610
		i = (n == (UINT)i) ? 0 : -1;
    563a:	47b2                	lw	a5,12(sp)
    563c:	409784b3          	sub	s1,a5,s1
    5640:	009034b3          	snez	s1,s1
    5644:	409004b3          	neg	s1,s1
E:\Works\NSCAM\obj/../FATFS/ff.c:6613
	}
	pb->idx = i;
	pb->nchr = nc + 1;
    5648:	0905                	addi	s2,s2,1
E:\Works\NSCAM\obj/../FATFS/ff.c:6612
	pb->idx = i;
    564a:	c044                	sw	s1,4(s0)
E:\Works\NSCAM\obj/../FATFS/ff.c:6613
	pb->nchr = nc + 1;
    564c:	01242423          	sw	s2,8(s0)
E:\Works\NSCAM\obj/../FATFS/ff.c:6614
}
    5650:	50b2                	lw	ra,44(sp)
    5652:	5422                	lw	s0,40(sp)
    5654:	5492                	lw	s1,36(sp)
    5656:	5902                	lw	s2,32(sp)
    5658:	49f2                	lw	s3,28(sp)
    565a:	6145                	addi	sp,sp,48
    565c:	8082                	ret

0000565e <putc_flush>:
putc_flush():
E:\Works\NSCAM\obj/../FATFS/ff.c:6623

static int putc_flush (putbuff* pb)
{
	UINT nw;

	if (   pb->idx >= 0	/* Flush buffered characters to the file */
    565e:	4150                	lw	a2,4(a0)
    5660:	00065963          	bgez	a2,5672 <putc_flush+0x14>
E:\Works\NSCAM\obj/../FATFS/ff.c:6626
		&& f_write(pb->fp, pb->buf, (UINT)pb->idx, &nw) == FR_OK
		&& (UINT)pb->idx == nw) return pb->nchr;
	return -1;
    5664:	557d                	li	a0,-1
E:\Works\NSCAM\obj/../FATFS/ff.c:6627
}
    5666:	8082                	ret
E:\Works\NSCAM\obj/../FATFS/ff.c:6626
	return -1;
    5668:	557d                	li	a0,-1
E:\Works\NSCAM\obj/../FATFS/ff.c:6627
}
    566a:	40f2                	lw	ra,28(sp)
    566c:	4462                	lw	s0,24(sp)
    566e:	6105                	addi	sp,sp,32
    5670:	8082                	ret
E:\Works\NSCAM\obj/../FATFS/ff.c:6620
{
    5672:	1101                	addi	sp,sp,-32
    5674:	cc22                	sw	s0,24(sp)
E:\Works\NSCAM\obj/../FATFS/ff.c:6624
		&& f_write(pb->fp, pb->buf, (UINT)pb->idx, &nw) == FR_OK
    5676:	00c50593          	addi	a1,a0,12
    567a:	842a                	mv	s0,a0
    567c:	4108                	lw	a0,0(a0)
    567e:	0074                	addi	a3,sp,12
E:\Works\NSCAM\obj/../FATFS/ff.c:6620
{
    5680:	ce06                	sw	ra,28(sp)
E:\Works\NSCAM\obj/../FATFS/ff.c:6624
		&& f_write(pb->fp, pb->buf, (UINT)pb->idx, &nw) == FR_OK
    5682:	d8dff0ef          	jal	ra,540e <f_write>
    5686:	f16d                	bnez	a0,5668 <putc_flush+0xa>
E:\Works\NSCAM\obj/../FATFS/ff.c:6625
		&& (UINT)pb->idx == nw) return pb->nchr;
    5688:	4058                	lw	a4,4(s0)
    568a:	47b2                	lw	a5,12(sp)
    568c:	fcf71ee3          	bne	a4,a5,5668 <putc_flush+0xa>
E:\Works\NSCAM\obj/../FATFS/ff.c:6625 (discriminator 1)
    5690:	4408                	lw	a0,8(s0)
    5692:	bfe1                	j	566a <putc_flush+0xc>

00005694 <f_sync>:
f_sync():
E:\Works\NSCAM\obj/../FATFS/ff.c:4074
{
    5694:	1101                	addi	sp,sp,-32
E:\Works\NSCAM\obj/../FATFS/ff.c:4081
	res = validate(&fp->obj, &fs);	/* Check validity of the file object */
    5696:	006c                	addi	a1,sp,12
E:\Works\NSCAM\obj/../FATFS/ff.c:4074
{
    5698:	ca26                	sw	s1,20(sp)
    569a:	ce06                	sw	ra,28(sp)
    569c:	cc22                	sw	s0,24(sp)
    569e:	84aa                	mv	s1,a0
E:\Works\NSCAM\obj/../FATFS/ff.c:4081
	res = validate(&fp->obj, &fs);	/* Check validity of the file object */
    56a0:	af1fe0ef          	jal	ra,4190 <validate>
    56a4:	87aa                	mv	a5,a0
E:\Works\NSCAM\obj/../FATFS/ff.c:4082
	if (res == FR_OK) {
    56a6:	e945                	bnez	a0,5756 <f_sync+0xc2>
E:\Works\NSCAM\obj/../FATFS/ff.c:4083
		if (fp->flag & FA_MODIFIED) {	/* Is there any change to the file? */
    56a8:	0104c703          	lbu	a4,16(s1)
    56ac:	04077693          	andi	a3,a4,64
    56b0:	c2dd                	beqz	a3,5756 <f_sync+0xc2>
E:\Works\NSCAM\obj/../FATFS/ff.c:4085
			if (fp->flag & FA_DIRTY) {	/* Write-back cached data if needed */
    56b2:	0762                	slli	a4,a4,0x18
    56b4:	8761                	srai	a4,a4,0x18
    56b6:	02075363          	bgez	a4,56dc <f_sync+0x48>
E:\Works\NSCAM\obj/../FATFS/ff.c:4086
				if (disk_write(fs->pdrv, fp->buf, fp->sect, 1) != RES_OK) LEAVE_FF(fs, FR_DISK_ERR);
    56ba:	47b2                	lw	a5,12(sp)
    56bc:	4cd0                	lw	a2,28(s1)
    56be:	4685                	li	a3,1
    56c0:	0017c503          	lbu	a0,1(a5)
    56c4:	02848593          	addi	a1,s1,40
    56c8:	a15fe0ef          	jal	ra,40dc <disk_write>
    56cc:	4785                	li	a5,1
    56ce:	e541                	bnez	a0,5756 <f_sync+0xc2>
E:\Works\NSCAM\obj/../FATFS/ff.c:4087
				fp->flag &= (BYTE)~FA_DIRTY;
    56d0:	0104c783          	lbu	a5,16(s1)
    56d4:	07f7f793          	andi	a5,a5,127
    56d8:	00f48823          	sb	a5,16(s1)
E:\Works\NSCAM\obj/../FATFS/ff.c:4124
				res = move_window(fs, fp->dir_sect);
    56dc:	508c                	lw	a1,32(s1)
    56de:	4532                	lw	a0,12(sp)
    56e0:	ba5fe0ef          	jal	ra,4284 <move_window>
    56e4:	87aa                	mv	a5,a0
E:\Works\NSCAM\obj/../FATFS/ff.c:4125
				if (res == FR_OK) {
    56e6:	e925                	bnez	a0,5756 <f_sync+0xc2>
E:\Works\NSCAM\obj/../FATFS/ff.c:4126
					dir = fp->dir_ptr;
    56e8:	50c0                	lw	s0,36(s1)
E:\Works\NSCAM\obj/../FATFS/ff.c:4127
					dir[DIR_Attr] |= AM_ARC;						/* Set archive attribute to indicate that the file has been changed */
    56ea:	00b44783          	lbu	a5,11(s0)
E:\Works\NSCAM\obj/../FATFS/ff.c:4128
					st_clust(fp->obj.fs, dir, fp->obj.sclust);		/* Update file allocation information  */
    56ee:	85a2                	mv	a1,s0
E:\Works\NSCAM\obj/../FATFS/ff.c:4127
					dir[DIR_Attr] |= AM_ARC;						/* Set archive attribute to indicate that the file has been changed */
    56f0:	0207e793          	ori	a5,a5,32
    56f4:	00f405a3          	sb	a5,11(s0)
E:\Works\NSCAM\obj/../FATFS/ff.c:4128
					st_clust(fp->obj.fs, dir, fp->obj.sclust);		/* Update file allocation information  */
    56f8:	4490                	lw	a2,8(s1)
    56fa:	4088                	lw	a0,0(s1)
    56fc:	b05fe0ef          	jal	ra,4200 <st_clust.isra.3>
E:\Works\NSCAM\obj/../FATFS/ff.c:4129
					st_dword(dir + DIR_FileSize, (DWORD)fp->obj.objsize);	/* Update file size */
    5700:	44dc                	lw	a5,12(s1)
E:\Works\NSCAM\obj/../FATFS/ff.c:4132
					fs->wflag = 1;
    5702:	4532                	lw	a0,12(sp)
st_dword():
E:\Works\NSCAM\obj/../FATFS/ff.c:660
	*ptr++ = (BYTE)val; val >>= 8;
    5704:	00040b23          	sb	zero,22(s0)
    5708:	0087d713          	srli	a4,a5,0x8
    570c:	00f40e23          	sb	a5,28(s0)
E:\Works\NSCAM\obj/../FATFS/ff.c:661
	*ptr++ = (BYTE)val; val >>= 8;
    5710:	00e40ea3          	sb	a4,29(s0)
    5714:	0107d713          	srli	a4,a5,0x10
E:\Works\NSCAM\obj/../FATFS/ff.c:662
	*ptr++ = (BYTE)val; val >>= 8;
    5718:	83e1                	srli	a5,a5,0x18
E:\Works\NSCAM\obj/../FATFS/ff.c:663
	*ptr++ = (BYTE)val;
    571a:	00f40fa3          	sb	a5,31(s0)
E:\Works\NSCAM\obj/../FATFS/ff.c:662
	*ptr++ = (BYTE)val; val >>= 8;
    571e:	04a00793          	li	a5,74
    5722:	00f40c23          	sb	a5,24(s0)
E:\Works\NSCAM\obj/../FATFS/ff.c:663
	*ptr++ = (BYTE)val;
    5726:	05300793          	li	a5,83
E:\Works\NSCAM\obj/../FATFS/ff.c:662
	*ptr++ = (BYTE)val; val >>= 8;
    572a:	00e40f23          	sb	a4,30(s0)
E:\Works\NSCAM\obj/../FATFS/ff.c:663
	*ptr++ = (BYTE)val;
    572e:	00f40ca3          	sb	a5,25(s0)
E:\Works\NSCAM\obj/../FATFS/ff.c:661
	*ptr++ = (BYTE)val; val >>= 8;
    5732:	00040ba3          	sb	zero,23(s0)
f_sync():
E:\Works\NSCAM\obj/../FATFS/ff.c:4132
					fs->wflag = 1;
    5736:	4785                	li	a5,1
st_word():
E:\Works\NSCAM\obj/../FATFS/ff.c:654
	*ptr++ = (BYTE)val; val >>= 8;
    5738:	00040923          	sb	zero,18(s0)
E:\Works\NSCAM\obj/../FATFS/ff.c:655
	*ptr++ = (BYTE)val;
    573c:	000409a3          	sb	zero,19(s0)
f_sync():
E:\Works\NSCAM\obj/../FATFS/ff.c:4132
					fs->wflag = 1;
    5740:	00f501a3          	sb	a5,3(a0)
E:\Works\NSCAM\obj/../FATFS/ff.c:4133
					res = sync_fs(fs);					/* Restore it to the directory */
    5744:	fd2ff0ef          	jal	ra,4f16 <sync_fs>
E:\Works\NSCAM\obj/../FATFS/ff.c:4134
					fp->flag &= (BYTE)~FA_MODIFIED;
    5748:	0104c703          	lbu	a4,16(s1)
E:\Works\NSCAM\obj/../FATFS/ff.c:4133
					res = sync_fs(fs);					/* Restore it to the directory */
    574c:	87aa                	mv	a5,a0
E:\Works\NSCAM\obj/../FATFS/ff.c:4134
					fp->flag &= (BYTE)~FA_MODIFIED;
    574e:	fbf77713          	andi	a4,a4,-65
    5752:	00e48823          	sb	a4,16(s1)
E:\Works\NSCAM\obj/../FATFS/ff.c:4141
}
    5756:	40f2                	lw	ra,28(sp)
    5758:	4462                	lw	s0,24(sp)
    575a:	44d2                	lw	s1,20(sp)
    575c:	853e                	mv	a0,a5
    575e:	6105                	addi	sp,sp,32
    5760:	8082                	ret

00005762 <f_close>:
f_close():
E:\Works\NSCAM\obj/../FATFS/ff.c:4155
{
    5762:	1101                	addi	sp,sp,-32
    5764:	cc22                	sw	s0,24(sp)
    5766:	ce06                	sw	ra,28(sp)
    5768:	842a                	mv	s0,a0
E:\Works\NSCAM\obj/../FATFS/ff.c:4160
	res = f_sync(fp);					/* Flush cached data */
    576a:	f2bff0ef          	jal	ra,5694 <f_sync>
E:\Works\NSCAM\obj/../FATFS/ff.c:4161
	if (res == FR_OK)
    576e:	e901                	bnez	a0,577e <f_close+0x1c>
E:\Works\NSCAM\obj/../FATFS/ff.c:4164
		res = validate(&fp->obj, &fs);	/* Lock volume */
    5770:	006c                	addi	a1,sp,12
    5772:	8522                	mv	a0,s0
    5774:	a1dfe0ef          	jal	ra,4190 <validate>
E:\Works\NSCAM\obj/../FATFS/ff.c:4165
		if (res == FR_OK) {
    5778:	e119                	bnez	a0,577e <f_close+0x1c>
E:\Works\NSCAM\obj/../FATFS/ff.c:4170
			fp->obj.fs = 0;	/* Invalidate file object */
    577a:	00042023          	sw	zero,0(s0)
E:\Works\NSCAM\obj/../FATFS/ff.c:4178
}
    577e:	40f2                	lw	ra,28(sp)
    5780:	4462                	lw	s0,24(sp)
    5782:	6105                	addi	sp,sp,32
    5784:	8082                	ret

00005786 <f_printf>:
f_printf():
E:\Works\NSCAM\obj/../FATFS/ff.c:6806
int f_printf (
	FIL* fp,			/* Pointer to the file object */
	const TCHAR* fmt,	/* Pointer to the format string */
	...					/* Optional arguments... */
)
{
    5786:	7155                	addi	sp,sp,-208
    5788:	d522                	sw	s0,168(sp)
    578a:	d326                	sw	s1,164(sp)
    578c:	842a                	mv	s0,a0
    578e:	dd32                	sw	a2,184(sp)
    5790:	84ae                	mv	s1,a1
putc_init():
E:\Works\NSCAM\obj/../FATFS/ff.c:6634
	memset(pb, 0, sizeof (putbuff));
    5792:	04800613          	li	a2,72
    5796:	4581                	li	a1,0
    5798:	1828                	addi	a0,sp,56
f_printf():
E:\Works\NSCAM\obj/../FATFS/ff.c:6806
{
    579a:	cf4e                	sw	s3,156(sp)
    579c:	cd52                	sw	s4,152(sp)
    579e:	cb56                	sw	s5,148(sp)
    57a0:	c95a                	sw	s6,144(sp)
    57a2:	c75e                	sw	s7,140(sp)
    57a4:	c3be                	sw	a5,196(sp)
    57a6:	d706                	sw	ra,172(sp)
    57a8:	d14a                	sw	s2,160(sp)
    57aa:	c562                	sw	s8,136(sp)
    57ac:	c366                	sw	s9,132(sp)
    57ae:	c16a                	sw	s10,128(sp)
    57b0:	df36                	sw	a3,188(sp)
    57b2:	c1ba                	sw	a4,192(sp)
    57b4:	c5c2                	sw	a6,200(sp)
    57b6:	c7c6                	sw	a7,204(sp)
E:\Works\NSCAM\obj/../FATFS/ff.c:6817
	QWORD v;
#else
	DWORD v;
#endif
	TCHAR tc, pad, *tp;
	TCHAR nul = 0;
    57b8:	000107a3          	sb	zero,15(sp)
putc_init():
E:\Works\NSCAM\obj/../FATFS/ff.c:6634
	memset(pb, 0, sizeof (putbuff));
    57bc:	905fa0ef          	jal	ra,c0 <memset>
f_printf():
E:\Works\NSCAM\obj/../FATFS/ff.c:6823
	char d, str[SZ_NUM_BUF];


	putc_init(&pb, fp);

	va_start(arp, fmt);
    57c0:	193c                	addi	a5,sp,184
putc_init():
E:\Works\NSCAM\obj/../FATFS/ff.c:6635
	pb->fp = fp;
    57c2:	da22                	sw	s0,52(sp)
f_printf():
E:\Works\NSCAM\obj/../FATFS/ff.c:6823
	va_start(arp, fmt);
    57c4:	c83e                	sw	a5,16(sp)
E:\Works\NSCAM\obj/../FATFS/ff.c:6828

	for (;;) {
		tc = *fmt++;
		if (tc == 0) break;			/* End of format string */
		if (tc != '%') {			/* Not an escape character (pass-through) */
    57c6:	02500a93          	li	s5,37
E:\Works\NSCAM\obj/../FATFS/ff.c:6834
			putc_bfd(&pb, tc);
			continue;
		}
		f = w = 0; pad = ' '; prec = -1;	/* Initialize parms */
		tc = *fmt++;
		if (tc == '0') {			/* Flag: '0' padded */
    57ca:	03000b13          	li	s6,48
E:\Works\NSCAM\obj/../FATFS/ff.c:6839
			pad = '0'; tc = *fmt++;
		} else if (tc == '-') {		/* Flag: Left aligned */
			f = 2; tc = *fmt++;
		}
		if (tc == '*') {			/* Minimum width from an argument */
    57ce:	02a00993          	li	s3,42
E:\Works\NSCAM\obj/../FATFS/ff.c:6936
		i = 0;
		do {	/* Make an integer number string */
			d = (char)(v % r); v /= r;
			if (d > 9) d += (tc == 'x') ? 0x27 : 0x07;
			str[i++] = d + '0';
		} while (v && i < SZ_NUM_BUF);
    57d2:	02000b93          	li	s7,32
E:\Works\NSCAM\obj/../FATFS/ff.c:6877
			r = 10; break;
    57d6:	4a29                	li	s4,10
E:\Works\NSCAM\obj/../FATFS/ff.c:6826
		tc = *fmt++;
    57d8:	00048583          	lb	a1,0(s1)
E:\Works\NSCAM\obj/../FATFS/ff.c:6827
		if (tc == 0) break;			/* End of format string */
    57dc:	28058163          	beqz	a1,5a5e <f_printf+0x2d8>
E:\Works\NSCAM\obj/../FATFS/ff.c:6826
		tc = *fmt++;
    57e0:	00148413          	addi	s0,s1,1
E:\Works\NSCAM\obj/../FATFS/ff.c:6828
		if (tc != '%') {			/* Not an escape character (pass-through) */
    57e4:	0f559963          	bne	a1,s5,58d6 <f_printf+0x150>
E:\Works\NSCAM\obj/../FATFS/ff.c:6833
		tc = *fmt++;
    57e8:	00148583          	lb	a1,1(s1)
E:\Works\NSCAM\obj/../FATFS/ff.c:6834
		if (tc == '0') {			/* Flag: '0' padded */
    57ec:	05659f63          	bne	a1,s6,584a <f_printf+0xc4>
E:\Works\NSCAM\obj/../FATFS/ff.c:6835
			pad = '0'; tc = *fmt++;
    57f0:	00248583          	lb	a1,2(s1)
    57f4:	00348413          	addi	s0,s1,3
    57f8:	03000d13          	li	s10,48
E:\Works\NSCAM\obj/../FATFS/ff.c:6832
		f = w = 0; pad = ' '; prec = -1;	/* Initialize parms */
    57fc:	4781                	li	a5,0
E:\Works\NSCAM\obj/../FATFS/ff.c:6839
		if (tc == '*') {			/* Minimum width from an argument */
    57fe:	09359663          	bne	a1,s3,588a <f_printf+0x104>
E:\Works\NSCAM\obj/../FATFS/ff.c:6840
			w = va_arg(arp, int);
    5802:	4742                	lw	a4,16(sp)
E:\Works\NSCAM\obj/../FATFS/ff.c:6841
			tc = *fmt++;
    5804:	00040583          	lb	a1,0(s0)
    5808:	0405                	addi	s0,s0,1
E:\Works\NSCAM\obj/../FATFS/ff.c:6840
			w = va_arg(arp, int);
    580a:	00072903          	lw	s2,0(a4)
    580e:	00470693          	addi	a3,a4,4
    5812:	c836                	sw	a3,16(sp)
E:\Works\NSCAM\obj/../FATFS/ff.c:6848
		if (tc == '.') {			/* Precision */
    5814:	02e00713          	li	a4,46
E:\Works\NSCAM\obj/../FATFS/ff.c:6832
		f = w = 0; pad = ' '; prec = -1;	/* Initialize parms */
    5818:	54fd                	li	s1,-1
E:\Works\NSCAM\obj/../FATFS/ff.c:6848
		if (tc == '.') {			/* Precision */
    581a:	08e59363          	bne	a1,a4,58a0 <f_printf+0x11a>
E:\Works\NSCAM\obj/../FATFS/ff.c:6849
			tc = *fmt++;
    581e:	00040583          	lb	a1,0(s0)
E:\Works\NSCAM\obj/../FATFS/ff.c:6850
			if (tc == '*') {		/* Precision from an argument */
    5822:	07358763          	beq	a1,s3,5890 <f_printf+0x10a>
E:\Works\NSCAM\obj/../FATFS/ff.c:6849
			tc = *fmt++;
    5826:	0405                	addi	s0,s0,1
E:\Works\NSCAM\obj/../FATFS/ff.c:6854
				prec = 0;
    5828:	4481                	li	s1,0
E:\Works\NSCAM\obj/../FATFS/ff.c:6855
				while (IsDigit(tc)) {	/* Precision */
    582a:	46a5                	li	a3,9
    582c:	fd058713          	addi	a4,a1,-48
    5830:	0ff77713          	andi	a4,a4,255
    5834:	06e6e663          	bltu	a3,a4,58a0 <f_printf+0x11a>
E:\Works\NSCAM\obj/../FATFS/ff.c:6856
					prec = prec * 10 + tc - '0';
    5838:	034484b3          	mul	s1,s1,s4
E:\Works\NSCAM\obj/../FATFS/ff.c:6857
					tc = *fmt++;
    583c:	0405                	addi	s0,s0,1
E:\Works\NSCAM\obj/../FATFS/ff.c:6856
					prec = prec * 10 + tc - '0';
    583e:	94ae                	add	s1,s1,a1
    5840:	fd048493          	addi	s1,s1,-48
E:\Works\NSCAM\obj/../FATFS/ff.c:6857
					tc = *fmt++;
    5844:	fff40583          	lb	a1,-1(s0)
    5848:	b7d5                	j	582c <f_printf+0xa6>
E:\Works\NSCAM\obj/../FATFS/ff.c:6836
		} else if (tc == '-') {		/* Flag: Left aligned */
    584a:	02d00793          	li	a5,45
    584e:	00f58763          	beq	a1,a5,585c <f_printf+0xd6>
E:\Works\NSCAM\obj/../FATFS/ff.c:6833
		tc = *fmt++;
    5852:	00248413          	addi	s0,s1,2
E:\Works\NSCAM\obj/../FATFS/ff.c:6832
		f = w = 0; pad = ' '; prec = -1;	/* Initialize parms */
    5856:	02000d13          	li	s10,32
    585a:	b74d                	j	57fc <f_printf+0x76>
E:\Works\NSCAM\obj/../FATFS/ff.c:6837
			f = 2; tc = *fmt++;
    585c:	00348413          	addi	s0,s1,3
    5860:	00248583          	lb	a1,2(s1)
E:\Works\NSCAM\obj/../FATFS/ff.c:6832
		f = w = 0; pad = ' '; prec = -1;	/* Initialize parms */
    5864:	02000d13          	li	s10,32
E:\Works\NSCAM\obj/../FATFS/ff.c:6837
			f = 2; tc = *fmt++;
    5868:	4789                	li	a5,2
    586a:	bf51                	j	57fe <f_printf+0x78>
E:\Works\NSCAM\obj/../FATFS/ff.c:6844
				w = w * 10 + tc - '0';
    586c:	03490933          	mul	s2,s2,s4
E:\Works\NSCAM\obj/../FATFS/ff.c:6845
				tc = *fmt++;
    5870:	0405                	addi	s0,s0,1
E:\Works\NSCAM\obj/../FATFS/ff.c:6844
				w = w * 10 + tc - '0';
    5872:	992e                	add	s2,s2,a1
E:\Works\NSCAM\obj/../FATFS/ff.c:6845
				tc = *fmt++;
    5874:	fff40583          	lb	a1,-1(s0)
E:\Works\NSCAM\obj/../FATFS/ff.c:6844
				w = w * 10 + tc - '0';
    5878:	fd090913          	addi	s2,s2,-48
E:\Works\NSCAM\obj/../FATFS/ff.c:6843
			while (IsDigit(tc)) {	/* Minimum width */
    587c:	fd058713          	addi	a4,a1,-48
    5880:	0ff77713          	andi	a4,a4,255
    5884:	fee6f4e3          	bgeu	a3,a4,586c <f_printf+0xe6>
    5888:	b771                	j	5814 <f_printf+0x8e>
E:\Works\NSCAM\obj/../FATFS/ff.c:6832
		f = w = 0; pad = ' '; prec = -1;	/* Initialize parms */
    588a:	4901                	li	s2,0
E:\Works\NSCAM\obj/../FATFS/ff.c:6843
			while (IsDigit(tc)) {	/* Minimum width */
    588c:	46a5                	li	a3,9
    588e:	b7fd                	j	587c <f_printf+0xf6>
E:\Works\NSCAM\obj/../FATFS/ff.c:6851
				prec = va_arg(arp, int);
    5890:	4742                	lw	a4,16(sp)
E:\Works\NSCAM\obj/../FATFS/ff.c:6852
				tc = *fmt++;
    5892:	00140583          	lb	a1,1(s0)
    5896:	0409                	addi	s0,s0,2
E:\Works\NSCAM\obj/../FATFS/ff.c:6851
				prec = va_arg(arp, int);
    5898:	4304                	lw	s1,0(a4)
    589a:	00470693          	addi	a3,a4,4
    589e:	c836                	sw	a3,16(sp)
E:\Works\NSCAM\obj/../FATFS/ff.c:6861
		if (tc == 'l') {			/* Size: long int */
    58a0:	06c00713          	li	a4,108
    58a4:	00e59763          	bne	a1,a4,58b2 <f_printf+0x12c>
E:\Works\NSCAM\obj/../FATFS/ff.c:6862
			f |= 4; tc = *fmt++;
    58a8:	00040583          	lb	a1,0(s0)
    58ac:	0047e793          	ori	a5,a5,4
    58b0:	0405                	addi	s0,s0,1
E:\Works\NSCAM\obj/../FATFS/ff.c:6869
		if (tc == 0) break;			/* End of format string */
    58b2:	1a058663          	beqz	a1,5a5e <f_printf+0x2d8>
E:\Works\NSCAM\obj/../FATFS/ff.c:6870
		switch (tc) {				/* Atgument type is... */
    58b6:	06400713          	li	a4,100
    58ba:	0ee58a63          	beq	a1,a4,59ae <f_printf+0x228>
    58be:	02b74063          	blt	a4,a1,58de <f_printf+0x158>
    58c2:	06200713          	li	a4,98
    58c6:	0ee58063          	beq	a1,a4,59a6 <f_printf+0x220>
    58ca:	06b74063          	blt	a4,a1,592a <f_printf+0x1a4>
    58ce:	05800713          	li	a4,88
    58d2:	0ce58c63          	beq	a1,a4,59aa <f_printf+0x224>
E:\Works\NSCAM\obj/../FATFS/ff.c:6904
			putc_bfd(&pb, tc); continue;
    58d6:	1848                	addi	a0,sp,52
    58d8:	d1fff0ef          	jal	ra,55f6 <putc_bfd>
    58dc:	a869                	j	5976 <f_printf+0x1f0>
    58de:	07300713          	li	a4,115
    58e2:	04e58b63          	beq	a1,a4,5938 <f_printf+0x1b2>
    58e6:	02b74a63          	blt	a4,a1,591a <f_printf+0x194>
    58ea:	06f00713          	li	a4,111
E:\Works\NSCAM\obj/../FATFS/ff.c:6874
			r = 8; break;
    58ee:	46a1                	li	a3,8
    58f0:	fee593e3          	bne	a1,a4,58d6 <f_printf+0x150>
E:\Works\NSCAM\obj/../FATFS/ff.c:6922
		if (f & 4) {	/* long argument? */
    58f4:	4742                	lw	a4,16(sp)
    58f6:	0047f513          	andi	a0,a5,4
    58fa:	00470613          	addi	a2,a4,4
    58fe:	c955                	beqz	a0,59b2 <f_printf+0x22c>
E:\Works\NSCAM\obj/../FATFS/ff.c:6923
			v = (DWORD)va_arg(arp, long);
    5900:	c832                	sw	a2,16(sp)
E:\Works\NSCAM\obj/../FATFS/ff.c:6927
		if (tc == 'd' && (v & 0x80000000)) {	/* Negative value? */
    5902:	06400613          	li	a2,100
E:\Works\NSCAM\obj/../FATFS/ff.c:6923
			v = (DWORD)va_arg(arp, long);
    5906:	4318                	lw	a4,0(a4)
E:\Works\NSCAM\obj/../FATFS/ff.c:6927
		if (tc == 'd' && (v & 0x80000000)) {	/* Negative value? */
    5908:	0ac59b63          	bne	a1,a2,59be <f_printf+0x238>
E:\Works\NSCAM\obj/../FATFS/ff.c:6927 (discriminator 1)
    590c:	0a075963          	bgez	a4,59be <f_printf+0x238>
E:\Works\NSCAM\obj/../FATFS/ff.c:6928
			v = 0 - v; f |= 1;
    5910:	40e00733          	neg	a4,a4
    5914:	0017e793          	ori	a5,a5,1
    5918:	a05d                	j	59be <f_printf+0x238>
    591a:	07500713          	li	a4,117
    591e:	08e58863          	beq	a1,a4,59ae <f_printf+0x228>
    5922:	07800713          	li	a4,120
E:\Works\NSCAM\obj/../FATFS/ff.c:6880
			r = 16; break;
    5926:	46c1                	li	a3,16
    5928:	b7e1                	j	58f0 <f_printf+0x16a>
E:\Works\NSCAM\obj/../FATFS/ff.c:6882
			putc_bfd(&pb, (TCHAR)va_arg(arp, int));
    592a:	47c2                	lw	a5,16(sp)
    592c:	00478713          	addi	a4,a5,4
    5930:	c83a                	sw	a4,16(sp)
    5932:	00078583          	lb	a1,0(a5)
    5936:	b745                	j	58d6 <f_printf+0x150>
E:\Works\NSCAM\obj/../FATFS/ff.c:6885
			tp = va_arg(arp, TCHAR*);	/* Get a pointer argument */
    5938:	4742                	lw	a4,16(sp)
    593a:	00072c83          	lw	s9,0(a4)
    593e:	00470693          	addi	a3,a4,4
    5942:	c836                	sw	a3,16(sp)
E:\Works\NSCAM\obj/../FATFS/ff.c:6886
			if (!tp) tp = &nul;		/* Null ptr generates a null string */
    5944:	000c9463          	bnez	s9,594c <f_printf+0x1c6>
    5948:	00f10c93          	addi	s9,sp,15
E:\Works\NSCAM\obj/../FATFS/ff.c:6887
			for (j = 0; tp[j]; j++) ;	/* j = tcslen(tp) */
    594c:	4c01                	li	s8,0
E:\Works\NSCAM\obj/../FATFS/ff.c:6887 (discriminator 1)
    594e:	018c8733          	add	a4,s9,s8
    5952:	00070703          	lb	a4,0(a4)
    5956:	e315                	bnez	a4,597a <f_printf+0x1f4>
E:\Works\NSCAM\obj/../FATFS/ff.c:6888
			if (prec >= 0 && j > (UINT)prec) j = prec;	/* Limited length of string body */
    5958:	0004c563          	bltz	s1,5962 <f_printf+0x1dc>
    595c:	0184f363          	bgeu	s1,s8,5962 <f_printf+0x1dc>
    5960:	8c26                	mv	s8,s1
E:\Works\NSCAM\obj/../FATFS/ff.c:6889 (discriminator 1)
			for ( ; !(f & 2) && j < w; j++) putc_bfd(&pb, pad);	/* Left pads */
    5962:	8b89                	andi	a5,a5,2
    5964:	c395                	beqz	a5,5988 <f_printf+0x202>
    5966:	94e6                	add	s1,s1,s9
E:\Works\NSCAM\obj/../FATFS/ff.c:6890 (discriminator 1)
			while (*tp && prec--) putc_bfd(&pb, *tp++);	/* Body */
    5968:	000c8583          	lb	a1,0(s9)
    596c:	c199                	beqz	a1,5972 <f_printf+0x1ec>
E:\Works\NSCAM\obj/../FATFS/ff.c:6890 (discriminator 2)
    596e:	03949063          	bne	s1,s9,598e <f_printf+0x208>
E:\Works\NSCAM\obj/../FATFS/ff.c:6891 (discriminator 1)
			while (j++ < w) putc_bfd(&pb, ' ');			/* Right pads */
    5972:	032c6363          	bltu	s8,s2,5998 <f_printf+0x212>
E:\Works\NSCAM\obj/../FATFS/ff.c:6806
{
    5976:	84a2                	mv	s1,s0
    5978:	b585                	j	57d8 <f_printf+0x52>
E:\Works\NSCAM\obj/../FATFS/ff.c:6887 (discriminator 3)
			for (j = 0; tp[j]; j++) ;	/* j = tcslen(tp) */
    597a:	0c05                	addi	s8,s8,1
    597c:	bfc9                	j	594e <f_printf+0x1c8>
E:\Works\NSCAM\obj/../FATFS/ff.c:6889 (discriminator 3)
			for ( ; !(f & 2) && j < w; j++) putc_bfd(&pb, pad);	/* Left pads */
    597e:	85ea                	mv	a1,s10
    5980:	1848                	addi	a0,sp,52
    5982:	c75ff0ef          	jal	ra,55f6 <putc_bfd>
    5986:	0c05                	addi	s8,s8,1
E:\Works\NSCAM\obj/../FATFS/ff.c:6889 (discriminator 2)
    5988:	ff2c6be3          	bltu	s8,s2,597e <f_printf+0x1f8>
    598c:	bfe9                	j	5966 <f_printf+0x1e0>
E:\Works\NSCAM\obj/../FATFS/ff.c:6890 (discriminator 3)
			while (*tp && prec--) putc_bfd(&pb, *tp++);	/* Body */
    598e:	1848                	addi	a0,sp,52
    5990:	0c85                	addi	s9,s9,1
    5992:	c65ff0ef          	jal	ra,55f6 <putc_bfd>
    5996:	bfc9                	j	5968 <f_printf+0x1e2>
E:\Works\NSCAM\obj/../FATFS/ff.c:6891 (discriminator 2)
			while (j++ < w) putc_bfd(&pb, ' ');			/* Right pads */
    5998:	02000593          	li	a1,32
    599c:	1848                	addi	a0,sp,52
    599e:	c59ff0ef          	jal	ra,55f6 <putc_bfd>
    59a2:	0c05                	addi	s8,s8,1
    59a4:	b7f9                	j	5972 <f_printf+0x1ec>
E:\Works\NSCAM\obj/../FATFS/ff.c:6872
			r = 2; break;
    59a6:	4689                	li	a3,2
    59a8:	b7b1                	j	58f4 <f_printf+0x16e>
E:\Works\NSCAM\obj/../FATFS/ff.c:6880
			r = 16; break;
    59aa:	46c1                	li	a3,16
    59ac:	b7a1                	j	58f4 <f_printf+0x16e>
E:\Works\NSCAM\obj/../FATFS/ff.c:6877
			r = 10; break;
    59ae:	46a9                	li	a3,10
    59b0:	b791                	j	58f4 <f_printf+0x16e>
E:\Works\NSCAM\obj/../FATFS/ff.c:6925
			v = (tc == 'd') ? (DWORD)(long)va_arg(arp, int) : (DWORD)va_arg(arp, unsigned int);
    59b2:	06400513          	li	a0,100
    59b6:	c832                	sw	a2,16(sp)
    59b8:	4318                	lw	a4,0(a4)
    59ba:	f4a589e3          	beq	a1,a0,590c <f_printf+0x186>
E:\Works\NSCAM\obj/../FATFS/ff.c:6931
		i = 0;
    59be:	07800513          	li	a0,120
    59c2:	461d                	li	a2,7
    59c4:	00a59463          	bne	a1,a0,59cc <f_printf+0x246>
    59c8:	02700613          	li	a2,39
    59cc:	084c                	addi	a1,sp,20
    59ce:	0ff67513          	andi	a0,a2,255
    59d2:	8c2e                	mv	s8,a1
    59d4:	4601                	li	a2,0
E:\Works\NSCAM\obj/../FATFS/ff.c:6934
			if (d > 9) d += (tc == 'x') ? 0x27 : 0x07;
    59d6:	4e25                	li	t3,9
E:\Works\NSCAM\obj/../FATFS/ff.c:6933
			d = (char)(v % r); v /= r;
    59d8:	02d778b3          	remu	a7,a4,a3
    59dc:	02d75333          	divu	t1,a4,a3
E:\Works\NSCAM\obj/../FATFS/ff.c:6934
			if (d > 9) d += (tc == 'x') ? 0x27 : 0x07;
    59e0:	01150833          	add	a6,a0,a7
    59e4:	011e6663          	bltu	t3,a7,59f0 <f_printf+0x26a>
E:\Works\NSCAM\obj/../FATFS/ff.c:6933
			d = (char)(v % r); v /= r;
    59e8:	01889813          	slli	a6,a7,0x18
    59ec:	41885813          	srai	a6,a6,0x18
E:\Works\NSCAM\obj/../FATFS/ff.c:6935
			str[i++] = d + '0';
    59f0:	03080813          	addi	a6,a6,48
    59f4:	01058023          	sb	a6,0(a1)
    59f8:	00160493          	addi	s1,a2,1 # 10001 <_data_lma+0x722d>
E:\Works\NSCAM\obj/../FATFS/ff.c:6936
		} while (v && i < SZ_NUM_BUF);
    59fc:	00d76763          	bltu	a4,a3,5a0a <f_printf+0x284>
    5a00:	0585                	addi	a1,a1,1
E:\Works\NSCAM\obj/../FATFS/ff.c:6933 (discriminator 1)
			d = (char)(v % r); v /= r;
    5a02:	871a                	mv	a4,t1
E:\Works\NSCAM\obj/../FATFS/ff.c:6936 (discriminator 1)
		} while (v && i < SZ_NUM_BUF);
    5a04:	05749363          	bne	s1,s7,5a4a <f_printf+0x2c4>
    5a08:	467d                	li	a2,31
E:\Works\NSCAM\obj/../FATFS/ff.c:6937
		if (f & 1) str[i++] = '-';	/* Sign */
    5a0a:	0017f713          	andi	a4,a5,1
    5a0e:	cb09                	beqz	a4,5a20 <f_printf+0x29a>
E:\Works\NSCAM\obj/../FATFS/ff.c:6937 (discriminator 1)
    5a10:	0118                	addi	a4,sp,128
    5a12:	94ba                	add	s1,s1,a4
    5a14:	02d00713          	li	a4,45
    5a18:	f8e48a23          	sb	a4,-108(s1)
    5a1c:	00260493          	addi	s1,a2,2
E:\Works\NSCAM\obj/../FATFS/ff.c:6939
		/* Write it */
		for (j = i; !(f & 2) && j < w; j++) putc_bfd(&pb, pad);	/* Left pads */
    5a20:	8b89                	andi	a5,a5,2
    5a22:	8ca6                	mv	s9,s1
    5a24:	cb95                	beqz	a5,5a58 <f_printf+0x2d2>
E:\Works\NSCAM\obj/../FATFS/ff.c:6940 (discriminator 1)
		do putc_bfd(&pb, (TCHAR)str[--i]); while (i);	/* Body */
    5a26:	14fd                	addi	s1,s1,-1
    5a28:	009c07b3          	add	a5,s8,s1
    5a2c:	00078583          	lb	a1,0(a5)
    5a30:	1848                	addi	a0,sp,52
    5a32:	bc5ff0ef          	jal	ra,55f6 <putc_bfd>
    5a36:	f8e5                	bnez	s1,5a26 <f_printf+0x2a0>
E:\Works\NSCAM\obj/../FATFS/ff.c:6941 (discriminator 1)
		while (j++ < w) putc_bfd(&pb, ' ');		/* Right pads */
    5a38:	f32cffe3          	bgeu	s9,s2,5976 <f_printf+0x1f0>
E:\Works\NSCAM\obj/../FATFS/ff.c:6941 (discriminator 2)
    5a3c:	02000593          	li	a1,32
    5a40:	1848                	addi	a0,sp,52
    5a42:	bb5ff0ef          	jal	ra,55f6 <putc_bfd>
    5a46:	0c85                	addi	s9,s9,1
    5a48:	bfc5                	j	5a38 <f_printf+0x2b2>
    5a4a:	8626                	mv	a2,s1
    5a4c:	b771                	j	59d8 <f_printf+0x252>
E:\Works\NSCAM\obj/../FATFS/ff.c:6939 (discriminator 4)
		for (j = i; !(f & 2) && j < w; j++) putc_bfd(&pb, pad);	/* Left pads */
    5a4e:	85ea                	mv	a1,s10
    5a50:	1848                	addi	a0,sp,52
    5a52:	ba5ff0ef          	jal	ra,55f6 <putc_bfd>
    5a56:	0c85                	addi	s9,s9,1
E:\Works\NSCAM\obj/../FATFS/ff.c:6939 (discriminator 3)
    5a58:	ff2cebe3          	bltu	s9,s2,5a4e <f_printf+0x2c8>
    5a5c:	b7e9                	j	5a26 <f_printf+0x2a0>
E:\Works\NSCAM\obj/../FATFS/ff.c:6946
	}

	va_end(arp);

	return putc_flush(&pb);
    5a5e:	1848                	addi	a0,sp,52
    5a60:	bffff0ef          	jal	ra,565e <putc_flush>
E:\Works\NSCAM\obj/../FATFS/ff.c:6947
}
    5a64:	50ba                	lw	ra,172(sp)
    5a66:	542a                	lw	s0,168(sp)
    5a68:	549a                	lw	s1,164(sp)
    5a6a:	590a                	lw	s2,160(sp)
    5a6c:	49fa                	lw	s3,156(sp)
    5a6e:	4a6a                	lw	s4,152(sp)
    5a70:	4ada                	lw	s5,148(sp)
    5a72:	4b4a                	lw	s6,144(sp)
    5a74:	4bba                	lw	s7,140(sp)
    5a76:	4c2a                	lw	s8,136(sp)
    5a78:	4c9a                	lw	s9,132(sp)
    5a7a:	4d0a                	lw	s10,128(sp)
    5a7c:	6169                	addi	sp,sp,208
    5a7e:	8082                	ret

00005a80 <__addsf3>:
__addsf3():
    5a80:	1141                	addi	sp,sp,-16
    5a82:	00800737          	lui	a4,0x800
    5a86:	177d                	addi	a4,a4,-1
    5a88:	0175d813          	srli	a6,a1,0x17
    5a8c:	c226                	sw	s1,4(sp)
    5a8e:	01755493          	srli	s1,a0,0x17
    5a92:	00a77333          	and	t1,a4,a0
    5a96:	0ff4f493          	andi	s1,s1,255
    5a9a:	00b776b3          	and	a3,a4,a1
    5a9e:	c04a                	sw	s2,0(sp)
    5aa0:	0ff87813          	andi	a6,a6,255
    5aa4:	01f55913          	srli	s2,a0,0x1f
    5aa8:	c606                	sw	ra,12(sp)
    5aaa:	c422                	sw	s0,8(sp)
    5aac:	81fd                	srli	a1,a1,0x1f
    5aae:	879a                	mv	a5,t1
    5ab0:	8526                	mv	a0,s1
    5ab2:	864a                	mv	a2,s2
    5ab4:	00331e13          	slli	t3,t1,0x3
    5ab8:	00369e93          	slli	t4,a3,0x3
    5abc:	410488b3          	sub	a7,s1,a6
    5ac0:	0eb90a63          	beq	s2,a1,5bb4 <__addsf3+0x134>
    5ac4:	0d105063          	blez	a7,5b84 <__addsf3+0x104>
    5ac8:	14080463          	beqz	a6,5c10 <__addsf3+0x190>
    5acc:	0ff00793          	li	a5,255
    5ad0:	14f48b63          	beq	s1,a5,5c26 <__addsf3+0x1a6>
    5ad4:	040007b7          	lui	a5,0x4000
    5ad8:	00feeeb3          	or	t4,t4,a5
    5adc:	47ed                	li	a5,27
    5ade:	2917c163          	blt	a5,a7,5d60 <__addsf3+0x2e0>
    5ae2:	02000793          	li	a5,32
    5ae6:	411787b3          	sub	a5,a5,a7
    5aea:	00fe97b3          	sll	a5,t4,a5
    5aee:	011ed8b3          	srl	a7,t4,a7
    5af2:	00f037b3          	snez	a5,a5
    5af6:	00f8e7b3          	or	a5,a7,a5
    5afa:	40fe07b3          	sub	a5,t3,a5
    5afe:	00579713          	slli	a4,a5,0x5
    5b02:	18075e63          	bgez	a4,5c9e <__addsf3+0x21e>
    5b06:	04000437          	lui	s0,0x4000
    5b0a:	147d                	addi	s0,s0,-1
    5b0c:	8c7d                	and	s0,s0,a5
    5b0e:	8522                	mv	a0,s0
    5b10:	75f000ef          	jal	ra,6a6e <__clzsi2>
    5b14:	156d                	addi	a0,a0,-5
    5b16:	00a417b3          	sll	a5,s0,a0
    5b1a:	1a954863          	blt	a0,s1,5cca <__addsf3+0x24a>
    5b1e:	8d05                	sub	a0,a0,s1
    5b20:	00150413          	addi	s0,a0,1
    5b24:	02000713          	li	a4,32
    5b28:	8f01                	sub	a4,a4,s0
    5b2a:	00e79733          	sll	a4,a5,a4
    5b2e:	00e03733          	snez	a4,a4
    5b32:	0087d7b3          	srl	a5,a5,s0
    5b36:	8fd9                	or	a5,a5,a4
    5b38:	4481                	li	s1,0
    5b3a:	0077f713          	andi	a4,a5,7
    5b3e:	c719                	beqz	a4,5b4c <__addsf3+0xcc>
    5b40:	00f7f713          	andi	a4,a5,15
    5b44:	4691                	li	a3,4
    5b46:	00d70363          	beq	a4,a3,5b4c <__addsf3+0xcc>
    5b4a:	0791                	addi	a5,a5,4
    5b4c:	00579713          	slli	a4,a5,0x5
    5b50:	14075b63          	bgez	a4,5ca6 <__addsf3+0x226>
    5b54:	0485                	addi	s1,s1,1
    5b56:	0ff00713          	li	a4,255
    5b5a:	864a                	mv	a2,s2
    5b5c:	16e48363          	beq	s1,a4,5cc2 <__addsf3+0x242>
    5b60:	079a                	slli	a5,a5,0x6
    5b62:	83a5                	srli	a5,a5,0x9
    5b64:	0ff4f513          	andi	a0,s1,255
    5b68:	40b2                	lw	ra,12(sp)
    5b6a:	4422                	lw	s0,8(sp)
    5b6c:	07a6                	slli	a5,a5,0x9
    5b6e:	01751493          	slli	s1,a0,0x17
    5b72:	0097d513          	srli	a0,a5,0x9
    5b76:	8d45                	or	a0,a0,s1
    5b78:	067e                	slli	a2,a2,0x1f
    5b7a:	4492                	lw	s1,4(sp)
    5b7c:	4902                	lw	s2,0(sp)
    5b7e:	8d51                	or	a0,a0,a2
    5b80:	0141                	addi	sp,sp,16
    5b82:	8082                	ret
    5b84:	0a089963          	bnez	a7,5c36 <__addsf3+0x1b6>
    5b88:	00148713          	addi	a4,s1,1
    5b8c:	0fe77713          	andi	a4,a4,254
    5b90:	14071763          	bnez	a4,5cde <__addsf3+0x25e>
    5b94:	22049063          	bnez	s1,5db4 <__addsf3+0x334>
    5b98:	1e0e0d63          	beqz	t3,5d92 <__addsf3+0x312>
    5b9c:	fc0e86e3          	beqz	t4,5b68 <__addsf3+0xe8>
    5ba0:	41de07b3          	sub	a5,t3,t4
    5ba4:	00579713          	slli	a4,a5,0x5
    5ba8:	22075063          	bgez	a4,5dc8 <__addsf3+0x348>
    5bac:	41ce87b3          	sub	a5,t4,t3
    5bb0:	892e                	mv	s2,a1
    5bb2:	b761                	j	5b3a <__addsf3+0xba>
    5bb4:	0b105c63          	blez	a7,5c6c <__addsf3+0x1ec>
    5bb8:	08080e63          	beqz	a6,5c54 <__addsf3+0x1d4>
    5bbc:	0ff00793          	li	a5,255
    5bc0:	06f48363          	beq	s1,a5,5c26 <__addsf3+0x1a6>
    5bc4:	040007b7          	lui	a5,0x4000
    5bc8:	00feeeb3          	or	t4,t4,a5
    5bcc:	47ed                	li	a5,27
    5bce:	1f17c963          	blt	a5,a7,5dc0 <__addsf3+0x340>
    5bd2:	02000793          	li	a5,32
    5bd6:	411787b3          	sub	a5,a5,a7
    5bda:	00fe97b3          	sll	a5,t4,a5
    5bde:	011ed8b3          	srl	a7,t4,a7
    5be2:	00f037b3          	snez	a5,a5
    5be6:	00f8e7b3          	or	a5,a7,a5
    5bea:	97f2                	add	a5,a5,t3
    5bec:	00579713          	slli	a4,a5,0x5
    5bf0:	0a075763          	bgez	a4,5c9e <__addsf3+0x21e>
    5bf4:	0485                	addi	s1,s1,1
    5bf6:	0ff00713          	li	a4,255
    5bfa:	0ce48463          	beq	s1,a4,5cc2 <__addsf3+0x242>
    5bfe:	7e0006b7          	lui	a3,0x7e000
    5c02:	0017d713          	srli	a4,a5,0x1
    5c06:	16fd                	addi	a3,a3,-1
    5c08:	8b85                	andi	a5,a5,1
    5c0a:	8f75                	and	a4,a4,a3
    5c0c:	8fd9                	or	a5,a5,a4
    5c0e:	b735                	j	5b3a <__addsf3+0xba>
    5c10:	080e8d63          	beqz	t4,5caa <__addsf3+0x22a>
    5c14:	18fd                	addi	a7,a7,-1
    5c16:	41de07b3          	sub	a5,t3,t4
    5c1a:	ee0882e3          	beqz	a7,5afe <__addsf3+0x7e>
    5c1e:	0ff00793          	li	a5,255
    5c22:	eaf49de3          	bne	s1,a5,5adc <__addsf3+0x5c>
    5c26:	08030d63          	beqz	t1,5cc0 <__addsf3+0x240>
    5c2a:	4601                	li	a2,0
    5c2c:	0ff00513          	li	a0,255
    5c30:	004007b7          	lui	a5,0x400
    5c34:	bf15                	j	5b68 <__addsf3+0xe8>
    5c36:	40980733          	sub	a4,a6,s1
    5c3a:	e8ed                	bnez	s1,5d2c <__addsf3+0x2ac>
    5c3c:	140e0263          	beqz	t3,5d80 <__addsf3+0x300>
    5c40:	177d                	addi	a4,a4,-1
    5c42:	18070863          	beqz	a4,5dd2 <__addsf3+0x352>
    5c46:	0ff00793          	li	a5,255
    5c4a:	0ef81963          	bne	a6,a5,5d3c <__addsf3+0x2bc>
    5c4e:	892e                	mv	s2,a1
    5c50:	8336                	mv	t1,a3
    5c52:	bfd1                	j	5c26 <__addsf3+0x1a6>
    5c54:	040e8b63          	beqz	t4,5caa <__addsf3+0x22a>
    5c58:	18fd                	addi	a7,a7,-1
    5c5a:	01de07b3          	add	a5,t3,t4
    5c5e:	f80887e3          	beqz	a7,5bec <__addsf3+0x16c>
    5c62:	0ff00793          	li	a5,255
    5c66:	f6f493e3          	bne	s1,a5,5bcc <__addsf3+0x14c>
    5c6a:	bf75                	j	5c26 <__addsf3+0x1a6>
    5c6c:	08089563          	bnez	a7,5cf6 <__addsf3+0x276>
    5c70:	0485                	addi	s1,s1,1
    5c72:	0fe4f713          	andi	a4,s1,254
    5c76:	12071363          	bnez	a4,5d9c <__addsf3+0x31c>
    5c7a:	10051763          	bnez	a0,5d88 <__addsf3+0x308>
    5c7e:	140e0f63          	beqz	t3,5ddc <__addsf3+0x35c>
    5c82:	ee0e83e3          	beqz	t4,5b68 <__addsf3+0xe8>
    5c86:	01de07b3          	add	a5,t3,t4
    5c8a:	00579713          	slli	a4,a5,0x5
    5c8e:	4481                	li	s1,0
    5c90:	00075763          	bgez	a4,5c9e <__addsf3+0x21e>
    5c94:	fc000737          	lui	a4,0xfc000
    5c98:	177d                	addi	a4,a4,-1
    5c9a:	8ff9                	and	a5,a5,a4
    5c9c:	4485                	li	s1,1
    5c9e:	0077f713          	andi	a4,a5,7
    5ca2:	e8071fe3          	bnez	a4,5b40 <__addsf3+0xc0>
    5ca6:	0037d313          	srli	t1,a5,0x3
    5caa:	0ff00793          	li	a5,255
    5cae:	f6f48ce3          	beq	s1,a5,5c26 <__addsf3+0x1a6>
    5cb2:	00931793          	slli	a5,t1,0x9
    5cb6:	83a5                	srli	a5,a5,0x9
    5cb8:	0ff4f513          	andi	a0,s1,255
    5cbc:	864a                	mv	a2,s2
    5cbe:	b56d                	j	5b68 <__addsf3+0xe8>
    5cc0:	864a                	mv	a2,s2
    5cc2:	0ff00513          	li	a0,255
    5cc6:	4781                	li	a5,0
    5cc8:	b545                	j	5b68 <__addsf3+0xe8>
    5cca:	fc000737          	lui	a4,0xfc000
    5cce:	177d                	addi	a4,a4,-1
    5cd0:	8ff9                	and	a5,a5,a4
    5cd2:	0077f713          	andi	a4,a5,7
    5cd6:	8c89                	sub	s1,s1,a0
    5cd8:	e60714e3          	bnez	a4,5b40 <__addsf3+0xc0>
    5cdc:	b7e9                	j	5ca6 <__addsf3+0x226>
    5cde:	41de0433          	sub	s0,t3,t4
    5ce2:	00541793          	slli	a5,s0,0x5
    5ce6:	0c07c363          	bltz	a5,5dac <__addsf3+0x32c>
    5cea:	e20412e3          	bnez	s0,5b0e <__addsf3+0x8e>
    5cee:	4601                	li	a2,0
    5cf0:	4501                	li	a0,0
    5cf2:	4781                	li	a5,0
    5cf4:	bd95                	j	5b68 <__addsf3+0xe8>
    5cf6:	40980733          	sub	a4,a6,s1
    5cfa:	c4ad                	beqz	s1,5d64 <__addsf3+0x2e4>
    5cfc:	0ff00793          	li	a5,255
    5d00:	f4f808e3          	beq	a6,a5,5c50 <__addsf3+0x1d0>
    5d04:	040007b7          	lui	a5,0x4000
    5d08:	00fe6e33          	or	t3,t3,a5
    5d0c:	47ed                	li	a5,27
    5d0e:	0ce7cc63          	blt	a5,a4,5de6 <__addsf3+0x366>
    5d12:	02000793          	li	a5,32
    5d16:	8f99                	sub	a5,a5,a4
    5d18:	00fe17b3          	sll	a5,t3,a5
    5d1c:	00ee5733          	srl	a4,t3,a4
    5d20:	00f037b3          	snez	a5,a5
    5d24:	8fd9                	or	a5,a5,a4
    5d26:	97f6                	add	a5,a5,t4
    5d28:	84c2                	mv	s1,a6
    5d2a:	b5c9                	j	5bec <__addsf3+0x16c>
    5d2c:	0ff00793          	li	a5,255
    5d30:	f0f80fe3          	beq	a6,a5,5c4e <__addsf3+0x1ce>
    5d34:	040007b7          	lui	a5,0x4000
    5d38:	00fe6e33          	or	t3,t3,a5
    5d3c:	47ed                	li	a5,27
    5d3e:	08e7c363          	blt	a5,a4,5dc4 <__addsf3+0x344>
    5d42:	02000693          	li	a3,32
    5d46:	8e99                	sub	a3,a3,a4
    5d48:	00de16b3          	sll	a3,t3,a3
    5d4c:	00ee57b3          	srl	a5,t3,a4
    5d50:	00d03733          	snez	a4,a3
    5d54:	8fd9                	or	a5,a5,a4
    5d56:	40fe87b3          	sub	a5,t4,a5
    5d5a:	84c2                	mv	s1,a6
    5d5c:	892e                	mv	s2,a1
    5d5e:	b345                	j	5afe <__addsf3+0x7e>
    5d60:	4785                	li	a5,1
    5d62:	bb61                	j	5afa <__addsf3+0x7a>
    5d64:	060e0e63          	beqz	t3,5de0 <__addsf3+0x360>
    5d68:	177d                	addi	a4,a4,-1
    5d6a:	01de07b3          	add	a5,t3,t4
    5d6e:	84c2                	mv	s1,a6
    5d70:	e6070ee3          	beqz	a4,5bec <__addsf3+0x16c>
    5d74:	0ff00793          	li	a5,255
    5d78:	f8f81ae3          	bne	a6,a5,5d0c <__addsf3+0x28c>
    5d7c:	8336                	mv	t1,a3
    5d7e:	b565                	j	5c26 <__addsf3+0x1a6>
    5d80:	8336                	mv	t1,a3
    5d82:	84c2                	mv	s1,a6
    5d84:	892e                	mv	s2,a1
    5d86:	b715                	j	5caa <__addsf3+0x22a>
    5d88:	ec0e04e3          	beqz	t3,5c50 <__addsf3+0x1d0>
    5d8c:	e80e8de3          	beqz	t4,5c26 <__addsf3+0x1a6>
    5d90:	bd69                	j	5c2a <__addsf3+0x1aa>
    5d92:	020e8d63          	beqz	t4,5dcc <__addsf3+0x34c>
    5d96:	862e                	mv	a2,a1
    5d98:	87b6                	mv	a5,a3
    5d9a:	b3f9                	j	5b68 <__addsf3+0xe8>
    5d9c:	0ff00793          	li	a5,255
    5da0:	f2f481e3          	beq	s1,a5,5cc2 <__addsf3+0x242>
    5da4:	01de07b3          	add	a5,t3,t4
    5da8:	8385                	srli	a5,a5,0x1
    5daa:	bdd5                	j	5c9e <__addsf3+0x21e>
    5dac:	41ce8433          	sub	s0,t4,t3
    5db0:	892e                	mv	s2,a1
    5db2:	bbb1                	j	5b0e <__addsf3+0x8e>
    5db4:	fc0e1ce3          	bnez	t3,5d8c <__addsf3+0x30c>
    5db8:	e60e89e3          	beqz	t4,5c2a <__addsf3+0x1aa>
    5dbc:	892e                	mv	s2,a1
    5dbe:	bd49                	j	5c50 <__addsf3+0x1d0>
    5dc0:	4785                	li	a5,1
    5dc2:	b525                	j	5bea <__addsf3+0x16a>
    5dc4:	4785                	li	a5,1
    5dc6:	bf41                	j	5d56 <__addsf3+0x2d6>
    5dc8:	ec079be3          	bnez	a5,5c9e <__addsf3+0x21e>
    5dcc:	4601                	li	a2,0
    5dce:	4781                	li	a5,0
    5dd0:	bb61                	j	5b68 <__addsf3+0xe8>
    5dd2:	41ce87b3          	sub	a5,t4,t3
    5dd6:	84c2                	mv	s1,a6
    5dd8:	892e                	mv	s2,a1
    5dda:	b315                	j	5afe <__addsf3+0x7e>
    5ddc:	87b6                	mv	a5,a3
    5dde:	b369                	j	5b68 <__addsf3+0xe8>
    5de0:	8336                	mv	t1,a3
    5de2:	84c2                	mv	s1,a6
    5de4:	b5d9                	j	5caa <__addsf3+0x22a>
    5de6:	4785                	li	a5,1
    5de8:	bf3d                	j	5d26 <__addsf3+0x2a6>

00005dea <__divsf3>:
__divsf3():
    5dea:	7139                	addi	sp,sp,-64
    5dec:	01755793          	srli	a5,a0,0x17
    5df0:	d84a                	sw	s2,48(sp)
    5df2:	d256                	sw	s5,36(sp)
    5df4:	ce5e                	sw	s7,28(sp)
    5df6:	00951a93          	slli	s5,a0,0x9
    5dfa:	01f55913          	srli	s2,a0,0x1f
    5dfe:	de06                	sw	ra,60(sp)
    5e00:	dc22                	sw	s0,56(sp)
    5e02:	da26                	sw	s1,52(sp)
    5e04:	d64e                	sw	s3,44(sp)
    5e06:	d452                	sw	s4,40(sp)
    5e08:	d05a                	sw	s6,32(sp)
    5e0a:	0ff7f793          	andi	a5,a5,255
    5e0e:	009ada93          	srli	s5,s5,0x9
    5e12:	8bca                	mv	s7,s2
    5e14:	12078263          	beqz	a5,5f38 <__divsf3+0x14e>
    5e18:	0ff00713          	li	a4,255
    5e1c:	12e78463          	beq	a5,a4,5f44 <__divsf3+0x15a>
    5e20:	0a8e                	slli	s5,s5,0x3
    5e22:	04000737          	lui	a4,0x4000
    5e26:	00eaeab3          	or	s5,s5,a4
    5e2a:	f8178a13          	addi	s4,a5,-127 # 3ffff81 <_data_lma+0x3ff71ad>
    5e2e:	4401                	li	s0,0
    5e30:	4b01                	li	s6,0
    5e32:	0175d793          	srli	a5,a1,0x17
    5e36:	00959493          	slli	s1,a1,0x9
    5e3a:	0ff7f793          	andi	a5,a5,255
    5e3e:	80a5                	srli	s1,s1,0x9
    5e40:	01f5d993          	srli	s3,a1,0x1f
    5e44:	c7fd                	beqz	a5,5f32 <__divsf3+0x148>
    5e46:	0ff00713          	li	a4,255
    5e4a:	02e78763          	beq	a5,a4,5e78 <__divsf3+0x8e>
    5e4e:	048e                	slli	s1,s1,0x3
    5e50:	f8178793          	addi	a5,a5,-127
    5e54:	04000737          	lui	a4,0x4000
    5e58:	8cd9                	or	s1,s1,a4
    5e5a:	40fa0a33          	sub	s4,s4,a5
    5e5e:	4681                	li	a3,0
    5e60:	8c55                	or	s0,s0,a3
    5e62:	00003717          	auipc	a4,0x3
    5e66:	d7670713          	addi	a4,a4,-650 # 8bd8 <ExCvt+0x9c>
    5e6a:	040a                	slli	s0,s0,0x2
    5e6c:	943a                	add	s0,s0,a4
    5e6e:	401c                	lw	a5,0(s0)
    5e70:	01394933          	xor	s2,s2,s3
    5e74:	97ba                	add	a5,a5,a4
    5e76:	8782                	jr	a5
    5e78:	f01a0a13          	addi	s4,s4,-255
    5e7c:	e8f9                	bnez	s1,5f52 <__divsf3+0x168>
    5e7e:	4689                	li	a3,2
    5e80:	8c55                	or	s0,s0,a3
    5e82:	00003717          	auipc	a4,0x3
    5e86:	d9670713          	addi	a4,a4,-618 # 8c18 <ExCvt+0xdc>
    5e8a:	040a                	slli	s0,s0,0x2
    5e8c:	943a                	add	s0,s0,a4
    5e8e:	401c                	lw	a5,0(s0)
    5e90:	01394933          	xor	s2,s2,s3
    5e94:	97ba                	add	a5,a5,a4
    5e96:	8782                	jr	a5
    5e98:	4901                	li	s2,0
    5e9a:	0ff00713          	li	a4,255
    5e9e:	004007b7          	lui	a5,0x400
    5ea2:	00979513          	slli	a0,a5,0x9
    5ea6:	50f2                	lw	ra,60(sp)
    5ea8:	5462                	lw	s0,56(sp)
    5eaa:	01771793          	slli	a5,a4,0x17
    5eae:	8125                	srli	a0,a0,0x9
    5eb0:	097e                	slli	s2,s2,0x1f
    5eb2:	8d5d                	or	a0,a0,a5
    5eb4:	01256533          	or	a0,a0,s2
    5eb8:	54d2                	lw	s1,52(sp)
    5eba:	5942                	lw	s2,48(sp)
    5ebc:	59b2                	lw	s3,44(sp)
    5ebe:	5a22                	lw	s4,40(sp)
    5ec0:	5a92                	lw	s5,36(sp)
    5ec2:	5b02                	lw	s6,32(sp)
    5ec4:	4bf2                	lw	s7,28(sp)
    5ec6:	6121                	addi	sp,sp,64
    5ec8:	8082                	ret
    5eca:	0ff00713          	li	a4,255
    5ece:	4781                	li	a5,0
    5ed0:	bfc9                	j	5ea2 <__divsf3+0xb8>
    5ed2:	8aa6                	mv	s5,s1
    5ed4:	8bce                	mv	s7,s3
    5ed6:	8b36                	mv	s6,a3
    5ed8:	4789                	li	a5,2
    5eda:	1afb0b63          	beq	s6,a5,6090 <__divsf3+0x2a6>
    5ede:	478d                	li	a5,3
    5ee0:	fafb0ce3          	beq	s6,a5,5e98 <__divsf3+0xae>
    5ee4:	4785                	li	a5,1
    5ee6:	0afb0a63          	beq	s6,a5,5f9a <__divsf3+0x1b0>
    5eea:	07fa0713          	addi	a4,s4,127
    5eee:	001bf913          	andi	s2,s7,1
    5ef2:	12e05763          	blez	a4,6020 <__divsf3+0x236>
    5ef6:	007af793          	andi	a5,s5,7
    5efa:	c799                	beqz	a5,5f08 <__divsf3+0x11e>
    5efc:	00faf793          	andi	a5,s5,15
    5f00:	4691                	li	a3,4
    5f02:	00d78363          	beq	a5,a3,5f08 <__divsf3+0x11e>
    5f06:	0a91                	addi	s5,s5,4
    5f08:	004a9793          	slli	a5,s5,0x4
    5f0c:	0007d963          	bgez	a5,5f1e <__divsf3+0x134>
    5f10:	f80007b7          	lui	a5,0xf8000
    5f14:	17fd                	addi	a5,a5,-1
    5f16:	00fafab3          	and	s5,s5,a5
    5f1a:	080a0713          	addi	a4,s4,128
    5f1e:	0fe00793          	li	a5,254
    5f22:	fae7c4e3          	blt	a5,a4,5eca <__divsf3+0xe0>
    5f26:	006a9793          	slli	a5,s5,0x6
    5f2a:	83a5                	srli	a5,a5,0x9
    5f2c:	0ff77713          	andi	a4,a4,255
    5f30:	bf8d                	j	5ea2 <__divsf3+0xb8>
    5f32:	e4b9                	bnez	s1,5f80 <__divsf3+0x196>
    5f34:	4685                	li	a3,1
    5f36:	b7a9                	j	5e80 <__divsf3+0x96>
    5f38:	020a9463          	bnez	s5,5f60 <__divsf3+0x176>
    5f3c:	4411                	li	s0,4
    5f3e:	4a01                	li	s4,0
    5f40:	4b05                	li	s6,1
    5f42:	bdc5                	j	5e32 <__divsf3+0x48>
    5f44:	000a9963          	bnez	s5,5f56 <__divsf3+0x16c>
    5f48:	4421                	li	s0,8
    5f4a:	0ff00a13          	li	s4,255
    5f4e:	4b09                	li	s6,2
    5f50:	b5cd                	j	5e32 <__divsf3+0x48>
    5f52:	468d                	li	a3,3
    5f54:	b731                	j	5e60 <__divsf3+0x76>
    5f56:	4431                	li	s0,12
    5f58:	0ff00a13          	li	s4,255
    5f5c:	4b0d                	li	s6,3
    5f5e:	bdd1                	j	5e32 <__divsf3+0x48>
    5f60:	8556                	mv	a0,s5
    5f62:	c62e                	sw	a1,12(sp)
    5f64:	30b000ef          	jal	ra,6a6e <__clzsi2>
    5f68:	ffb50793          	addi	a5,a0,-5
    5f6c:	00fa9ab3          	sll	s5,s5,a5
    5f70:	f8a00793          	li	a5,-118
    5f74:	40a78a33          	sub	s4,a5,a0
    5f78:	4401                	li	s0,0
    5f7a:	4b01                	li	s6,0
    5f7c:	45b2                	lw	a1,12(sp)
    5f7e:	bd55                	j	5e32 <__divsf3+0x48>
    5f80:	8526                	mv	a0,s1
    5f82:	2ed000ef          	jal	ra,6a6e <__clzsi2>
    5f86:	ffb50713          	addi	a4,a0,-5
    5f8a:	00aa07b3          	add	a5,s4,a0
    5f8e:	00e494b3          	sll	s1,s1,a4
    5f92:	07678a13          	addi	s4,a5,118 # f8000076 <sensor_lcd_map+0xd7fdf676>
    5f96:	4681                	li	a3,0
    5f98:	b5e1                	j	5e60 <__divsf3+0x76>
    5f9a:	001bf913          	andi	s2,s7,1
    5f9e:	4701                	li	a4,0
    5fa0:	4781                	li	a5,0
    5fa2:	b701                	j	5ea2 <__divsf3+0xb8>
    5fa4:	6641                	lui	a2,0x10
    5fa6:	00549513          	slli	a0,s1,0x5
    5faa:	167d                	addi	a2,a2,-1
    5fac:	01055793          	srli	a5,a0,0x10
    5fb0:	8e69                	and	a2,a2,a0
    5fb2:	0a9afa63          	bgeu	s5,s1,6066 <__divsf3+0x27c>
    5fb6:	02fad5b3          	divu	a1,s5,a5
    5fba:	1a7d                	addi	s4,s4,-1
    5fbc:	86d6                	mv	a3,s5
    5fbe:	4701                	li	a4,0
    5fc0:	02c58833          	mul	a6,a1,a2
    5fc4:	02f6f6b3          	remu	a3,a3,a5
    5fc8:	06c2                	slli	a3,a3,0x10
    5fca:	8f55                	or	a4,a4,a3
    5fcc:	01077b63          	bgeu	a4,a6,5fe2 <__divsf3+0x1f8>
    5fd0:	972a                	add	a4,a4,a0
    5fd2:	fff58693          	addi	a3,a1,-1
    5fd6:	0aa76863          	bltu	a4,a0,6086 <__divsf3+0x29c>
    5fda:	0b077663          	bgeu	a4,a6,6086 <__divsf3+0x29c>
    5fde:	15f9                	addi	a1,a1,-2
    5fe0:	972a                	add	a4,a4,a0
    5fe2:	41070733          	sub	a4,a4,a6
    5fe6:	02f756b3          	divu	a3,a4,a5
    5fea:	02f77733          	remu	a4,a4,a5
    5fee:	02c68ab3          	mul	s5,a3,a2
    5ff2:	01071793          	slli	a5,a4,0x10
    5ff6:	0157fb63          	bgeu	a5,s5,600c <__divsf3+0x222>
    5ffa:	97aa                	add	a5,a5,a0
    5ffc:	fff68713          	addi	a4,a3,-1 # 7dffffff <sensor_lcd_map+0x5dfdf5ff>
    6000:	08a7e163          	bltu	a5,a0,6082 <__divsf3+0x298>
    6004:	0757ff63          	bgeu	a5,s5,6082 <__divsf3+0x298>
    6008:	16f9                	addi	a3,a3,-2
    600a:	97aa                	add	a5,a5,a0
    600c:	05c2                	slli	a1,a1,0x10
    600e:	41578ab3          	sub	s5,a5,s5
    6012:	8dd5                	or	a1,a1,a3
    6014:	01503ab3          	snez	s5,s5
    6018:	0155eab3          	or	s5,a1,s5
    601c:	8bca                	mv	s7,s2
    601e:	b5f1                	j	5eea <__divsf3+0x100>
    6020:	4685                	li	a3,1
    6022:	8e99                	sub	a3,a3,a4
    6024:	c711                	beqz	a4,6030 <__divsf3+0x246>
    6026:	466d                	li	a2,27
    6028:	4701                	li	a4,0
    602a:	4781                	li	a5,0
    602c:	e6d64be3          	blt	a2,a3,5ea2 <__divsf3+0xb8>
    6030:	09ea0a13          	addi	s4,s4,158
    6034:	014a9a33          	sll	s4,s5,s4
    6038:	00dad7b3          	srl	a5,s5,a3
    603c:	01403ab3          	snez	s5,s4
    6040:	0157e7b3          	or	a5,a5,s5
    6044:	0077f713          	andi	a4,a5,7
    6048:	c719                	beqz	a4,6056 <__divsf3+0x26c>
    604a:	00f7f713          	andi	a4,a5,15
    604e:	4691                	li	a3,4
    6050:	00d70363          	beq	a4,a3,6056 <__divsf3+0x26c>
    6054:	0791                	addi	a5,a5,4
    6056:	00579713          	slli	a4,a5,0x5
    605a:	02074863          	bltz	a4,608a <__divsf3+0x2a0>
    605e:	079a                	slli	a5,a5,0x6
    6060:	83a5                	srli	a5,a5,0x9
    6062:	4701                	li	a4,0
    6064:	bd3d                	j	5ea2 <__divsf3+0xb8>
    6066:	001ad693          	srli	a3,s5,0x1
    606a:	02f6d5b3          	divu	a1,a3,a5
    606e:	01fa9713          	slli	a4,s5,0x1f
    6072:	8341                	srli	a4,a4,0x10
    6074:	02c58833          	mul	a6,a1,a2
    6078:	b7b1                	j	5fc4 <__divsf3+0x1da>
    607a:	8bce                	mv	s7,s3
    607c:	8b36                	mv	s6,a3
    607e:	4a81                	li	s5,0
    6080:	bda1                	j	5ed8 <__divsf3+0xee>
    6082:	86ba                	mv	a3,a4
    6084:	b761                	j	600c <__divsf3+0x222>
    6086:	85b6                	mv	a1,a3
    6088:	bfa9                	j	5fe2 <__divsf3+0x1f8>
    608a:	4705                	li	a4,1
    608c:	4781                	li	a5,0
    608e:	bd11                	j	5ea2 <__divsf3+0xb8>
    6090:	001bf913          	andi	s2,s7,1
    6094:	0ff00713          	li	a4,255
    6098:	4781                	li	a5,0
    609a:	b521                	j	5ea2 <__divsf3+0xb8>

0000609c <__eqsf2>:
__nesf2():
    609c:	01755693          	srli	a3,a0,0x17
    60a0:	008007b7          	lui	a5,0x800
    60a4:	17fd                	addi	a5,a5,-1
    60a6:	0175d613          	srli	a2,a1,0x17
    60aa:	0ff6f693          	andi	a3,a3,255
    60ae:	0ff00813          	li	a6,255
    60b2:	00a7f8b3          	and	a7,a5,a0
    60b6:	01f55713          	srli	a4,a0,0x1f
    60ba:	8fed                	and	a5,a5,a1
    60bc:	0ff67613          	andi	a2,a2,255
    60c0:	81fd                	srli	a1,a1,0x1f
    60c2:	03068463          	beq	a3,a6,60ea <__eqsf2+0x4e>
    60c6:	0ff00513          	li	a0,255
    60ca:	02a60463          	beq	a2,a0,60f2 <__eqsf2+0x56>
    60ce:	4505                	li	a0,1
    60d0:	00c68363          	beq	a3,a2,60d6 <__eqsf2+0x3a>
    60d4:	8082                	ret
    60d6:	fef89fe3          	bne	a7,a5,60d4 <__eqsf2+0x38>
    60da:	4501                	li	a0,0
    60dc:	feb70ce3          	beq	a4,a1,60d4 <__eqsf2+0x38>
    60e0:	4505                	li	a0,1
    60e2:	faed                	bnez	a3,60d4 <__eqsf2+0x38>
    60e4:	01103533          	snez	a0,a7
    60e8:	8082                	ret
    60ea:	4505                	li	a0,1
    60ec:	fc088de3          	beqz	a7,60c6 <__eqsf2+0x2a>
    60f0:	8082                	ret
    60f2:	4505                	li	a0,1
    60f4:	dfe9                	beqz	a5,60ce <__eqsf2+0x32>
    60f6:	8082                	ret

000060f8 <__gesf2>:
__gtsf2():
    60f8:	01755693          	srli	a3,a0,0x17
    60fc:	008007b7          	lui	a5,0x800
    6100:	17fd                	addi	a5,a5,-1
    6102:	0175d613          	srli	a2,a1,0x17
    6106:	0ff6f693          	andi	a3,a3,255
    610a:	0ff00813          	li	a6,255
    610e:	00a7f8b3          	and	a7,a5,a0
    6112:	01f55713          	srli	a4,a0,0x1f
    6116:	8fed                	and	a5,a5,a1
    6118:	0ff67613          	andi	a2,a2,255
    611c:	81fd                	srli	a1,a1,0x1f
    611e:	03068163          	beq	a3,a6,6140 <__gesf2+0x48>
    6122:	01060c63          	beq	a2,a6,613a <__gesf2+0x42>
    6126:	e28d                	bnez	a3,6148 <__gesf2+0x50>
    6128:	e211                	bnez	a2,612c <__gesf2+0x34>
    612a:	c3b1                	beqz	a5,616e <__gesf2+0x76>
    612c:	02088e63          	beqz	a7,6168 <__gesf2+0x70>
    6130:	04b70563          	beq	a4,a1,617a <__gesf2+0x82>
    6134:	4505                	li	a0,1
    6136:	e71d                	bnez	a4,6164 <__gesf2+0x6c>
    6138:	8082                	ret
    613a:	d7f5                	beqz	a5,6126 <__gesf2+0x2e>
    613c:	5579                	li	a0,-2
    613e:	8082                	ret
    6140:	fe089ee3          	bnez	a7,613c <__gesf2+0x44>
    6144:	02d60963          	beq	a2,a3,6176 <__gesf2+0x7e>
    6148:	e211                	bnez	a2,614c <__gesf2+0x54>
    614a:	d7ed                	beqz	a5,6134 <__gesf2+0x3c>
    614c:	feb714e3          	bne	a4,a1,6134 <__gesf2+0x3c>
    6150:	fed642e3          	blt	a2,a3,6134 <__gesf2+0x3c>
    6154:	00c6c763          	blt	a3,a2,6162 <__gesf2+0x6a>
    6158:	fd17eee3          	bltu	a5,a7,6134 <__gesf2+0x3c>
    615c:	4501                	li	a0,0
    615e:	fcf8fde3          	bgeu	a7,a5,6138 <__gesf2+0x40>
    6162:	e701                	bnez	a4,616a <__gesf2+0x72>
    6164:	557d                	li	a0,-1
    6166:	8082                	ret
    6168:	ddf5                	beqz	a1,6164 <__gesf2+0x6c>
    616a:	4505                	li	a0,1
    616c:	8082                	ret
    616e:	4501                	li	a0,0
    6170:	fc0892e3          	bnez	a7,6134 <__gesf2+0x3c>
    6174:	8082                	ret
    6176:	dbf9                	beqz	a5,614c <__gesf2+0x54>
    6178:	b7d1                	j	613c <__gesf2+0x44>
    617a:	4681                	li	a3,0
    617c:	bfe1                	j	6154 <__gesf2+0x5c>

0000617e <__lesf2>:
__lesf2():
    617e:	01755693          	srli	a3,a0,0x17
    6182:	008007b7          	lui	a5,0x800
    6186:	17fd                	addi	a5,a5,-1
    6188:	0175d613          	srli	a2,a1,0x17
    618c:	0ff6f693          	andi	a3,a3,255
    6190:	0ff00813          	li	a6,255
    6194:	00a7f8b3          	and	a7,a5,a0
    6198:	01f55713          	srli	a4,a0,0x1f
    619c:	8fed                	and	a5,a5,a1
    619e:	0ff67613          	andi	a2,a2,255
    61a2:	81fd                	srli	a1,a1,0x1f
    61a4:	03068763          	beq	a3,a6,61d2 <__lesf2+0x54>
    61a8:	01060963          	beq	a2,a6,61ba <__lesf2+0x3c>
    61ac:	ea85                	bnez	a3,61dc <__lesf2+0x5e>
    61ae:	ea11                	bnez	a2,61c2 <__lesf2+0x44>
    61b0:	eb89                	bnez	a5,61c2 <__lesf2+0x44>
    61b2:	4501                	li	a0,0
    61b4:	00089b63          	bnez	a7,61ca <__lesf2+0x4c>
    61b8:	8082                	ret
    61ba:	4509                	li	a0,2
    61bc:	fff5                	bnez	a5,61b8 <__lesf2+0x3a>
    61be:	dae5                	beqz	a3,61ae <__lesf2+0x30>
    61c0:	a831                	j	61dc <__lesf2+0x5e>
    61c2:	02088c63          	beqz	a7,61fa <__lesf2+0x7c>
    61c6:	04b70063          	beq	a4,a1,6206 <__lesf2+0x88>
    61ca:	4505                	li	a0,1
    61cc:	d775                	beqz	a4,61b8 <__lesf2+0x3a>
    61ce:	557d                	li	a0,-1
    61d0:	8082                	ret
    61d2:	4509                	li	a0,2
    61d4:	02089863          	bnez	a7,6204 <__lesf2+0x86>
    61d8:	02d60463          	beq	a2,a3,6200 <__lesf2+0x82>
    61dc:	e211                	bnez	a2,61e0 <__lesf2+0x62>
    61de:	d7f5                	beqz	a5,61ca <__lesf2+0x4c>
    61e0:	feb715e3          	bne	a4,a1,61ca <__lesf2+0x4c>
    61e4:	fed643e3          	blt	a2,a3,61ca <__lesf2+0x4c>
    61e8:	00c6c763          	blt	a3,a2,61f6 <__lesf2+0x78>
    61ec:	fd17efe3          	bltu	a5,a7,61ca <__lesf2+0x4c>
    61f0:	4501                	li	a0,0
    61f2:	fcf8f3e3          	bgeu	a7,a5,61b8 <__lesf2+0x3a>
    61f6:	e319                	bnez	a4,61fc <__lesf2+0x7e>
    61f8:	bfd9                	j	61ce <__lesf2+0x50>
    61fa:	d9f1                	beqz	a1,61ce <__lesf2+0x50>
    61fc:	4505                	li	a0,1
    61fe:	8082                	ret
    6200:	d3e5                	beqz	a5,61e0 <__lesf2+0x62>
    6202:	8082                	ret
    6204:	8082                	ret
    6206:	4681                	li	a3,0
    6208:	b7c5                	j	61e8 <__lesf2+0x6a>

0000620a <__mulsf3>:
__mulsf3():
    620a:	7179                	addi	sp,sp,-48
    620c:	d422                	sw	s0,40(sp)
    620e:	01755413          	srli	s0,a0,0x17
    6212:	ce4e                	sw	s3,28(sp)
    6214:	cc52                	sw	s4,24(sp)
    6216:	00951993          	slli	s3,a0,0x9
    621a:	d606                	sw	ra,44(sp)
    621c:	d226                	sw	s1,36(sp)
    621e:	d04a                	sw	s2,32(sp)
    6220:	ca56                	sw	s5,20(sp)
    6222:	c85a                	sw	s6,16(sp)
    6224:	0ff47413          	andi	s0,s0,255
    6228:	0099d993          	srli	s3,s3,0x9
    622c:	01f55a13          	srli	s4,a0,0x1f
    6230:	c469                	beqz	s0,62fa <__mulsf3+0xf0>
    6232:	0ff00793          	li	a5,255
    6236:	0ef40863          	beq	s0,a5,6326 <__mulsf3+0x11c>
    623a:	00399793          	slli	a5,s3,0x3
    623e:	04000737          	lui	a4,0x4000
    6242:	00e7e9b3          	or	s3,a5,a4
    6246:	f8140413          	addi	s0,s0,-127 # 3ffff81 <_data_lma+0x3ff71ad>
    624a:	4481                	li	s1,0
    624c:	4b01                	li	s6,0
    624e:	0175d713          	srli	a4,a1,0x17
    6252:	00959a93          	slli	s5,a1,0x9
    6256:	0ff77713          	andi	a4,a4,255
    625a:	009ada93          	srli	s5,s5,0x9
    625e:	01f5d913          	srli	s2,a1,0x1f
    6262:	cf45                	beqz	a4,631a <__mulsf3+0x110>
    6264:	0ff00793          	li	a5,255
    6268:	02f70c63          	beq	a4,a5,62a0 <__mulsf3+0x96>
    626c:	0a8e                	slli	s5,s5,0x3
    626e:	f8170713          	addi	a4,a4,-127 # 3ffff81 <_data_lma+0x3ff71ad>
    6272:	040007b7          	lui	a5,0x4000
    6276:	00faeab3          	or	s5,s5,a5
    627a:	943a                	add	s0,s0,a4
    627c:	4601                	li	a2,0
    627e:	012a4533          	xor	a0,s4,s2
    6282:	47bd                	li	a5,15
    6284:	86aa                	mv	a3,a0
    6286:	00140593          	addi	a1,s0,1
    628a:	1097e063          	bltu	a5,s1,638a <__mulsf3+0x180>
    628e:	00003717          	auipc	a4,0x3
    6292:	9ca70713          	addi	a4,a4,-1590 # 8c58 <ExCvt+0x11c>
    6296:	048a                	slli	s1,s1,0x2
    6298:	94ba                	add	s1,s1,a4
    629a:	409c                	lw	a5,0(s1)
    629c:	97ba                	add	a5,a5,a4
    629e:	8782                	jr	a5
    62a0:	0ff40413          	addi	s0,s0,255
    62a4:	0c0a9663          	bnez	s5,6370 <__mulsf3+0x166>
    62a8:	0024e493          	ori	s1,s1,2
    62ac:	4609                	li	a2,2
    62ae:	bfc1                	j	627e <__mulsf3+0x74>
    62b0:	4501                	li	a0,0
    62b2:	0ff00713          	li	a4,255
    62b6:	004007b7          	lui	a5,0x400
    62ba:	50b2                	lw	ra,44(sp)
    62bc:	5422                	lw	s0,40(sp)
    62be:	07a6                	slli	a5,a5,0x9
    62c0:	075e                	slli	a4,a4,0x17
    62c2:	83a5                	srli	a5,a5,0x9
    62c4:	057e                	slli	a0,a0,0x1f
    62c6:	8fd9                	or	a5,a5,a4
    62c8:	5492                	lw	s1,36(sp)
    62ca:	5902                	lw	s2,32(sp)
    62cc:	49f2                	lw	s3,28(sp)
    62ce:	4a62                	lw	s4,24(sp)
    62d0:	4ad2                	lw	s5,20(sp)
    62d2:	4b42                	lw	s6,16(sp)
    62d4:	8d5d                	or	a0,a0,a5
    62d6:	6145                	addi	sp,sp,48
    62d8:	8082                	ret
    62da:	86ca                	mv	a3,s2
    62dc:	89d6                	mv	s3,s5
    62de:	8b32                	mv	s6,a2
    62e0:	4789                	li	a5,2
    62e2:	08fb0f63          	beq	s6,a5,6380 <__mulsf3+0x176>
    62e6:	478d                	li	a5,3
    62e8:	fcfb04e3          	beq	s6,a5,62b0 <__mulsf3+0xa6>
    62ec:	4785                	li	a5,1
    62ee:	8536                	mv	a0,a3
    62f0:	1afb1063          	bne	s6,a5,6490 <__mulsf3+0x286>
    62f4:	4701                	li	a4,0
    62f6:	4781                	li	a5,0
    62f8:	b7c9                	j	62ba <__mulsf3+0xb0>
    62fa:	04099d63          	bnez	s3,6354 <__mulsf3+0x14a>
    62fe:	0175d713          	srli	a4,a1,0x17
    6302:	00959a93          	slli	s5,a1,0x9
    6306:	0ff77713          	andi	a4,a4,255
    630a:	4491                	li	s1,4
    630c:	4401                	li	s0,0
    630e:	4b05                	li	s6,1
    6310:	009ada93          	srli	s5,s5,0x9
    6314:	01f5d913          	srli	s2,a1,0x1f
    6318:	f731                	bnez	a4,6264 <__mulsf3+0x5a>
    631a:	000a9d63          	bnez	s5,6334 <__mulsf3+0x12a>
    631e:	0014e493          	ori	s1,s1,1
    6322:	4605                	li	a2,1
    6324:	bfa9                	j	627e <__mulsf3+0x74>
    6326:	02099263          	bnez	s3,634a <__mulsf3+0x140>
    632a:	44a1                	li	s1,8
    632c:	0ff00413          	li	s0,255
    6330:	4b09                	li	s6,2
    6332:	bf31                	j	624e <__mulsf3+0x44>
    6334:	8556                	mv	a0,s5
    6336:	2f25                	jal	6a6e <__clzsi2>
    6338:	ffb50793          	addi	a5,a0,-5
    633c:	8c09                	sub	s0,s0,a0
    633e:	00fa9ab3          	sll	s5,s5,a5
    6342:	f8a40413          	addi	s0,s0,-118
    6346:	4601                	li	a2,0
    6348:	bf1d                	j	627e <__mulsf3+0x74>
    634a:	44b1                	li	s1,12
    634c:	0ff00413          	li	s0,255
    6350:	4b0d                	li	s6,3
    6352:	bdf5                	j	624e <__mulsf3+0x44>
    6354:	854e                	mv	a0,s3
    6356:	c62e                	sw	a1,12(sp)
    6358:	2f19                	jal	6a6e <__clzsi2>
    635a:	ffb50793          	addi	a5,a0,-5
    635e:	f8a00413          	li	s0,-118
    6362:	00f999b3          	sll	s3,s3,a5
    6366:	8c09                	sub	s0,s0,a0
    6368:	4481                	li	s1,0
    636a:	4b01                	li	s6,0
    636c:	45b2                	lw	a1,12(sp)
    636e:	b5c5                	j	624e <__mulsf3+0x44>
    6370:	0034e493          	ori	s1,s1,3
    6374:	460d                	li	a2,3
    6376:	b721                	j	627e <__mulsf3+0x74>
    6378:	4789                	li	a5,2
    637a:	86d2                	mv	a3,s4
    637c:	f6fb15e3          	bne	s6,a5,62e6 <__mulsf3+0xdc>
    6380:	8536                	mv	a0,a3
    6382:	0ff00713          	li	a4,255
    6386:	4781                	li	a5,0
    6388:	bf0d                	j	62ba <__mulsf3+0xb0>
    638a:	6341                	lui	t1,0x10
    638c:	fff30693          	addi	a3,t1,-1 # ffff <_data_lma+0x722b>
    6390:	0109d613          	srli	a2,s3,0x10
    6394:	010ad893          	srli	a7,s5,0x10
    6398:	00d9f7b3          	and	a5,s3,a3
    639c:	00dafab3          	and	s5,s5,a3
    63a0:	03578833          	mul	a6,a5,s5
    63a4:	02f889b3          	mul	s3,a7,a5
    63a8:	01085713          	srli	a4,a6,0x10
    63ac:	03560ab3          	mul	s5,a2,s5
    63b0:	99d6                	add	s3,s3,s5
    63b2:	974e                	add	a4,a4,s3
    63b4:	03160633          	mul	a2,a2,a7
    63b8:	01577363          	bgeu	a4,s5,63be <__mulsf3+0x1b4>
    63bc:	961a                	add	a2,a2,t1
    63be:	67c1                	lui	a5,0x10
    63c0:	17fd                	addi	a5,a5,-1
    63c2:	00f776b3          	and	a3,a4,a5
    63c6:	00f87833          	and	a6,a6,a5
    63ca:	06c2                	slli	a3,a3,0x10
    63cc:	96c2                	add	a3,a3,a6
    63ce:	00669993          	slli	s3,a3,0x6
    63d2:	01075793          	srli	a5,a4,0x10
    63d6:	013039b3          	snez	s3,s3
    63da:	82e9                	srli	a3,a3,0x1a
    63dc:	97b2                	add	a5,a5,a2
    63de:	079a                	slli	a5,a5,0x6
    63e0:	00d9e6b3          	or	a3,s3,a3
    63e4:	00d7e9b3          	or	s3,a5,a3
    63e8:	00499793          	slli	a5,s3,0x4
    63ec:	0007d963          	bgez	a5,63fe <__mulsf3+0x1f4>
    63f0:	0019d713          	srli	a4,s3,0x1
    63f4:	0019f793          	andi	a5,s3,1
    63f8:	00f769b3          	or	s3,a4,a5
    63fc:	842e                	mv	s0,a1
    63fe:	07f40713          	addi	a4,s0,127
    6402:	04e05063          	blez	a4,6442 <__mulsf3+0x238>
    6406:	0079f793          	andi	a5,s3,7
    640a:	c799                	beqz	a5,6418 <__mulsf3+0x20e>
    640c:	00f9f793          	andi	a5,s3,15
    6410:	4691                	li	a3,4
    6412:	00d78363          	beq	a5,a3,6418 <__mulsf3+0x20e>
    6416:	0991                	addi	s3,s3,4
    6418:	00499793          	slli	a5,s3,0x4
    641c:	0007d963          	bgez	a5,642e <__mulsf3+0x224>
    6420:	f80007b7          	lui	a5,0xf8000
    6424:	17fd                	addi	a5,a5,-1
    6426:	00f9f9b3          	and	s3,s3,a5
    642a:	08040713          	addi	a4,s0,128
    642e:	0fe00793          	li	a5,254
    6432:	04e7cb63          	blt	a5,a4,6488 <__mulsf3+0x27e>
    6436:	00699793          	slli	a5,s3,0x6
    643a:	83a5                	srli	a5,a5,0x9
    643c:	0ff77713          	andi	a4,a4,255
    6440:	bdad                	j	62ba <__mulsf3+0xb0>
    6442:	4785                	li	a5,1
    6444:	40e786b3          	sub	a3,a5,a4
    6448:	c711                	beqz	a4,6454 <__mulsf3+0x24a>
    644a:	466d                	li	a2,27
    644c:	4701                	li	a4,0
    644e:	4781                	li	a5,0
    6450:	e6d645e3          	blt	a2,a3,62ba <__mulsf3+0xb0>
    6454:	09e40713          	addi	a4,s0,158
    6458:	00e99733          	sll	a4,s3,a4
    645c:	00e03733          	snez	a4,a4
    6460:	00d9d7b3          	srl	a5,s3,a3
    6464:	8fd9                	or	a5,a5,a4
    6466:	0077f713          	andi	a4,a5,7
    646a:	c719                	beqz	a4,6478 <__mulsf3+0x26e>
    646c:	00f7f713          	andi	a4,a5,15
    6470:	4691                	li	a3,4
    6472:	00d70363          	beq	a4,a3,6478 <__mulsf3+0x26e>
    6476:	0791                	addi	a5,a5,4
    6478:	00579713          	slli	a4,a5,0x5
    647c:	00074c63          	bltz	a4,6494 <__mulsf3+0x28a>
    6480:	079a                	slli	a5,a5,0x6
    6482:	83a5                	srli	a5,a5,0x9
    6484:	4701                	li	a4,0
    6486:	bd15                	j	62ba <__mulsf3+0xb0>
    6488:	0ff00713          	li	a4,255
    648c:	4781                	li	a5,0
    648e:	b535                	j	62ba <__mulsf3+0xb0>
    6490:	842e                	mv	s0,a1
    6492:	b7b5                	j	63fe <__mulsf3+0x1f4>
    6494:	4705                	li	a4,1
    6496:	4781                	li	a5,0
    6498:	b50d                	j	62ba <__mulsf3+0xb0>

0000649a <__subsf3>:
__subsf3():
    649a:	00800737          	lui	a4,0x800
    649e:	1141                	addi	sp,sp,-16
    64a0:	177d                	addi	a4,a4,-1
    64a2:	01755693          	srli	a3,a0,0x17
    64a6:	0175d813          	srli	a6,a1,0x17
    64aa:	00a777b3          	and	a5,a4,a0
    64ae:	0ff6f693          	andi	a3,a3,255
    64b2:	01f55e93          	srli	t4,a0,0x1f
    64b6:	00b77633          	and	a2,a4,a1
    64ba:	c226                	sw	s1,4(sp)
    64bc:	c04a                	sw	s2,0(sp)
    64be:	0ff87813          	andi	a6,a6,255
    64c2:	c606                	sw	ra,12(sp)
    64c4:	c422                	sw	s0,8(sp)
    64c6:	0ff00313          	li	t1,255
    64ca:	8e3e                	mv	t3,a5
    64cc:	8936                	mv	s2,a3
    64ce:	84f6                	mv	s1,t4
    64d0:	00379f13          	slli	t5,a5,0x3
    64d4:	81fd                	srli	a1,a1,0x1f
    64d6:	00361513          	slli	a0,a2,0x3
    64da:	410688b3          	sub	a7,a3,a6
    64de:	10680263          	beq	a6,t1,65e2 <__subsf3+0x148>
    64e2:	0015c593          	xori	a1,a1,1
    64e6:	10be8c63          	beq	t4,a1,65fe <__subsf3+0x164>
    64ea:	0d105463          	blez	a7,65b2 <__subsf3+0x118>
    64ee:	10081063          	bnez	a6,65ee <__subsf3+0x154>
    64f2:	1e050463          	beqz	a0,66da <__subsf3+0x240>
    64f6:	18fd                	addi	a7,a7,-1
    64f8:	40af07b3          	sub	a5,t5,a0
    64fc:	02088663          	beqz	a7,6528 <__subsf3+0x8e>
    6500:	0ff00793          	li	a5,255
    6504:	16f68863          	beq	a3,a5,6674 <__subsf3+0x1da>
    6508:	47ed                	li	a5,27
    650a:	2917c763          	blt	a5,a7,6798 <__subsf3+0x2fe>
    650e:	02000713          	li	a4,32
    6512:	41170733          	sub	a4,a4,a7
    6516:	00e51733          	sll	a4,a0,a4
    651a:	011557b3          	srl	a5,a0,a7
    651e:	00e03733          	snez	a4,a4
    6522:	8fd9                	or	a5,a5,a4
    6524:	40ff07b3          	sub	a5,t5,a5
    6528:	00579713          	slli	a4,a5,0x5
    652c:	1a075163          	bgez	a4,66ce <__subsf3+0x234>
    6530:	04000437          	lui	s0,0x4000
    6534:	147d                	addi	s0,s0,-1
    6536:	8c7d                	and	s0,s0,a5
    6538:	8522                	mv	a0,s0
    653a:	2b15                	jal	6a6e <__clzsi2>
    653c:	156d                	addi	a0,a0,-5
    653e:	00a417b3          	sll	a5,s0,a0
    6542:	1b254e63          	blt	a0,s2,66fe <__subsf3+0x264>
    6546:	41250533          	sub	a0,a0,s2
    654a:	00150413          	addi	s0,a0,1
    654e:	02000713          	li	a4,32
    6552:	8f01                	sub	a4,a4,s0
    6554:	00e79733          	sll	a4,a5,a4
    6558:	00e03733          	snez	a4,a4
    655c:	0087d7b3          	srl	a5,a5,s0
    6560:	8fd9                	or	a5,a5,a4
    6562:	4901                	li	s2,0
    6564:	0077f713          	andi	a4,a5,7
    6568:	c719                	beqz	a4,6576 <__subsf3+0xdc>
    656a:	00f7f713          	andi	a4,a5,15
    656e:	4691                	li	a3,4
    6570:	00d70363          	beq	a4,a3,6576 <__subsf3+0xdc>
    6574:	0791                	addi	a5,a5,4
    6576:	00579713          	slli	a4,a5,0x5
    657a:	14075e63          	bgez	a4,66d6 <__subsf3+0x23c>
    657e:	00190693          	addi	a3,s2,1
    6582:	0ff00713          	li	a4,255
    6586:	0014fe93          	andi	t4,s1,1
    658a:	16e68663          	beq	a3,a4,66f6 <__subsf3+0x25c>
    658e:	079a                	slli	a5,a5,0x6
    6590:	83a5                	srli	a5,a5,0x9
    6592:	0ff6f693          	andi	a3,a3,255
    6596:	07a6                	slli	a5,a5,0x9
    6598:	40b2                	lw	ra,12(sp)
    659a:	4422                	lw	s0,8(sp)
    659c:	0097d513          	srli	a0,a5,0x9
    65a0:	06de                	slli	a3,a3,0x17
    65a2:	01fe9793          	slli	a5,t4,0x1f
    65a6:	8d55                	or	a0,a0,a3
    65a8:	4492                	lw	s1,4(sp)
    65aa:	4902                	lw	s2,0(sp)
    65ac:	8d5d                	or	a0,a0,a5
    65ae:	0141                	addi	sp,sp,16
    65b0:	8082                	ret
    65b2:	0a089263          	bnez	a7,6656 <__subsf3+0x1bc>
    65b6:	00168713          	addi	a4,a3,1
    65ba:	0fe77713          	andi	a4,a4,254
    65be:	14071b63          	bnez	a4,6714 <__subsf3+0x27a>
    65c2:	22069463          	bnez	a3,67ea <__subsf3+0x350>
    65c6:	200f0263          	beqz	t5,67ca <__subsf3+0x330>
    65ca:	d571                	beqz	a0,6596 <__subsf3+0xfc>
    65cc:	40af07b3          	sub	a5,t5,a0
    65d0:	00579713          	slli	a4,a5,0x5
    65d4:	22075563          	bgez	a4,67fe <__subsf3+0x364>
    65d8:	41e507b3          	sub	a5,a0,t5
    65dc:	4901                	li	s2,0
    65de:	84ae                	mv	s1,a1
    65e0:	b751                	j	6564 <__subsf3+0xca>
    65e2:	f00500e3          	beqz	a0,64e2 <__subsf3+0x48>
    65e6:	0abe8a63          	beq	t4,a1,669a <__subsf3+0x200>
    65ea:	fd1054e3          	blez	a7,65b2 <__subsf3+0x118>
    65ee:	0ff00793          	li	a5,255
    65f2:	08f68163          	beq	a3,a5,6674 <__subsf3+0x1da>
    65f6:	040007b7          	lui	a5,0x4000
    65fa:	8d5d                	or	a0,a0,a5
    65fc:	b731                	j	6508 <__subsf3+0x6e>
    65fe:	09105e63          	blez	a7,669a <__subsf3+0x200>
    6602:	08080163          	beqz	a6,6684 <__subsf3+0x1ea>
    6606:	0ff00793          	li	a5,255
    660a:	06f68563          	beq	a3,a5,6674 <__subsf3+0x1da>
    660e:	040007b7          	lui	a5,0x4000
    6612:	8d5d                	or	a0,a0,a5
    6614:	47ed                	li	a5,27
    6616:	1f17c063          	blt	a5,a7,67f6 <__subsf3+0x35c>
    661a:	02000713          	li	a4,32
    661e:	41170733          	sub	a4,a4,a7
    6622:	00e51733          	sll	a4,a0,a4
    6626:	011557b3          	srl	a5,a0,a7
    662a:	00e03733          	snez	a4,a4
    662e:	8fd9                	or	a5,a5,a4
    6630:	97fa                	add	a5,a5,t5
    6632:	00579713          	slli	a4,a5,0x5
    6636:	08075c63          	bgez	a4,66ce <__subsf3+0x234>
    663a:	0905                	addi	s2,s2,1
    663c:	0ff00713          	li	a4,255
    6640:	0ae90b63          	beq	s2,a4,66f6 <__subsf3+0x25c>
    6644:	7e0006b7          	lui	a3,0x7e000
    6648:	0017d713          	srli	a4,a5,0x1
    664c:	16fd                	addi	a3,a3,-1
    664e:	8b85                	andi	a5,a5,1
    6650:	8f75                	and	a4,a4,a3
    6652:	8fd9                	or	a5,a5,a4
    6654:	bf01                	j	6564 <__subsf3+0xca>
    6656:	40d80733          	sub	a4,a6,a3
    665a:	10069563          	bnez	a3,6764 <__subsf3+0x2ca>
    665e:	140f0d63          	beqz	t5,67b8 <__subsf3+0x31e>
    6662:	177d                	addi	a4,a4,-1
    6664:	1a070363          	beqz	a4,680a <__subsf3+0x370>
    6668:	0ff00793          	li	a5,255
    666c:	10f81463          	bne	a6,a5,6774 <__subsf3+0x2da>
    6670:	84ae                	mv	s1,a1
    6672:	8e32                	mv	t3,a2
    6674:	060e0f63          	beqz	t3,66f2 <__subsf3+0x258>
    6678:	4e81                	li	t4,0
    667a:	0ff00693          	li	a3,255
    667e:	004007b7          	lui	a5,0x400
    6682:	bf11                	j	6596 <__subsf3+0xfc>
    6684:	c939                	beqz	a0,66da <__subsf3+0x240>
    6686:	18fd                	addi	a7,a7,-1
    6688:	00af07b3          	add	a5,t5,a0
    668c:	fa0883e3          	beqz	a7,6632 <__subsf3+0x198>
    6690:	0ff00793          	li	a5,255
    6694:	f8f690e3          	bne	a3,a5,6614 <__subsf3+0x17a>
    6698:	bff1                	j	6674 <__subsf3+0x1da>
    669a:	08089963          	bnez	a7,672c <__subsf3+0x292>
    669e:	00168913          	addi	s2,a3,1 # 7e000001 <sensor_lcd_map+0x5dfdf601>
    66a2:	0fe97713          	andi	a4,s2,254
    66a6:	12071663          	bnez	a4,67d2 <__subsf3+0x338>
    66aa:	10069b63          	bnez	a3,67c0 <__subsf3+0x326>
    66ae:	160f0363          	beqz	t5,6814 <__subsf3+0x37a>
    66b2:	ee0502e3          	beqz	a0,6596 <__subsf3+0xfc>
    66b6:	00af07b3          	add	a5,t5,a0
    66ba:	00579713          	slli	a4,a5,0x5
    66be:	4901                	li	s2,0
    66c0:	00075763          	bgez	a4,66ce <__subsf3+0x234>
    66c4:	fc000737          	lui	a4,0xfc000
    66c8:	177d                	addi	a4,a4,-1
    66ca:	8ff9                	and	a5,a5,a4
    66cc:	4905                	li	s2,1
    66ce:	0077f713          	andi	a4,a5,7
    66d2:	e8071ce3          	bnez	a4,656a <__subsf3+0xd0>
    66d6:	0037de13          	srli	t3,a5,0x3
    66da:	0ff00793          	li	a5,255
    66de:	f8f90be3          	beq	s2,a5,6674 <__subsf3+0x1da>
    66e2:	009e1793          	slli	a5,t3,0x9
    66e6:	83a5                	srli	a5,a5,0x9
    66e8:	0ff97693          	andi	a3,s2,255
    66ec:	0014fe93          	andi	t4,s1,1
    66f0:	b55d                	j	6596 <__subsf3+0xfc>
    66f2:	0014fe93          	andi	t4,s1,1
    66f6:	0ff00693          	li	a3,255
    66fa:	4781                	li	a5,0
    66fc:	bd69                	j	6596 <__subsf3+0xfc>
    66fe:	fc000737          	lui	a4,0xfc000
    6702:	177d                	addi	a4,a4,-1
    6704:	8ff9                	and	a5,a5,a4
    6706:	0077f713          	andi	a4,a5,7
    670a:	40a90933          	sub	s2,s2,a0
    670e:	e4071ee3          	bnez	a4,656a <__subsf3+0xd0>
    6712:	b7d1                	j	66d6 <__subsf3+0x23c>
    6714:	40af0433          	sub	s0,t5,a0
    6718:	00541793          	slli	a5,s0,0x5
    671c:	0c07c363          	bltz	a5,67e2 <__subsf3+0x348>
    6720:	e0041ce3          	bnez	s0,6538 <__subsf3+0x9e>
    6724:	4e81                	li	t4,0
    6726:	4681                	li	a3,0
    6728:	4781                	li	a5,0
    672a:	b5b5                	j	6596 <__subsf3+0xfc>
    672c:	40d80733          	sub	a4,a6,a3
    6730:	c6b5                	beqz	a3,679c <__subsf3+0x302>
    6732:	0ff00793          	li	a5,255
    6736:	f2f80ee3          	beq	a6,a5,6672 <__subsf3+0x1d8>
    673a:	040007b7          	lui	a5,0x4000
    673e:	00ff6f33          	or	t5,t5,a5
    6742:	47ed                	li	a5,27
    6744:	0ce7cd63          	blt	a5,a4,681e <__subsf3+0x384>
    6748:	02000793          	li	a5,32
    674c:	8f99                	sub	a5,a5,a4
    674e:	00ff17b3          	sll	a5,t5,a5
    6752:	00ef5733          	srl	a4,t5,a4
    6756:	00f037b3          	snez	a5,a5
    675a:	8f5d                	or	a4,a4,a5
    675c:	00a707b3          	add	a5,a4,a0
    6760:	8942                	mv	s2,a6
    6762:	bdc1                	j	6632 <__subsf3+0x198>
    6764:	0ff00793          	li	a5,255
    6768:	f0f804e3          	beq	a6,a5,6670 <__subsf3+0x1d6>
    676c:	040007b7          	lui	a5,0x4000
    6770:	00ff6f33          	or	t5,t5,a5
    6774:	47ed                	li	a5,27
    6776:	08e7c263          	blt	a5,a4,67fa <__subsf3+0x360>
    677a:	02000793          	li	a5,32
    677e:	8f99                	sub	a5,a5,a4
    6780:	00ff17b3          	sll	a5,t5,a5
    6784:	00ef5733          	srl	a4,t5,a4
    6788:	00f037b3          	snez	a5,a5
    678c:	8fd9                	or	a5,a5,a4
    678e:	40f507b3          	sub	a5,a0,a5
    6792:	8942                	mv	s2,a6
    6794:	84ae                	mv	s1,a1
    6796:	bb49                	j	6528 <__subsf3+0x8e>
    6798:	4785                	li	a5,1
    679a:	b369                	j	6524 <__subsf3+0x8a>
    679c:	060f0e63          	beqz	t5,6818 <__subsf3+0x37e>
    67a0:	177d                	addi	a4,a4,-1
    67a2:	00af07b3          	add	a5,t5,a0
    67a6:	8942                	mv	s2,a6
    67a8:	e80705e3          	beqz	a4,6632 <__subsf3+0x198>
    67ac:	0ff00793          	li	a5,255
    67b0:	f8f819e3          	bne	a6,a5,6742 <__subsf3+0x2a8>
    67b4:	8e32                	mv	t3,a2
    67b6:	bd7d                	j	6674 <__subsf3+0x1da>
    67b8:	8e32                	mv	t3,a2
    67ba:	8942                	mv	s2,a6
    67bc:	84ae                	mv	s1,a1
    67be:	bf31                	j	66da <__subsf3+0x240>
    67c0:	ea0f09e3          	beqz	t5,6672 <__subsf3+0x1d8>
    67c4:	ea0508e3          	beqz	a0,6674 <__subsf3+0x1da>
    67c8:	bd45                	j	6678 <__subsf3+0x1de>
    67ca:	cd0d                	beqz	a0,6804 <__subsf3+0x36a>
    67cc:	8eae                	mv	t4,a1
    67ce:	87b2                	mv	a5,a2
    67d0:	b3d9                	j	6596 <__subsf3+0xfc>
    67d2:	0ff00793          	li	a5,255
    67d6:	f2f900e3          	beq	s2,a5,66f6 <__subsf3+0x25c>
    67da:	00af07b3          	add	a5,t5,a0
    67de:	8385                	srli	a5,a5,0x1
    67e0:	b5fd                	j	66ce <__subsf3+0x234>
    67e2:	41e50433          	sub	s0,a0,t5
    67e6:	84ae                	mv	s1,a1
    67e8:	bb81                	j	6538 <__subsf3+0x9e>
    67ea:	fc0f1de3          	bnez	t5,67c4 <__subsf3+0x32a>
    67ee:	e80505e3          	beqz	a0,6678 <__subsf3+0x1de>
    67f2:	84ae                	mv	s1,a1
    67f4:	bdbd                	j	6672 <__subsf3+0x1d8>
    67f6:	4785                	li	a5,1
    67f8:	bd25                	j	6630 <__subsf3+0x196>
    67fa:	4785                	li	a5,1
    67fc:	bf49                	j	678e <__subsf3+0x2f4>
    67fe:	4901                	li	s2,0
    6800:	ec0797e3          	bnez	a5,66ce <__subsf3+0x234>
    6804:	4e81                	li	t4,0
    6806:	4781                	li	a5,0
    6808:	b379                	j	6596 <__subsf3+0xfc>
    680a:	41e507b3          	sub	a5,a0,t5
    680e:	8942                	mv	s2,a6
    6810:	84ae                	mv	s1,a1
    6812:	bb19                	j	6528 <__subsf3+0x8e>
    6814:	87b2                	mv	a5,a2
    6816:	b341                	j	6596 <__subsf3+0xfc>
    6818:	8e32                	mv	t3,a2
    681a:	8942                	mv	s2,a6
    681c:	bd7d                	j	66da <__subsf3+0x240>
    681e:	4705                	li	a4,1
    6820:	bf35                	j	675c <__subsf3+0x2c2>

00006822 <__fixsfsi>:
__fixsfsi():
    6822:	00800637          	lui	a2,0x800
    6826:	01755713          	srli	a4,a0,0x17
    682a:	fff60793          	addi	a5,a2,-1 # 7fffff <_data_lma+0x7f722b>
    682e:	0ff77713          	andi	a4,a4,255
    6832:	07e00593          	li	a1,126
    6836:	00a7f6b3          	and	a3,a5,a0
    683a:	01f55793          	srli	a5,a0,0x1f
    683e:	00e5fc63          	bgeu	a1,a4,6856 <__fixsfsi+0x34>
    6842:	09d00593          	li	a1,157
    6846:	00e5fa63          	bgeu	a1,a4,685a <__fixsfsi+0x38>
    684a:	80000537          	lui	a0,0x80000
    684e:	fff54513          	not	a0,a0
    6852:	953e                	add	a0,a0,a5
    6854:	8082                	ret
    6856:	4501                	li	a0,0
    6858:	8082                	ret
    685a:	09500593          	li	a1,149
    685e:	8ed1                	or	a3,a3,a2
    6860:	00e5cd63          	blt	a1,a4,687a <__fixsfsi+0x58>
    6864:	09600613          	li	a2,150
    6868:	40e60733          	sub	a4,a2,a4
    686c:	00e6d733          	srl	a4,a3,a4
    6870:	40e00533          	neg	a0,a4
    6874:	f3f5                	bnez	a5,6858 <__fixsfsi+0x36>
    6876:	853a                	mv	a0,a4
    6878:	8082                	ret
    687a:	f6a70713          	addi	a4,a4,-150 # fbffff6a <sensor_lcd_map+0xdbfdf56a>
    687e:	00e69733          	sll	a4,a3,a4
    6882:	b7fd                	j	6870 <__fixsfsi+0x4e>

00006884 <__fixunssfsi>:
__fixunssfsi():
    6884:	01755713          	srli	a4,a0,0x17
    6888:	00800637          	lui	a2,0x800
    688c:	fff60793          	addi	a5,a2,-1 # 7fffff <_data_lma+0x7f722b>
    6890:	0ff77713          	andi	a4,a4,255
    6894:	07e00593          	li	a1,126
    6898:	00a7f6b3          	and	a3,a5,a0
    689c:	01f55793          	srli	a5,a0,0x1f
    68a0:	4501                	li	a0,0
    68a2:	00e5f463          	bgeu	a1,a4,68aa <__fixunssfsi+0x26>
    68a6:	c399                	beqz	a5,68ac <__fixunssfsi+0x28>
    68a8:	8082                	ret
    68aa:	8082                	ret
    68ac:	09e00793          	li	a5,158
    68b0:	557d                	li	a0,-1
    68b2:	fee7ebe3          	bltu	a5,a4,68a8 <__fixunssfsi+0x24>
    68b6:	09500593          	li	a1,149
    68ba:	00c6e7b3          	or	a5,a3,a2
    68be:	00e5d763          	bge	a1,a4,68cc <__fixunssfsi+0x48>
    68c2:	f6a70713          	addi	a4,a4,-150
    68c6:	00e79533          	sll	a0,a5,a4
    68ca:	8082                	ret
    68cc:	09600513          	li	a0,150
    68d0:	40e50733          	sub	a4,a0,a4
    68d4:	00e7d533          	srl	a0,a5,a4
    68d8:	8082                	ret

000068da <__floatsisf>:
__floatsisf():
    68da:	1141                	addi	sp,sp,-16
    68dc:	c606                	sw	ra,12(sp)
    68de:	c422                	sw	s0,8(sp)
    68e0:	c226                	sw	s1,4(sp)
    68e2:	cd0d                	beqz	a0,691c <__floatsisf+0x42>
    68e4:	41f55793          	srai	a5,a0,0x1f
    68e8:	00a7c433          	xor	s0,a5,a0
    68ec:	8c1d                	sub	s0,s0,a5
    68ee:	84aa                	mv	s1,a0
    68f0:	8522                	mv	a0,s0
    68f2:	2ab5                	jal	6a6e <__clzsi2>
    68f4:	09e00793          	li	a5,158
    68f8:	40a78733          	sub	a4,a5,a0
    68fc:	09600793          	li	a5,150
    6900:	80fd                	srli	s1,s1,0x1f
    6902:	02e7cc63          	blt	a5,a4,693a <__floatsisf+0x60>
    6906:	46a1                	li	a3,8
    6908:	0ff77793          	andi	a5,a4,255
    690c:	00a6d563          	bge	a3,a0,6916 <__floatsisf+0x3c>
    6910:	1561                	addi	a0,a0,-8
    6912:	00a41433          	sll	s0,s0,a0
    6916:	0426                	slli	s0,s0,0x9
    6918:	8025                	srli	s0,s0,0x9
    691a:	a021                	j	6922 <__floatsisf+0x48>
    691c:	4481                	li	s1,0
    691e:	4781                	li	a5,0
    6920:	4401                	li	s0,0
    6922:	0426                	slli	s0,s0,0x9
    6924:	00945513          	srli	a0,s0,0x9
    6928:	40b2                	lw	ra,12(sp)
    692a:	4422                	lw	s0,8(sp)
    692c:	07de                	slli	a5,a5,0x17
    692e:	04fe                	slli	s1,s1,0x1f
    6930:	8d5d                	or	a0,a0,a5
    6932:	8d45                	or	a0,a0,s1
    6934:	4492                	lw	s1,4(sp)
    6936:	0141                	addi	sp,sp,16
    6938:	8082                	ret
    693a:	09900793          	li	a5,153
    693e:	00e7dd63          	bge	a5,a4,6958 <__floatsisf+0x7e>
    6942:	01b50793          	addi	a5,a0,27 # 8000001b <sensor_lcd_map+0x5ffdf61b>
    6946:	4695                	li	a3,5
    6948:	00f417b3          	sll	a5,s0,a5
    694c:	8e89                	sub	a3,a3,a0
    694e:	00d45433          	srl	s0,s0,a3
    6952:	00f037b3          	snez	a5,a5
    6956:	8c5d                	or	s0,s0,a5
    6958:	4795                	li	a5,5
    695a:	00a7d663          	bge	a5,a0,6966 <__floatsisf+0x8c>
    695e:	ffb50793          	addi	a5,a0,-5
    6962:	00f41433          	sll	s0,s0,a5
    6966:	fc0006b7          	lui	a3,0xfc000
    696a:	16fd                	addi	a3,a3,-1
    696c:	00747793          	andi	a5,s0,7
    6970:	00d47633          	and	a2,s0,a3
    6974:	c385                	beqz	a5,6994 <__floatsisf+0xba>
    6976:	00f47793          	andi	a5,s0,15
    697a:	4591                	li	a1,4
    697c:	00b78c63          	beq	a5,a1,6994 <__floatsisf+0xba>
    6980:	0611                	addi	a2,a2,4
    6982:	00561793          	slli	a5,a2,0x5
    6986:	0007d763          	bgez	a5,6994 <__floatsisf+0xba>
    698a:	09f00793          	li	a5,159
    698e:	8e75                	and	a2,a2,a3
    6990:	40a78733          	sub	a4,a5,a0
    6994:	00661413          	slli	s0,a2,0x6
    6998:	8025                	srli	s0,s0,0x9
    699a:	0ff77793          	andi	a5,a4,255
    699e:	b751                	j	6922 <__floatsisf+0x48>

000069a0 <__floatunsisf>:
__floatunsisf():
    69a0:	1141                	addi	sp,sp,-16
    69a2:	c606                	sw	ra,12(sp)
    69a4:	c422                	sw	s0,8(sp)
    69a6:	cd15                	beqz	a0,69e2 <__floatunsisf+0x42>
    69a8:	842a                	mv	s0,a0
    69aa:	20d1                	jal	6a6e <__clzsi2>
    69ac:	09e00793          	li	a5,158
    69b0:	40a78733          	sub	a4,a5,a0
    69b4:	09600793          	li	a5,150
    69b8:	04e7c063          	blt	a5,a4,69f8 <__floatunsisf+0x58>
    69bc:	46a1                	li	a3,8
    69be:	0ff77793          	andi	a5,a4,255
    69c2:	00a6d563          	bge	a3,a0,69cc <__floatunsisf+0x2c>
    69c6:	1561                	addi	a0,a0,-8
    69c8:	00a41433          	sll	s0,s0,a0
    69cc:	0426                	slli	s0,s0,0x9
    69ce:	8025                	srli	s0,s0,0x9
    69d0:	0426                	slli	s0,s0,0x9
    69d2:	00945513          	srli	a0,s0,0x9
    69d6:	40b2                	lw	ra,12(sp)
    69d8:	4422                	lw	s0,8(sp)
    69da:	07de                	slli	a5,a5,0x17
    69dc:	8d5d                	or	a0,a0,a5
    69de:	0141                	addi	sp,sp,16
    69e0:	8082                	ret
    69e2:	4401                	li	s0,0
    69e4:	0426                	slli	s0,s0,0x9
    69e6:	00945513          	srli	a0,s0,0x9
    69ea:	40b2                	lw	ra,12(sp)
    69ec:	4422                	lw	s0,8(sp)
    69ee:	4781                	li	a5,0
    69f0:	07de                	slli	a5,a5,0x17
    69f2:	8d5d                	or	a0,a0,a5
    69f4:	0141                	addi	sp,sp,16
    69f6:	8082                	ret
    69f8:	09900793          	li	a5,153
    69fc:	00e7dd63          	bge	a5,a4,6a16 <__floatunsisf+0x76>
    6a00:	01b50793          	addi	a5,a0,27
    6a04:	4695                	li	a3,5
    6a06:	00f417b3          	sll	a5,s0,a5
    6a0a:	8e89                	sub	a3,a3,a0
    6a0c:	00f037b3          	snez	a5,a5
    6a10:	00d45433          	srl	s0,s0,a3
    6a14:	8c5d                	or	s0,s0,a5
    6a16:	4795                	li	a5,5
    6a18:	00a7d663          	bge	a5,a0,6a24 <__floatunsisf+0x84>
    6a1c:	ffb50793          	addi	a5,a0,-5
    6a20:	00f41433          	sll	s0,s0,a5
    6a24:	fc0006b7          	lui	a3,0xfc000
    6a28:	16fd                	addi	a3,a3,-1
    6a2a:	00747793          	andi	a5,s0,7
    6a2e:	00d47633          	and	a2,s0,a3
    6a32:	c385                	beqz	a5,6a52 <__floatunsisf+0xb2>
    6a34:	00f47793          	andi	a5,s0,15
    6a38:	4591                	li	a1,4
    6a3a:	00b78c63          	beq	a5,a1,6a52 <__floatunsisf+0xb2>
    6a3e:	0611                	addi	a2,a2,4
    6a40:	00561793          	slli	a5,a2,0x5
    6a44:	0007d763          	bgez	a5,6a52 <__floatunsisf+0xb2>
    6a48:	09f00793          	li	a5,159
    6a4c:	8e75                	and	a2,a2,a3
    6a4e:	40a78733          	sub	a4,a5,a0
    6a52:	00661413          	slli	s0,a2,0x6
    6a56:	8025                	srli	s0,s0,0x9
    6a58:	0426                	slli	s0,s0,0x9
    6a5a:	00945513          	srli	a0,s0,0x9
    6a5e:	40b2                	lw	ra,12(sp)
    6a60:	4422                	lw	s0,8(sp)
    6a62:	0ff77793          	andi	a5,a4,255
    6a66:	07de                	slli	a5,a5,0x17
    6a68:	8d5d                	or	a0,a0,a5
    6a6a:	0141                	addi	sp,sp,16
    6a6c:	8082                	ret

00006a6e <__clzsi2>:
__clzsi2():
    6a6e:	67c1                	lui	a5,0x10
    6a70:	02f57e63          	bgeu	a0,a5,6aac <__clzsi2+0x3e>
    6a74:	0ff00793          	li	a5,255
    6a78:	02000713          	li	a4,32
    6a7c:	00a7ec63          	bltu	a5,a0,6a94 <__clzsi2+0x26>
    6a80:	00002797          	auipc	a5,0x2
    6a84:	21878793          	addi	a5,a5,536 # 8c98 <__clz_tab>
    6a88:	97aa                	add	a5,a5,a0
    6a8a:	0007c503          	lbu	a0,0(a5)
    6a8e:	40a70533          	sub	a0,a4,a0
    6a92:	8082                	ret
    6a94:	8121                	srli	a0,a0,0x8
    6a96:	00002797          	auipc	a5,0x2
    6a9a:	20278793          	addi	a5,a5,514 # 8c98 <__clz_tab>
    6a9e:	97aa                	add	a5,a5,a0
    6aa0:	0007c503          	lbu	a0,0(a5)
    6aa4:	4761                	li	a4,24
    6aa6:	40a70533          	sub	a0,a4,a0
    6aaa:	8082                	ret
    6aac:	010007b7          	lui	a5,0x1000
    6ab0:	00f56e63          	bltu	a0,a5,6acc <__clzsi2+0x5e>
    6ab4:	8161                	srli	a0,a0,0x18
    6ab6:	00002797          	auipc	a5,0x2
    6aba:	1e278793          	addi	a5,a5,482 # 8c98 <__clz_tab>
    6abe:	97aa                	add	a5,a5,a0
    6ac0:	0007c503          	lbu	a0,0(a5)
    6ac4:	4721                	li	a4,8
    6ac6:	40a70533          	sub	a0,a4,a0
    6aca:	8082                	ret
    6acc:	8141                	srli	a0,a0,0x10
    6ace:	00002797          	auipc	a5,0x2
    6ad2:	1ca78793          	addi	a5,a5,458 # 8c98 <__clz_tab>
    6ad6:	97aa                	add	a5,a5,a0
    6ad8:	0007c503          	lbu	a0,0(a5)
    6adc:	4741                	li	a4,16
    6ade:	40a70533          	sub	a0,a4,a0
    6ae2:	8082                	ret

00006ae4 <malloc>:
malloc():
    6ae4:	1fff9797          	auipc	a5,0x1fff9
    6ae8:	58078793          	addi	a5,a5,1408 # 20000064 <_impure_ptr>
    6aec:	85aa                	mv	a1,a0
    6aee:	4388                	lw	a0,0(a5)
    6af0:	aa41                	j	6c80 <_malloc_r>

00006af2 <free>:
free():
    6af2:	1fff9797          	auipc	a5,0x1fff9
    6af6:	57278793          	addi	a5,a5,1394 # 20000064 <_impure_ptr>
    6afa:	85aa                	mv	a1,a0
    6afc:	4388                	lw	a0,0(a5)
    6afe:	a8f9                	j	6bdc <_free_r>

00006b00 <memcmp>:
memcmp():
    6b00:	4701                	li	a4,0
    6b02:	00e61463          	bne	a2,a4,6b0a <memcmp+0xa>
    6b06:	4501                	li	a0,0
    6b08:	8082                	ret
    6b0a:	00e507b3          	add	a5,a0,a4
    6b0e:	0705                	addi	a4,a4,1
    6b10:	00e586b3          	add	a3,a1,a4
    6b14:	0007c783          	lbu	a5,0(a5)
    6b18:	fff6c683          	lbu	a3,-1(a3) # fbffffff <sensor_lcd_map+0xdbfdf5ff>
    6b1c:	fed783e3          	beq	a5,a3,6b02 <memcmp+0x2>
    6b20:	40d78533          	sub	a0,a5,a3
    6b24:	8082                	ret

00006b26 <memcpy>:
memcpy():
    6b26:	00a5c7b3          	xor	a5,a1,a0
    6b2a:	8b8d                	andi	a5,a5,3
    6b2c:	00c50733          	add	a4,a0,a2
    6b30:	e781                	bnez	a5,6b38 <memcpy+0x12>
    6b32:	478d                	li	a5,3
    6b34:	00c7ee63          	bltu	a5,a2,6b50 <memcpy+0x2a>
    6b38:	87aa                	mv	a5,a0
    6b3a:	0ae57063          	bgeu	a0,a4,6bda <memcpy+0xb4>
    6b3e:	0005c683          	lbu	a3,0(a1)
    6b42:	0785                	addi	a5,a5,1
    6b44:	0585                	addi	a1,a1,1
    6b46:	fed78fa3          	sb	a3,-1(a5)
    6b4a:	fee7eae3          	bltu	a5,a4,6b3e <memcpy+0x18>
    6b4e:	8082                	ret
    6b50:	00357693          	andi	a3,a0,3
    6b54:	87aa                	mv	a5,a0
    6b56:	ca91                	beqz	a3,6b6a <memcpy+0x44>
    6b58:	0005c683          	lbu	a3,0(a1)
    6b5c:	0785                	addi	a5,a5,1
    6b5e:	0585                	addi	a1,a1,1
    6b60:	fed78fa3          	sb	a3,-1(a5)
    6b64:	0037f693          	andi	a3,a5,3
    6b68:	b7fd                	j	6b56 <memcpy+0x30>
    6b6a:	ffc77693          	andi	a3,a4,-4
    6b6e:	fe068613          	addi	a2,a3,-32
    6b72:	06c7f063          	bgeu	a5,a2,6bd2 <memcpy+0xac>
    6b76:	0005a383          	lw	t2,0(a1)
    6b7a:	0045a283          	lw	t0,4(a1)
    6b7e:	0085af83          	lw	t6,8(a1)
    6b82:	00c5af03          	lw	t5,12(a1)
    6b86:	0105ae83          	lw	t4,16(a1)
    6b8a:	0145ae03          	lw	t3,20(a1)
    6b8e:	0185a303          	lw	t1,24(a1)
    6b92:	01c5a883          	lw	a7,28(a1)
    6b96:	02458593          	addi	a1,a1,36
    6b9a:	0077a023          	sw	t2,0(a5)
    6b9e:	ffc5a803          	lw	a6,-4(a1)
    6ba2:	0057a223          	sw	t0,4(a5)
    6ba6:	01f7a423          	sw	t6,8(a5)
    6baa:	01e7a623          	sw	t5,12(a5)
    6bae:	01d7a823          	sw	t4,16(a5)
    6bb2:	01c7aa23          	sw	t3,20(a5)
    6bb6:	0067ac23          	sw	t1,24(a5)
    6bba:	0117ae23          	sw	a7,28(a5)
    6bbe:	02478793          	addi	a5,a5,36
    6bc2:	ff07ae23          	sw	a6,-4(a5)
    6bc6:	b775                	j	6b72 <memcpy+0x4c>
    6bc8:	4190                	lw	a2,0(a1)
    6bca:	0791                	addi	a5,a5,4
    6bcc:	0591                	addi	a1,a1,4
    6bce:	fec7ae23          	sw	a2,-4(a5)
    6bd2:	fed7ebe3          	bltu	a5,a3,6bc8 <memcpy+0xa2>
    6bd6:	f6e7e4e3          	bltu	a5,a4,6b3e <memcpy+0x18>
    6bda:	8082                	ret

00006bdc <_free_r>:
_free_r():
    6bdc:	c1cd                	beqz	a1,6c7e <_free_r+0xa2>
    6bde:	ffc5a783          	lw	a5,-4(a1)
    6be2:	1141                	addi	sp,sp,-16
    6be4:	c422                	sw	s0,8(sp)
    6be6:	c606                	sw	ra,12(sp)
    6be8:	c226                	sw	s1,4(sp)
    6bea:	ffc58413          	addi	s0,a1,-4
    6bee:	0007d363          	bgez	a5,6bf4 <_free_r+0x18>
    6bf2:	943e                	add	s0,s0,a5
    6bf4:	84aa                	mv	s1,a0
    6bf6:	22fd                	jal	6de4 <__malloc_lock>
    6bf8:	82c18793          	addi	a5,gp,-2004 # 2000008c <__malloc_free_list>
    6bfc:	439c                	lw	a5,0(a5)
    6bfe:	eb99                	bnez	a5,6c14 <_free_r+0x38>
    6c00:	00042223          	sw	zero,4(s0) # 4000004 <_data_lma+0x3ff7230>
    6c04:	8281a623          	sw	s0,-2004(gp) # 2000008c <__malloc_free_list>
    6c08:	4422                	lw	s0,8(sp)
    6c0a:	40b2                	lw	ra,12(sp)
    6c0c:	8526                	mv	a0,s1
    6c0e:	4492                	lw	s1,4(sp)
    6c10:	0141                	addi	sp,sp,16
    6c12:	aad1                	j	6de6 <__malloc_unlock>
    6c14:	00f47e63          	bgeu	s0,a5,6c30 <_free_r+0x54>
    6c18:	4014                	lw	a3,0(s0)
    6c1a:	00d40733          	add	a4,s0,a3
    6c1e:	00e79663          	bne	a5,a4,6c2a <_free_r+0x4e>
    6c22:	4398                	lw	a4,0(a5)
    6c24:	43dc                	lw	a5,4(a5)
    6c26:	9736                	add	a4,a4,a3
    6c28:	c018                	sw	a4,0(s0)
    6c2a:	c05c                	sw	a5,4(s0)
    6c2c:	bfe1                	j	6c04 <_free_r+0x28>
    6c2e:	87ba                	mv	a5,a4
    6c30:	43d8                	lw	a4,4(a5)
    6c32:	c319                	beqz	a4,6c38 <_free_r+0x5c>
    6c34:	fee47de3          	bgeu	s0,a4,6c2e <_free_r+0x52>
    6c38:	4394                	lw	a3,0(a5)
    6c3a:	00d78633          	add	a2,a5,a3
    6c3e:	00861f63          	bne	a2,s0,6c5c <_free_r+0x80>
    6c42:	4010                	lw	a2,0(s0)
    6c44:	96b2                	add	a3,a3,a2
    6c46:	c394                	sw	a3,0(a5)
    6c48:	00d78633          	add	a2,a5,a3
    6c4c:	fac71ee3          	bne	a4,a2,6c08 <_free_r+0x2c>
    6c50:	4310                	lw	a2,0(a4)
    6c52:	4358                	lw	a4,4(a4)
    6c54:	96b2                	add	a3,a3,a2
    6c56:	c394                	sw	a3,0(a5)
    6c58:	c3d8                	sw	a4,4(a5)
    6c5a:	b77d                	j	6c08 <_free_r+0x2c>
    6c5c:	00c47563          	bgeu	s0,a2,6c66 <_free_r+0x8a>
    6c60:	47b1                	li	a5,12
    6c62:	c09c                	sw	a5,0(s1)
    6c64:	b755                	j	6c08 <_free_r+0x2c>
    6c66:	4010                	lw	a2,0(s0)
    6c68:	00c406b3          	add	a3,s0,a2
    6c6c:	00d71663          	bne	a4,a3,6c78 <_free_r+0x9c>
    6c70:	4314                	lw	a3,0(a4)
    6c72:	4358                	lw	a4,4(a4)
    6c74:	96b2                	add	a3,a3,a2
    6c76:	c014                	sw	a3,0(s0)
    6c78:	c058                	sw	a4,4(s0)
    6c7a:	c3c0                	sw	s0,4(a5)
    6c7c:	b771                	j	6c08 <_free_r+0x2c>
    6c7e:	8082                	ret

00006c80 <_malloc_r>:
_malloc_r():
    6c80:	1101                	addi	sp,sp,-32
    6c82:	ca26                	sw	s1,20(sp)
    6c84:	00358493          	addi	s1,a1,3
    6c88:	98f1                	andi	s1,s1,-4
    6c8a:	ce06                	sw	ra,28(sp)
    6c8c:	cc22                	sw	s0,24(sp)
    6c8e:	c84a                	sw	s2,16(sp)
    6c90:	c64e                	sw	s3,12(sp)
    6c92:	04a1                	addi	s1,s1,8
    6c94:	47b1                	li	a5,12
    6c96:	04f4f163          	bgeu	s1,a5,6cd8 <_malloc_r+0x58>
    6c9a:	44b1                	li	s1,12
    6c9c:	04b4e063          	bltu	s1,a1,6cdc <_malloc_r+0x5c>
    6ca0:	892a                	mv	s2,a0
    6ca2:	2289                	jal	6de4 <__malloc_lock>
    6ca4:	82c18793          	addi	a5,gp,-2004 # 2000008c <__malloc_free_list>
    6ca8:	4398                	lw	a4,0(a5)
    6caa:	843a                	mv	s0,a4
    6cac:	e031                	bnez	s0,6cf0 <_malloc_r+0x70>
    6cae:	83018793          	addi	a5,gp,-2000 # 20000090 <__malloc_sbrk_start>
    6cb2:	439c                	lw	a5,0(a5)
    6cb4:	e791                	bnez	a5,6cc0 <_malloc_r+0x40>
    6cb6:	4581                	li	a1,0
    6cb8:	854a                	mv	a0,s2
    6cba:	2851                	jal	6d4e <_sbrk_r>
    6cbc:	82a1a823          	sw	a0,-2000(gp) # 20000090 <__malloc_sbrk_start>
    6cc0:	85a6                	mv	a1,s1
    6cc2:	854a                	mv	a0,s2
    6cc4:	2069                	jal	6d4e <_sbrk_r>
    6cc6:	59fd                	li	s3,-1
    6cc8:	07351763          	bne	a0,s3,6d36 <_malloc_r+0xb6>
    6ccc:	47b1                	li	a5,12
    6cce:	00f92023          	sw	a5,0(s2)
    6cd2:	854a                	mv	a0,s2
    6cd4:	2a09                	jal	6de6 <__malloc_unlock>
    6cd6:	a029                	j	6ce0 <_malloc_r+0x60>
    6cd8:	fc04d2e3          	bgez	s1,6c9c <_malloc_r+0x1c>
    6cdc:	47b1                	li	a5,12
    6cde:	c11c                	sw	a5,0(a0)
    6ce0:	4501                	li	a0,0
    6ce2:	40f2                	lw	ra,28(sp)
    6ce4:	4462                	lw	s0,24(sp)
    6ce6:	44d2                	lw	s1,20(sp)
    6ce8:	4942                	lw	s2,16(sp)
    6cea:	49b2                	lw	s3,12(sp)
    6cec:	6105                	addi	sp,sp,32
    6cee:	8082                	ret
    6cf0:	401c                	lw	a5,0(s0)
    6cf2:	8f85                	sub	a5,a5,s1
    6cf4:	0207ce63          	bltz	a5,6d30 <_malloc_r+0xb0>
    6cf8:	46ad                	li	a3,11
    6cfa:	00f6f663          	bgeu	a3,a5,6d06 <_malloc_r+0x86>
    6cfe:	c01c                	sw	a5,0(s0)
    6d00:	943e                	add	s0,s0,a5
    6d02:	c004                	sw	s1,0(s0)
    6d04:	a031                	j	6d10 <_malloc_r+0x90>
    6d06:	405c                	lw	a5,4(s0)
    6d08:	02871263          	bne	a4,s0,6d2c <_malloc_r+0xac>
    6d0c:	82f1a623          	sw	a5,-2004(gp) # 2000008c <__malloc_free_list>
    6d10:	854a                	mv	a0,s2
    6d12:	28d1                	jal	6de6 <__malloc_unlock>
    6d14:	00b40513          	addi	a0,s0,11
    6d18:	00440793          	addi	a5,s0,4
    6d1c:	9961                	andi	a0,a0,-8
    6d1e:	40f50733          	sub	a4,a0,a5
    6d22:	d361                	beqz	a4,6ce2 <_malloc_r+0x62>
    6d24:	943a                	add	s0,s0,a4
    6d26:	8f89                	sub	a5,a5,a0
    6d28:	c01c                	sw	a5,0(s0)
    6d2a:	bf65                	j	6ce2 <_malloc_r+0x62>
    6d2c:	c35c                	sw	a5,4(a4)
    6d2e:	b7cd                	j	6d10 <_malloc_r+0x90>
    6d30:	8722                	mv	a4,s0
    6d32:	4040                	lw	s0,4(s0)
    6d34:	bfa5                	j	6cac <_malloc_r+0x2c>
    6d36:	00350413          	addi	s0,a0,3
    6d3a:	9871                	andi	s0,s0,-4
    6d3c:	fc8503e3          	beq	a0,s0,6d02 <_malloc_r+0x82>
    6d40:	40a405b3          	sub	a1,s0,a0
    6d44:	854a                	mv	a0,s2
    6d46:	2021                	jal	6d4e <_sbrk_r>
    6d48:	fb351de3          	bne	a0,s3,6d02 <_malloc_r+0x82>
    6d4c:	b741                	j	6ccc <_malloc_r+0x4c>

00006d4e <_sbrk_r>:
_sbrk_r():
    6d4e:	1141                	addi	sp,sp,-16
    6d50:	c422                	sw	s0,8(sp)
    6d52:	842a                	mv	s0,a0
    6d54:	852e                	mv	a0,a1
    6d56:	de01a423          	sw	zero,-536(gp) # 20000648 <errno>
    6d5a:	c606                	sw	ra,12(sp)
    6d5c:	07b000ef          	jal	ra,75d6 <_sbrk>
    6d60:	57fd                	li	a5,-1
    6d62:	00f51763          	bne	a0,a5,6d70 <_sbrk_r+0x22>
    6d66:	de818793          	addi	a5,gp,-536 # 20000648 <errno>
    6d6a:	439c                	lw	a5,0(a5)
    6d6c:	c391                	beqz	a5,6d70 <_sbrk_r+0x22>
    6d6e:	c01c                	sw	a5,0(s0)
    6d70:	40b2                	lw	ra,12(sp)
    6d72:	4422                	lw	s0,8(sp)
    6d74:	0141                	addi	sp,sp,16
    6d76:	8082                	ret

00006d78 <strchr>:
strchr():
    6d78:	0ff5f593          	andi	a1,a1,255
    6d7c:	00054783          	lbu	a5,0(a0)
    6d80:	c791                	beqz	a5,6d8c <strchr+0x14>
    6d82:	00b79363          	bne	a5,a1,6d88 <strchr+0x10>
    6d86:	8082                	ret
    6d88:	0505                	addi	a0,a0,1
    6d8a:	bfcd                	j	6d7c <strchr+0x4>
    6d8c:	c191                	beqz	a1,6d90 <strchr+0x18>
    6d8e:	4501                	li	a0,0
    6d90:	8082                	ret

00006d92 <strlen>:
strlen():
    6d92:	87aa                	mv	a5,a0
    6d94:	0785                	addi	a5,a5,1
    6d96:	fff7c703          	lbu	a4,-1(a5)
    6d9a:	ff6d                	bnez	a4,6d94 <strlen+0x2>
    6d9c:	40a78533          	sub	a0,a5,a0
    6da0:	157d                	addi	a0,a0,-1
    6da2:	8082                	ret

00006da4 <_vsiprintf_r>:
_vsiprintf_r():
    6da4:	800007b7          	lui	a5,0x80000
    6da8:	7119                	addi	sp,sp,-128
    6daa:	fff7c793          	not	a5,a5
    6dae:	ce3e                	sw	a5,28(sp)
    6db0:	c83e                	sw	a5,16(sp)
    6db2:	77c1                	lui	a5,0xffff0
    6db4:	c42e                	sw	a1,8(sp)
    6db6:	cc2e                	sw	a1,24(sp)
    6db8:	20878793          	addi	a5,a5,520 # ffff0208 <sensor_lcd_map+0xdffcf808>
    6dbc:	002c                	addi	a1,sp,8
    6dbe:	de86                	sw	ra,124(sp)
    6dc0:	ca3e                	sw	a5,20(sp)
    6dc2:	22b5                	jal	6f2e <_svfiprintf_r>
    6dc4:	47a2                	lw	a5,8(sp)
    6dc6:	00078023          	sb	zero,0(a5)
    6dca:	50f6                	lw	ra,124(sp)
    6dcc:	6109                	addi	sp,sp,128
    6dce:	8082                	ret

00006dd0 <vsiprintf>:
vsprintf():
    6dd0:	1fff9797          	auipc	a5,0x1fff9
    6dd4:	29478793          	addi	a5,a5,660 # 20000064 <_impure_ptr>
    6dd8:	86b2                	mv	a3,a2
    6dda:	862e                	mv	a2,a1
    6ddc:	85aa                	mv	a1,a0
    6dde:	4388                	lw	a0,0(a5)
    6de0:	fc5ff06f          	j	6da4 <_vsiprintf_r>

00006de4 <__malloc_lock>:
__malloc_lock():
    6de4:	8082                	ret

00006de6 <__malloc_unlock>:
__malloc_unlock():
    6de6:	8082                	ret

00006de8 <_realloc_r>:
_realloc_r():
    6de8:	e581                	bnez	a1,6df0 <_realloc_r+0x8>
    6dea:	85b2                	mv	a1,a2
    6dec:	e95ff06f          	j	6c80 <_malloc_r>
    6df0:	1101                	addi	sp,sp,-32
    6df2:	cc22                	sw	s0,24(sp)
    6df4:	ce06                	sw	ra,28(sp)
    6df6:	ca26                	sw	s1,20(sp)
    6df8:	c84a                	sw	s2,16(sp)
    6dfa:	c64e                	sw	s3,12(sp)
    6dfc:	8432                	mv	s0,a2
    6dfe:	ee01                	bnez	a2,6e16 <_realloc_r+0x2e>
    6e00:	dddff0ef          	jal	ra,6bdc <_free_r>
    6e04:	4901                	li	s2,0
    6e06:	40f2                	lw	ra,28(sp)
    6e08:	4462                	lw	s0,24(sp)
    6e0a:	854a                	mv	a0,s2
    6e0c:	44d2                	lw	s1,20(sp)
    6e0e:	4942                	lw	s2,16(sp)
    6e10:	49b2                	lw	s3,12(sp)
    6e12:	6105                	addi	sp,sp,32
    6e14:	8082                	ret
    6e16:	84ae                	mv	s1,a1
    6e18:	89aa                	mv	s3,a0
    6e1a:	7a8000ef          	jal	ra,75c2 <_malloc_usable_size_r>
    6e1e:	8926                	mv	s2,s1
    6e20:	fe8573e3          	bgeu	a0,s0,6e06 <_realloc_r+0x1e>
    6e24:	85a2                	mv	a1,s0
    6e26:	854e                	mv	a0,s3
    6e28:	e59ff0ef          	jal	ra,6c80 <_malloc_r>
    6e2c:	892a                	mv	s2,a0
    6e2e:	dd61                	beqz	a0,6e06 <_realloc_r+0x1e>
    6e30:	85a6                	mv	a1,s1
    6e32:	8622                	mv	a2,s0
    6e34:	cf3ff0ef          	jal	ra,6b26 <memcpy>
    6e38:	85a6                	mv	a1,s1
    6e3a:	854e                	mv	a0,s3
    6e3c:	da1ff0ef          	jal	ra,6bdc <_free_r>
    6e40:	b7d9                	j	6e06 <_realloc_r+0x1e>

00006e42 <__ssputs_r>:
__ssputs_r():
    6e42:	1101                	addi	sp,sp,-32
    6e44:	c84a                	sw	s2,16(sp)
    6e46:	0085a903          	lw	s2,8(a1)
    6e4a:	cc22                	sw	s0,24(sp)
    6e4c:	c452                	sw	s4,8(sp)
    6e4e:	c05a                	sw	s6,0(sp)
    6e50:	ce06                	sw	ra,28(sp)
    6e52:	ca26                	sw	s1,20(sp)
    6e54:	c64e                	sw	s3,12(sp)
    6e56:	c256                	sw	s5,4(sp)
    6e58:	842e                	mv	s0,a1
    6e5a:	8b32                	mv	s6,a2
    6e5c:	8a36                	mv	s4,a3
    6e5e:	0926ee63          	bltu	a3,s2,6efa <__ssputs_r+0xb8>
    6e62:	00c5d783          	lhu	a5,12(a1)
    6e66:	4807f713          	andi	a4,a5,1152
    6e6a:	c751                	beqz	a4,6ef6 <__ssputs_r+0xb4>
    6e6c:	4004                	lw	s1,0(s0)
    6e6e:	498c                	lw	a1,16(a1)
    6e70:	4858                	lw	a4,20(s0)
    6e72:	8aaa                	mv	s5,a0
    6e74:	40b489b3          	sub	s3,s1,a1
    6e78:	448d                	li	s1,3
    6e7a:	02e484b3          	mul	s1,s1,a4
    6e7e:	4709                	li	a4,2
    6e80:	02e4c4b3          	div	s1,s1,a4
    6e84:	00168713          	addi	a4,a3,1
    6e88:	974e                	add	a4,a4,s3
    6e8a:	00e4f363          	bgeu	s1,a4,6e90 <__ssputs_r+0x4e>
    6e8e:	84ba                	mv	s1,a4
    6e90:	4007f793          	andi	a5,a5,1024
    6e94:	c3d1                	beqz	a5,6f18 <__ssputs_r+0xd6>
    6e96:	85a6                	mv	a1,s1
    6e98:	8556                	mv	a0,s5
    6e9a:	de7ff0ef          	jal	ra,6c80 <_malloc_r>
    6e9e:	892a                	mv	s2,a0
    6ea0:	e50d                	bnez	a0,6eca <__ssputs_r+0x88>
    6ea2:	47b1                	li	a5,12
    6ea4:	00faa023          	sw	a5,0(s5)
    6ea8:	00c45783          	lhu	a5,12(s0)
    6eac:	557d                	li	a0,-1
    6eae:	0407e793          	ori	a5,a5,64
    6eb2:	00f41623          	sh	a5,12(s0)
    6eb6:	40f2                	lw	ra,28(sp)
    6eb8:	4462                	lw	s0,24(sp)
    6eba:	44d2                	lw	s1,20(sp)
    6ebc:	4942                	lw	s2,16(sp)
    6ebe:	49b2                	lw	s3,12(sp)
    6ec0:	4a22                	lw	s4,8(sp)
    6ec2:	4a92                	lw	s5,4(sp)
    6ec4:	4b02                	lw	s6,0(sp)
    6ec6:	6105                	addi	sp,sp,32
    6ec8:	8082                	ret
    6eca:	480c                	lw	a1,16(s0)
    6ecc:	864e                	mv	a2,s3
    6ece:	c59ff0ef          	jal	ra,6b26 <memcpy>
    6ed2:	00c45783          	lhu	a5,12(s0)
    6ed6:	b7f7f793          	andi	a5,a5,-1153
    6eda:	0807e793          	ori	a5,a5,128
    6ede:	00f41623          	sh	a5,12(s0)
    6ee2:	01242823          	sw	s2,16(s0)
    6ee6:	c844                	sw	s1,20(s0)
    6ee8:	994e                	add	s2,s2,s3
    6eea:	413484b3          	sub	s1,s1,s3
    6eee:	01242023          	sw	s2,0(s0)
    6ef2:	c404                	sw	s1,8(s0)
    6ef4:	8952                	mv	s2,s4
    6ef6:	012a7363          	bgeu	s4,s2,6efc <__ssputs_r+0xba>
    6efa:	8952                	mv	s2,s4
    6efc:	4008                	lw	a0,0(s0)
    6efe:	864a                	mv	a2,s2
    6f00:	85da                	mv	a1,s6
    6f02:	2d9d                	jal	7578 <memmove>
    6f04:	441c                	lw	a5,8(s0)
    6f06:	4501                	li	a0,0
    6f08:	412787b3          	sub	a5,a5,s2
    6f0c:	c41c                	sw	a5,8(s0)
    6f0e:	401c                	lw	a5,0(s0)
    6f10:	993e                	add	s2,s2,a5
    6f12:	01242023          	sw	s2,0(s0)
    6f16:	b745                	j	6eb6 <__ssputs_r+0x74>
    6f18:	8626                	mv	a2,s1
    6f1a:	8556                	mv	a0,s5
    6f1c:	ecdff0ef          	jal	ra,6de8 <_realloc_r>
    6f20:	892a                	mv	s2,a0
    6f22:	f161                	bnez	a0,6ee2 <__ssputs_r+0xa0>
    6f24:	480c                	lw	a1,16(s0)
    6f26:	8556                	mv	a0,s5
    6f28:	cb5ff0ef          	jal	ra,6bdc <_free_r>
    6f2c:	bf9d                	j	6ea2 <__ssputs_r+0x60>

00006f2e <_svfiprintf_r>:
_svfprintf_r():
    6f2e:	00c5d783          	lhu	a5,12(a1)
    6f32:	7171                	addi	sp,sp,-176
    6f34:	d326                	sw	s1,164(sp)
    6f36:	d14a                	sw	s2,160(sp)
    6f38:	cf4e                	sw	s3,156(sp)
    6f3a:	d706                	sw	ra,172(sp)
    6f3c:	d522                	sw	s0,168(sp)
    6f3e:	cd52                	sw	s4,152(sp)
    6f40:	cb56                	sw	s5,148(sp)
    6f42:	c95a                	sw	s6,144(sp)
    6f44:	c75e                	sw	s7,140(sp)
    6f46:	c562                	sw	s8,136(sp)
    6f48:	c366                	sw	s9,132(sp)
    6f4a:	0807f793          	andi	a5,a5,128
    6f4e:	89aa                	mv	s3,a0
    6f50:	892e                	mv	s2,a1
    6f52:	84b2                	mv	s1,a2
    6f54:	c3b9                	beqz	a5,6f9a <_svfiprintf_r+0x6c>
    6f56:	499c                	lw	a5,16(a1)
    6f58:	e3a9                	bnez	a5,6f9a <_svfiprintf_r+0x6c>
    6f5a:	04000593          	li	a1,64
    6f5e:	c636                	sw	a3,12(sp)
    6f60:	d21ff0ef          	jal	ra,6c80 <_malloc_r>
    6f64:	00a92023          	sw	a0,0(s2)
    6f68:	00a92823          	sw	a0,16(s2)
    6f6c:	46b2                	lw	a3,12(sp)
    6f6e:	e115                	bnez	a0,6f92 <_svfiprintf_r+0x64>
    6f70:	47b1                	li	a5,12
    6f72:	00f9a023          	sw	a5,0(s3)
    6f76:	557d                	li	a0,-1
    6f78:	50ba                	lw	ra,172(sp)
    6f7a:	542a                	lw	s0,168(sp)
    6f7c:	549a                	lw	s1,164(sp)
    6f7e:	590a                	lw	s2,160(sp)
    6f80:	49fa                	lw	s3,156(sp)
    6f82:	4a6a                	lw	s4,152(sp)
    6f84:	4ada                	lw	s5,148(sp)
    6f86:	4b4a                	lw	s6,144(sp)
    6f88:	4bba                	lw	s7,140(sp)
    6f8a:	4c2a                	lw	s8,136(sp)
    6f8c:	4c9a                	lw	s9,132(sp)
    6f8e:	614d                	addi	sp,sp,176
    6f90:	8082                	ret
    6f92:	04000793          	li	a5,64
    6f96:	00f92a23          	sw	a5,20(s2)
    6f9a:	02000793          	li	a5,32
    6f9e:	02f10ca3          	sb	a5,57(sp)
    6fa2:	03000793          	li	a5,48
    6fa6:	da02                	sw	zero,52(sp)
    6fa8:	02f10d23          	sb	a5,58(sp)
    6fac:	ce36                	sw	a3,28(sp)
    6fae:	02500b93          	li	s7,37
    6fb2:	00002a97          	auipc	s5,0x2
    6fb6:	de6a8a93          	addi	s5,s5,-538 # 8d98 <__clz_tab+0x100>
    6fba:	4c05                	li	s8,1
    6fbc:	4b29                	li	s6,10
    6fbe:	8426                	mv	s0,s1
    6fc0:	00044783          	lbu	a5,0(s0)
    6fc4:	c399                	beqz	a5,6fca <_svfiprintf_r+0x9c>
    6fc6:	09779c63          	bne	a5,s7,705e <_svfiprintf_r+0x130>
    6fca:	40940cb3          	sub	s9,s0,s1
    6fce:	000c8e63          	beqz	s9,6fea <_svfiprintf_r+0xbc>
    6fd2:	86e6                	mv	a3,s9
    6fd4:	8626                	mv	a2,s1
    6fd6:	85ca                	mv	a1,s2
    6fd8:	854e                	mv	a0,s3
    6fda:	e69ff0ef          	jal	ra,6e42 <__ssputs_r>
    6fde:	57fd                	li	a5,-1
    6fe0:	1af50163          	beq	a0,a5,7182 <_svfiprintf_r+0x254>
    6fe4:	56d2                	lw	a3,52(sp)
    6fe6:	96e6                	add	a3,a3,s9
    6fe8:	da36                	sw	a3,52(sp)
    6fea:	00044783          	lbu	a5,0(s0)
    6fee:	18078a63          	beqz	a5,7182 <_svfiprintf_r+0x254>
    6ff2:	57fd                	li	a5,-1
    6ff4:	00140493          	addi	s1,s0,1
    6ff8:	d002                	sw	zero,32(sp)
    6ffa:	d602                	sw	zero,44(sp)
    6ffc:	d23e                	sw	a5,36(sp)
    6ffe:	d402                	sw	zero,40(sp)
    7000:	060101a3          	sb	zero,99(sp)
    7004:	dc82                	sw	zero,120(sp)
    7006:	0004c583          	lbu	a1,0(s1)
    700a:	4615                	li	a2,5
    700c:	8556                	mv	a0,s5
    700e:	2b81                	jal	755e <memchr>
    7010:	00148413          	addi	s0,s1,1
    7014:	5782                	lw	a5,32(sp)
    7016:	e531                	bnez	a0,7062 <_svfiprintf_r+0x134>
    7018:	0107f713          	andi	a4,a5,16
    701c:	c709                	beqz	a4,7026 <_svfiprintf_r+0xf8>
    701e:	02000713          	li	a4,32
    7022:	06e101a3          	sb	a4,99(sp)
    7026:	0087f713          	andi	a4,a5,8
    702a:	c709                	beqz	a4,7034 <_svfiprintf_r+0x106>
    702c:	02b00713          	li	a4,43
    7030:	06e101a3          	sb	a4,99(sp)
    7034:	0004c683          	lbu	a3,0(s1)
    7038:	02a00713          	li	a4,42
    703c:	02e68b63          	beq	a3,a4,7072 <_svfiprintf_r+0x144>
    7040:	57b2                	lw	a5,44(sp)
    7042:	8426                	mv	s0,s1
    7044:	4681                	li	a3,0
    7046:	4625                	li	a2,9
    7048:	00044703          	lbu	a4,0(s0)
    704c:	00140593          	addi	a1,s0,1
    7050:	fd070713          	addi	a4,a4,-48
    7054:	06e67463          	bgeu	a2,a4,70bc <_svfiprintf_r+0x18e>
    7058:	c68d                	beqz	a3,7082 <_svfiprintf_r+0x154>
    705a:	d63e                	sw	a5,44(sp)
    705c:	a01d                	j	7082 <_svfiprintf_r+0x154>
    705e:	0405                	addi	s0,s0,1
    7060:	b785                	j	6fc0 <_svfiprintf_r+0x92>
    7062:	41550533          	sub	a0,a0,s5
    7066:	00ac1533          	sll	a0,s8,a0
    706a:	8fc9                	or	a5,a5,a0
    706c:	d03e                	sw	a5,32(sp)
    706e:	84a2                	mv	s1,s0
    7070:	bf59                	j	7006 <_svfiprintf_r+0xd8>
    7072:	4772                	lw	a4,28(sp)
    7074:	00470693          	addi	a3,a4,4
    7078:	4318                	lw	a4,0(a4)
    707a:	ce36                	sw	a3,28(sp)
    707c:	02074963          	bltz	a4,70ae <_svfiprintf_r+0x180>
    7080:	d63a                	sw	a4,44(sp)
    7082:	00044703          	lbu	a4,0(s0)
    7086:	02e00793          	li	a5,46
    708a:	04f71f63          	bne	a4,a5,70e8 <_svfiprintf_r+0x1ba>
    708e:	00144703          	lbu	a4,1(s0)
    7092:	02a00793          	li	a5,42
    7096:	02f71b63          	bne	a4,a5,70cc <_svfiprintf_r+0x19e>
    709a:	47f2                	lw	a5,28(sp)
    709c:	0409                	addi	s0,s0,2
    709e:	00478713          	addi	a4,a5,4
    70a2:	439c                	lw	a5,0(a5)
    70a4:	ce3a                	sw	a4,28(sp)
    70a6:	0207c163          	bltz	a5,70c8 <_svfiprintf_r+0x19a>
    70aa:	d23e                	sw	a5,36(sp)
    70ac:	a835                	j	70e8 <_svfiprintf_r+0x1ba>
    70ae:	40e00733          	neg	a4,a4
    70b2:	0027e793          	ori	a5,a5,2
    70b6:	d63a                	sw	a4,44(sp)
    70b8:	d03e                	sw	a5,32(sp)
    70ba:	b7e1                	j	7082 <_svfiprintf_r+0x154>
    70bc:	036787b3          	mul	a5,a5,s6
    70c0:	4685                	li	a3,1
    70c2:	842e                	mv	s0,a1
    70c4:	97ba                	add	a5,a5,a4
    70c6:	b749                	j	7048 <_svfiprintf_r+0x11a>
    70c8:	57fd                	li	a5,-1
    70ca:	b7c5                	j	70aa <_svfiprintf_r+0x17c>
    70cc:	0405                	addi	s0,s0,1
    70ce:	d202                	sw	zero,36(sp)
    70d0:	4681                	li	a3,0
    70d2:	4781                	li	a5,0
    70d4:	4625                	li	a2,9
    70d6:	00044703          	lbu	a4,0(s0)
    70da:	00140593          	addi	a1,s0,1
    70de:	fd070713          	addi	a4,a4,-48
    70e2:	06e67663          	bgeu	a2,a4,714e <_svfiprintf_r+0x220>
    70e6:	f2f1                	bnez	a3,70aa <_svfiprintf_r+0x17c>
    70e8:	00044583          	lbu	a1,0(s0)
    70ec:	460d                	li	a2,3
    70ee:	00002517          	auipc	a0,0x2
    70f2:	cb250513          	addi	a0,a0,-846 # 8da0 <__clz_tab+0x108>
    70f6:	21a5                	jal	755e <memchr>
    70f8:	cd11                	beqz	a0,7114 <_svfiprintf_r+0x1e6>
    70fa:	00002797          	auipc	a5,0x2
    70fe:	ca678793          	addi	a5,a5,-858 # 8da0 <__clz_tab+0x108>
    7102:	8d1d                	sub	a0,a0,a5
    7104:	04000793          	li	a5,64
    7108:	00a797b3          	sll	a5,a5,a0
    710c:	5502                	lw	a0,32(sp)
    710e:	0405                	addi	s0,s0,1
    7110:	8d5d                	or	a0,a0,a5
    7112:	d02a                	sw	a0,32(sp)
    7114:	00044583          	lbu	a1,0(s0)
    7118:	4619                	li	a2,6
    711a:	00002517          	auipc	a0,0x2
    711e:	c8a50513          	addi	a0,a0,-886 # 8da4 <__clz_tab+0x10c>
    7122:	00140493          	addi	s1,s0,1
    7126:	02b10c23          	sb	a1,56(sp)
    712a:	2915                	jal	755e <memchr>
    712c:	c525                	beqz	a0,7194 <_svfiprintf_r+0x266>
    712e:	ffff9797          	auipc	a5,0xffff9
    7132:	ed278793          	addi	a5,a5,-302 # 0 <_sinit>
    7136:	e795                	bnez	a5,7162 <_svfiprintf_r+0x234>
    7138:	5702                	lw	a4,32(sp)
    713a:	47f2                	lw	a5,28(sp)
    713c:	10077713          	andi	a4,a4,256
    7140:	cf09                	beqz	a4,715a <_svfiprintf_r+0x22c>
    7142:	0791                	addi	a5,a5,4
    7144:	ce3e                	sw	a5,28(sp)
    7146:	57d2                	lw	a5,52(sp)
    7148:	97d2                	add	a5,a5,s4
    714a:	da3e                	sw	a5,52(sp)
    714c:	bd8d                	j	6fbe <_svfiprintf_r+0x90>
    714e:	036787b3          	mul	a5,a5,s6
    7152:	4685                	li	a3,1
    7154:	842e                	mv	s0,a1
    7156:	97ba                	add	a5,a5,a4
    7158:	bfbd                	j	70d6 <_svfiprintf_r+0x1a8>
    715a:	079d                	addi	a5,a5,7
    715c:	9be1                	andi	a5,a5,-8
    715e:	07a1                	addi	a5,a5,8
    7160:	b7d5                	j	7144 <_svfiprintf_r+0x216>
    7162:	0878                	addi	a4,sp,28
    7164:	00000697          	auipc	a3,0x0
    7168:	cde68693          	addi	a3,a3,-802 # 6e42 <__ssputs_r>
    716c:	864a                	mv	a2,s2
    716e:	100c                	addi	a1,sp,32
    7170:	854e                	mv	a0,s3
    7172:	00000097          	auipc	ra,0x0
    7176:	000000e7          	jalr	zero # 0 <_sinit>
    717a:	57fd                	li	a5,-1
    717c:	8a2a                	mv	s4,a0
    717e:	fcf514e3          	bne	a0,a5,7146 <_svfiprintf_r+0x218>
    7182:	00c95783          	lhu	a5,12(s2)
    7186:	557d                	li	a0,-1
    7188:	0407f793          	andi	a5,a5,64
    718c:	de0796e3          	bnez	a5,6f78 <_svfiprintf_r+0x4a>
    7190:	5552                	lw	a0,52(sp)
    7192:	b3dd                	j	6f78 <_svfiprintf_r+0x4a>
    7194:	0878                	addi	a4,sp,28
    7196:	00000697          	auipc	a3,0x0
    719a:	cac68693          	addi	a3,a3,-852 # 6e42 <__ssputs_r>
    719e:	864a                	mv	a2,s2
    71a0:	100c                	addi	a1,sp,32
    71a2:	854e                	mv	a0,s3
    71a4:	2a01                	jal	72b4 <_printf_i>
    71a6:	bfd1                	j	717a <_svfiprintf_r+0x24c>

000071a8 <_printf_common>:
_printf_common():
    71a8:	7179                	addi	sp,sp,-48
    71aa:	ca56                	sw	s5,20(sp)
    71ac:	499c                	lw	a5,16(a1)
    71ae:	8aba                	mv	s5,a4
    71b0:	4598                	lw	a4,8(a1)
    71b2:	d422                	sw	s0,40(sp)
    71b4:	d226                	sw	s1,36(sp)
    71b6:	ce4e                	sw	s3,28(sp)
    71b8:	cc52                	sw	s4,24(sp)
    71ba:	d606                	sw	ra,44(sp)
    71bc:	d04a                	sw	s2,32(sp)
    71be:	c85a                	sw	s6,16(sp)
    71c0:	c65e                	sw	s7,12(sp)
    71c2:	89aa                	mv	s3,a0
    71c4:	842e                	mv	s0,a1
    71c6:	84b2                	mv	s1,a2
    71c8:	8a36                	mv	s4,a3
    71ca:	00e7d363          	bge	a5,a4,71d0 <_printf_common+0x28>
    71ce:	87ba                	mv	a5,a4
    71d0:	c09c                	sw	a5,0(s1)
    71d2:	04344703          	lbu	a4,67(s0)
    71d6:	c319                	beqz	a4,71dc <_printf_common+0x34>
    71d8:	0785                	addi	a5,a5,1
    71da:	c09c                	sw	a5,0(s1)
    71dc:	401c                	lw	a5,0(s0)
    71de:	0207f793          	andi	a5,a5,32
    71e2:	c781                	beqz	a5,71ea <_printf_common+0x42>
    71e4:	409c                	lw	a5,0(s1)
    71e6:	0789                	addi	a5,a5,2
    71e8:	c09c                	sw	a5,0(s1)
    71ea:	00042903          	lw	s2,0(s0)
    71ee:	00697913          	andi	s2,s2,6
    71f2:	00091a63          	bnez	s2,7206 <_printf_common+0x5e>
    71f6:	01940b13          	addi	s6,s0,25
    71fa:	5bfd                	li	s7,-1
    71fc:	445c                	lw	a5,12(s0)
    71fe:	4098                	lw	a4,0(s1)
    7200:	8f99                	sub	a5,a5,a4
    7202:	04f94c63          	blt	s2,a5,725a <_printf_common+0xb2>
    7206:	401c                	lw	a5,0(s0)
    7208:	04344683          	lbu	a3,67(s0)
    720c:	0207f793          	andi	a5,a5,32
    7210:	00d036b3          	snez	a3,a3
    7214:	eba5                	bnez	a5,7284 <_printf_common+0xdc>
    7216:	04340613          	addi	a2,s0,67
    721a:	85d2                	mv	a1,s4
    721c:	854e                	mv	a0,s3
    721e:	9a82                	jalr	s5
    7220:	57fd                	li	a5,-1
    7222:	04f50363          	beq	a0,a5,7268 <_printf_common+0xc0>
    7226:	401c                	lw	a5,0(s0)
    7228:	4611                	li	a2,4
    722a:	4098                	lw	a4,0(s1)
    722c:	8b99                	andi	a5,a5,6
    722e:	4454                	lw	a3,12(s0)
    7230:	4481                	li	s1,0
    7232:	00c79763          	bne	a5,a2,7240 <_printf_common+0x98>
    7236:	40e684b3          	sub	s1,a3,a4
    723a:	0004d363          	bgez	s1,7240 <_printf_common+0x98>
    723e:	4481                	li	s1,0
    7240:	441c                	lw	a5,8(s0)
    7242:	4818                	lw	a4,16(s0)
    7244:	00f75463          	bge	a4,a5,724c <_printf_common+0xa4>
    7248:	8f99                	sub	a5,a5,a4
    724a:	94be                	add	s1,s1,a5
    724c:	4901                	li	s2,0
    724e:	0469                	addi	s0,s0,26
    7250:	5b7d                	li	s6,-1
    7252:	05249863          	bne	s1,s2,72a2 <_printf_common+0xfa>
    7256:	4501                	li	a0,0
    7258:	a809                	j	726a <_printf_common+0xc2>
    725a:	4685                	li	a3,1
    725c:	865a                	mv	a2,s6
    725e:	85d2                	mv	a1,s4
    7260:	854e                	mv	a0,s3
    7262:	9a82                	jalr	s5
    7264:	01751e63          	bne	a0,s7,7280 <_printf_common+0xd8>
    7268:	557d                	li	a0,-1
    726a:	50b2                	lw	ra,44(sp)
    726c:	5422                	lw	s0,40(sp)
    726e:	5492                	lw	s1,36(sp)
    7270:	5902                	lw	s2,32(sp)
    7272:	49f2                	lw	s3,28(sp)
    7274:	4a62                	lw	s4,24(sp)
    7276:	4ad2                	lw	s5,20(sp)
    7278:	4b42                	lw	s6,16(sp)
    727a:	4bb2                	lw	s7,12(sp)
    727c:	6145                	addi	sp,sp,48
    727e:	8082                	ret
    7280:	0905                	addi	s2,s2,1
    7282:	bfad                	j	71fc <_printf_common+0x54>
    7284:	00d40733          	add	a4,s0,a3
    7288:	03000613          	li	a2,48
    728c:	04c701a3          	sb	a2,67(a4)
    7290:	04544703          	lbu	a4,69(s0)
    7294:	00168793          	addi	a5,a3,1
    7298:	97a2                	add	a5,a5,s0
    729a:	0689                	addi	a3,a3,2
    729c:	04e781a3          	sb	a4,67(a5)
    72a0:	bf9d                	j	7216 <_printf_common+0x6e>
    72a2:	4685                	li	a3,1
    72a4:	8622                	mv	a2,s0
    72a6:	85d2                	mv	a1,s4
    72a8:	854e                	mv	a0,s3
    72aa:	9a82                	jalr	s5
    72ac:	fb650ee3          	beq	a0,s6,7268 <_printf_common+0xc0>
    72b0:	0905                	addi	s2,s2,1
    72b2:	b745                	j	7252 <_printf_common+0xaa>

000072b4 <_printf_i>:
_printf_i():
    72b4:	7179                	addi	sp,sp,-48
    72b6:	d422                	sw	s0,40(sp)
    72b8:	d226                	sw	s1,36(sp)
    72ba:	d04a                	sw	s2,32(sp)
    72bc:	ce4e                	sw	s3,28(sp)
    72be:	d606                	sw	ra,44(sp)
    72c0:	cc52                	sw	s4,24(sp)
    72c2:	ca56                	sw	s5,20(sp)
    72c4:	c85a                	sw	s6,16(sp)
    72c6:	89b6                	mv	s3,a3
    72c8:	0185c683          	lbu	a3,24(a1)
    72cc:	06900793          	li	a5,105
    72d0:	8932                	mv	s2,a2
    72d2:	84aa                	mv	s1,a0
    72d4:	842e                	mv	s0,a1
    72d6:	04358613          	addi	a2,a1,67
    72da:	02f68d63          	beq	a3,a5,7314 <_printf_i+0x60>
    72de:	06d7e263          	bltu	a5,a3,7342 <_printf_i+0x8e>
    72e2:	05800793          	li	a5,88
    72e6:	18f68863          	beq	a3,a5,7476 <_printf_i+0x1c2>
    72ea:	00d7ed63          	bltu	a5,a3,7304 <_printf_i+0x50>
    72ee:	22068163          	beqz	a3,7510 <_printf_i+0x25c>
    72f2:	04300793          	li	a5,67
    72f6:	0af68e63          	beq	a3,a5,73b2 <_printf_i+0xfe>
    72fa:	04240a93          	addi	s5,s0,66
    72fe:	04d40123          	sb	a3,66(s0)
    7302:	a0c9                	j	73c4 <_printf_i+0x110>
    7304:	06300793          	li	a5,99
    7308:	0af68563          	beq	a3,a5,73b2 <_printf_i+0xfe>
    730c:	06400793          	li	a5,100
    7310:	fef695e3          	bne	a3,a5,72fa <_printf_i+0x46>
    7314:	401c                	lw	a5,0(s0)
    7316:	4308                	lw	a0,0(a4)
    7318:	0807f693          	andi	a3,a5,128
    731c:	00450593          	addi	a1,a0,4
    7320:	c6c5                	beqz	a3,73c8 <_printf_i+0x114>
    7322:	411c                	lw	a5,0(a0)
    7324:	c30c                	sw	a1,0(a4)
    7326:	0007d863          	bgez	a5,7336 <_printf_i+0x82>
    732a:	02d00713          	li	a4,45
    732e:	40f007b3          	neg	a5,a5
    7332:	04e401a3          	sb	a4,67(s0)
    7336:	00002697          	auipc	a3,0x2
    733a:	a7668693          	addi	a3,a3,-1418 # 8dac <__clz_tab+0x114>
    733e:	4729                	li	a4,10
    7340:	a86d                	j	73fa <_printf_i+0x146>
    7342:	07000793          	li	a5,112
    7346:	16f68463          	beq	a3,a5,74ae <_printf_i+0x1fa>
    734a:	02d7e563          	bltu	a5,a3,7374 <_printf_i+0xc0>
    734e:	06e00793          	li	a5,110
    7352:	18f68b63          	beq	a3,a5,74e8 <_printf_i+0x234>
    7356:	06f00793          	li	a5,111
    735a:	faf690e3          	bne	a3,a5,72fa <_printf_i+0x46>
    735e:	400c                	lw	a1,0(s0)
    7360:	431c                	lw	a5,0(a4)
    7362:	0805f813          	andi	a6,a1,128
    7366:	00478513          	addi	a0,a5,4
    736a:	06080763          	beqz	a6,73d8 <_printf_i+0x124>
    736e:	c308                	sw	a0,0(a4)
    7370:	439c                	lw	a5,0(a5)
    7372:	a88d                	j	73e4 <_printf_i+0x130>
    7374:	07500793          	li	a5,117
    7378:	fef683e3          	beq	a3,a5,735e <_printf_i+0xaa>
    737c:	07800793          	li	a5,120
    7380:	12f68b63          	beq	a3,a5,74b6 <_printf_i+0x202>
    7384:	07300793          	li	a5,115
    7388:	f6f699e3          	bne	a3,a5,72fa <_printf_i+0x46>
    738c:	431c                	lw	a5,0(a4)
    738e:	41d0                	lw	a2,4(a1)
    7390:	4581                	li	a1,0
    7392:	00478693          	addi	a3,a5,4
    7396:	c314                	sw	a3,0(a4)
    7398:	0007aa83          	lw	s5,0(a5)
    739c:	8556                	mv	a0,s5
    739e:	22c1                	jal	755e <memchr>
    73a0:	c501                	beqz	a0,73a8 <_printf_i+0xf4>
    73a2:	41550533          	sub	a0,a0,s5
    73a6:	c048                	sw	a0,4(s0)
    73a8:	405c                	lw	a5,4(s0)
    73aa:	c81c                	sw	a5,16(s0)
    73ac:	040401a3          	sb	zero,67(s0)
    73b0:	a871                	j	744c <_printf_i+0x198>
    73b2:	431c                	lw	a5,0(a4)
    73b4:	04240a93          	addi	s5,s0,66
    73b8:	00478693          	addi	a3,a5,4
    73bc:	439c                	lw	a5,0(a5)
    73be:	c314                	sw	a3,0(a4)
    73c0:	04f40123          	sb	a5,66(s0)
    73c4:	4785                	li	a5,1
    73c6:	b7d5                	j	73aa <_printf_i+0xf6>
    73c8:	0407f693          	andi	a3,a5,64
    73cc:	411c                	lw	a5,0(a0)
    73ce:	c30c                	sw	a1,0(a4)
    73d0:	dab9                	beqz	a3,7326 <_printf_i+0x72>
    73d2:	07c2                	slli	a5,a5,0x10
    73d4:	87c1                	srai	a5,a5,0x10
    73d6:	bf81                	j	7326 <_printf_i+0x72>
    73d8:	0405f593          	andi	a1,a1,64
    73dc:	c308                	sw	a0,0(a4)
    73de:	d9c9                	beqz	a1,7370 <_printf_i+0xbc>
    73e0:	0007d783          	lhu	a5,0(a5)
    73e4:	06f00713          	li	a4,111
    73e8:	0ee68863          	beq	a3,a4,74d8 <_printf_i+0x224>
    73ec:	00002697          	auipc	a3,0x2
    73f0:	9c068693          	addi	a3,a3,-1600 # 8dac <__clz_tab+0x114>
    73f4:	4729                	li	a4,10
    73f6:	040401a3          	sb	zero,67(s0)
    73fa:	404c                	lw	a1,4(s0)
    73fc:	c40c                	sw	a1,8(s0)
    73fe:	0005c563          	bltz	a1,7408 <_printf_i+0x154>
    7402:	4008                	lw	a0,0(s0)
    7404:	996d                	andi	a0,a0,-5
    7406:	c008                	sw	a0,0(s0)
    7408:	e399                	bnez	a5,740e <_printf_i+0x15a>
    740a:	8ab2                	mv	s5,a2
    740c:	cd91                	beqz	a1,7428 <_printf_i+0x174>
    740e:	8ab2                	mv	s5,a2
    7410:	02e7f5b3          	remu	a1,a5,a4
    7414:	1afd                	addi	s5,s5,-1
    7416:	95b6                	add	a1,a1,a3
    7418:	0005c583          	lbu	a1,0(a1)
    741c:	00ba8023          	sb	a1,0(s5)
    7420:	02e7d5b3          	divu	a1,a5,a4
    7424:	0ce7f063          	bgeu	a5,a4,74e4 <_printf_i+0x230>
    7428:	47a1                	li	a5,8
    742a:	00f71e63          	bne	a4,a5,7446 <_printf_i+0x192>
    742e:	401c                	lw	a5,0(s0)
    7430:	8b85                	andi	a5,a5,1
    7432:	cb91                	beqz	a5,7446 <_printf_i+0x192>
    7434:	4058                	lw	a4,4(s0)
    7436:	481c                	lw	a5,16(s0)
    7438:	00e7c763          	blt	a5,a4,7446 <_printf_i+0x192>
    743c:	03000793          	li	a5,48
    7440:	fefa8fa3          	sb	a5,-1(s5)
    7444:	1afd                	addi	s5,s5,-1
    7446:	41560633          	sub	a2,a2,s5
    744a:	c810                	sw	a2,16(s0)
    744c:	874e                	mv	a4,s3
    744e:	86ca                	mv	a3,s2
    7450:	0070                	addi	a2,sp,12
    7452:	85a2                	mv	a1,s0
    7454:	8526                	mv	a0,s1
    7456:	d53ff0ef          	jal	ra,71a8 <_printf_common>
    745a:	5a7d                	li	s4,-1
    745c:	0b451e63          	bne	a0,s4,7518 <_printf_i+0x264>
    7460:	557d                	li	a0,-1
    7462:	50b2                	lw	ra,44(sp)
    7464:	5422                	lw	s0,40(sp)
    7466:	5492                	lw	s1,36(sp)
    7468:	5902                	lw	s2,32(sp)
    746a:	49f2                	lw	s3,28(sp)
    746c:	4a62                	lw	s4,24(sp)
    746e:	4ad2                	lw	s5,20(sp)
    7470:	4b42                	lw	s6,16(sp)
    7472:	6145                	addi	sp,sp,48
    7474:	8082                	ret
    7476:	04d582a3          	sb	a3,69(a1)
    747a:	00002697          	auipc	a3,0x2
    747e:	93268693          	addi	a3,a3,-1742 # 8dac <__clz_tab+0x114>
    7482:	400c                	lw	a1,0(s0)
    7484:	4308                	lw	a0,0(a4)
    7486:	0805f813          	andi	a6,a1,128
    748a:	411c                	lw	a5,0(a0)
    748c:	0511                	addi	a0,a0,4
    748e:	02080d63          	beqz	a6,74c8 <_printf_i+0x214>
    7492:	c308                	sw	a0,0(a4)
    7494:	0015f713          	andi	a4,a1,1
    7498:	c701                	beqz	a4,74a0 <_printf_i+0x1ec>
    749a:	0205e593          	ori	a1,a1,32
    749e:	c00c                	sw	a1,0(s0)
    74a0:	4741                	li	a4,16
    74a2:	fbb1                	bnez	a5,73f6 <_printf_i+0x142>
    74a4:	400c                	lw	a1,0(s0)
    74a6:	fdf5f593          	andi	a1,a1,-33
    74aa:	c00c                	sw	a1,0(s0)
    74ac:	b7a9                	j	73f6 <_printf_i+0x142>
    74ae:	419c                	lw	a5,0(a1)
    74b0:	0207e793          	ori	a5,a5,32
    74b4:	c19c                	sw	a5,0(a1)
    74b6:	07800793          	li	a5,120
    74ba:	04f402a3          	sb	a5,69(s0)
    74be:	00002697          	auipc	a3,0x2
    74c2:	90268693          	addi	a3,a3,-1790 # 8dc0 <__clz_tab+0x128>
    74c6:	bf75                	j	7482 <_printf_i+0x1ce>
    74c8:	0405f813          	andi	a6,a1,64
    74cc:	c308                	sw	a0,0(a4)
    74ce:	fc0803e3          	beqz	a6,7494 <_printf_i+0x1e0>
    74d2:	07c2                	slli	a5,a5,0x10
    74d4:	83c1                	srli	a5,a5,0x10
    74d6:	bf7d                	j	7494 <_printf_i+0x1e0>
    74d8:	00002697          	auipc	a3,0x2
    74dc:	8d468693          	addi	a3,a3,-1836 # 8dac <__clz_tab+0x114>
    74e0:	4721                	li	a4,8
    74e2:	bf11                	j	73f6 <_printf_i+0x142>
    74e4:	87ae                	mv	a5,a1
    74e6:	b72d                	j	7410 <_printf_i+0x15c>
    74e8:	4194                	lw	a3,0(a1)
    74ea:	431c                	lw	a5,0(a4)
    74ec:	49cc                	lw	a1,20(a1)
    74ee:	0806f813          	andi	a6,a3,128
    74f2:	00478513          	addi	a0,a5,4
    74f6:	00080663          	beqz	a6,7502 <_printf_i+0x24e>
    74fa:	c308                	sw	a0,0(a4)
    74fc:	439c                	lw	a5,0(a5)
    74fe:	c38c                	sw	a1,0(a5)
    7500:	a801                	j	7510 <_printf_i+0x25c>
    7502:	c308                	sw	a0,0(a4)
    7504:	0406f693          	andi	a3,a3,64
    7508:	439c                	lw	a5,0(a5)
    750a:	daf5                	beqz	a3,74fe <_printf_i+0x24a>
    750c:	00b79023          	sh	a1,0(a5)
    7510:	00042823          	sw	zero,16(s0)
    7514:	8ab2                	mv	s5,a2
    7516:	bf1d                	j	744c <_printf_i+0x198>
    7518:	4814                	lw	a3,16(s0)
    751a:	8656                	mv	a2,s5
    751c:	85ca                	mv	a1,s2
    751e:	8526                	mv	a0,s1
    7520:	9982                	jalr	s3
    7522:	f3450fe3          	beq	a0,s4,7460 <_printf_i+0x1ac>
    7526:	401c                	lw	a5,0(s0)
    7528:	8b89                	andi	a5,a5,2
    752a:	e78d                	bnez	a5,7554 <_printf_i+0x2a0>
    752c:	47b2                	lw	a5,12(sp)
    752e:	4448                	lw	a0,12(s0)
    7530:	f2f559e3          	bge	a0,a5,7462 <_printf_i+0x1ae>
    7534:	853e                	mv	a0,a5
    7536:	b735                	j	7462 <_printf_i+0x1ae>
    7538:	4685                	li	a3,1
    753a:	8656                	mv	a2,s5
    753c:	85ca                	mv	a1,s2
    753e:	8526                	mv	a0,s1
    7540:	9982                	jalr	s3
    7542:	f1650fe3          	beq	a0,s6,7460 <_printf_i+0x1ac>
    7546:	0a05                	addi	s4,s4,1
    7548:	445c                	lw	a5,12(s0)
    754a:	4732                	lw	a4,12(sp)
    754c:	8f99                	sub	a5,a5,a4
    754e:	fefa45e3          	blt	s4,a5,7538 <_printf_i+0x284>
    7552:	bfe9                	j	752c <_printf_i+0x278>
    7554:	4a01                	li	s4,0
    7556:	01940a93          	addi	s5,s0,25
    755a:	5b7d                	li	s6,-1
    755c:	b7f5                	j	7548 <_printf_i+0x294>

0000755e <memchr>:
memchr():
    755e:	0ff5f593          	andi	a1,a1,255
    7562:	962a                	add	a2,a2,a0
    7564:	00c51463          	bne	a0,a2,756c <memchr+0xe>
    7568:	4501                	li	a0,0
    756a:	8082                	ret
    756c:	00054783          	lbu	a5,0(a0)
    7570:	feb78de3          	beq	a5,a1,756a <memchr+0xc>
    7574:	0505                	addi	a0,a0,1
    7576:	b7fd                	j	7564 <memchr+0x6>

00007578 <memmove>:
memmove():
    7578:	04a5f363          	bgeu	a1,a0,75be <memmove+0x46>
    757c:	00c586b3          	add	a3,a1,a2
    7580:	02d57f63          	bgeu	a0,a3,75be <memmove+0x46>
    7584:	fff64593          	not	a1,a2
    7588:	4781                	li	a5,0
    758a:	17fd                	addi	a5,a5,-1
    758c:	00f59363          	bne	a1,a5,7592 <memmove+0x1a>
    7590:	8082                	ret
    7592:	00f68733          	add	a4,a3,a5
    7596:	00074803          	lbu	a6,0(a4)
    759a:	00c78733          	add	a4,a5,a2
    759e:	972a                	add	a4,a4,a0
    75a0:	01070023          	sb	a6,0(a4)
    75a4:	b7dd                	j	758a <memmove+0x12>
    75a6:	00f58733          	add	a4,a1,a5
    75aa:	00074683          	lbu	a3,0(a4)
    75ae:	00f50733          	add	a4,a0,a5
    75b2:	0785                	addi	a5,a5,1
    75b4:	00d70023          	sb	a3,0(a4)
    75b8:	fef617e3          	bne	a2,a5,75a6 <memmove+0x2e>
    75bc:	8082                	ret
    75be:	4781                	li	a5,0
    75c0:	bfe5                	j	75b8 <memmove+0x40>

000075c2 <_malloc_usable_size_r>:
_malloc_usable_size_r():
    75c2:	ffc5a783          	lw	a5,-4(a1)
    75c6:	ffc78513          	addi	a0,a5,-4
    75ca:	0007d563          	bgez	a5,75d4 <_malloc_usable_size_r+0x12>
    75ce:	95aa                	add	a1,a1,a0
    75d0:	419c                	lw	a5,0(a1)
    75d2:	953e                	add	a0,a0,a5
    75d4:	8082                	ret

000075d6 <_sbrk>:
_sbrk():
    75d6:	83418793          	addi	a5,gp,-1996 # 20000094 <heap_end.1518>
    75da:	439c                	lw	a5,0(a5)
    75dc:	c791                	beqz	a5,75e8 <_sbrk+0x12>
    75de:	953e                	add	a0,a0,a5
    75e0:	82a1aa23          	sw	a0,-1996(gp) # 20000094 <heap_end.1518>
    75e4:	853e                	mv	a0,a5
    75e6:	8082                	ret
    75e8:	dec18793          	addi	a5,gp,-532 # 2000064c <_ebss>
    75ec:	953e                	add	a0,a0,a5
    75ee:	82a1aa23          	sw	a0,-1996(gp) # 20000094 <heap_end.1518>
    75f2:	853e                	mv	a0,a5
    75f4:	8082                	ret
    75f6:	0000                	unimp
    75f8:	cccd                	beqz	s1,76b2 <_sbrk+0xdc>
    75fa:	3ccc                	fld	fa1,184(s1)
    75fc:	0000                	unimp
    75fe:	3f80                	fld	fs0,56(a5)
    7600:	0000                	unimp
    7602:	4170                	lw	a2,68(a0)
    7604:	cccd                	beqz	s1,76be <_sbrk+0xe8>
    7606:	3dcc                	fld	fa1,184(a1)
    7608:	cccd                	beqz	s1,76c2 <_sbrk+0xec>
    760a:	394c                	fld	fa1,176(a0)
    760c:	0000                	unimp
    760e:	3f00                	fld	fs0,56(a4)
    7610:	534e                	lw	t1,240(sp)
    7612:	2d4d4143          	0x2d4d4143
    7616:	324d                	jal	6fb8 <_svfiprintf_r+0x8a>
    7618:	0000                	unimp
    761a:	0000                	unimp
    761c:	4e0a                	lw	t3,128(sp)
    761e:	4d414353          	0x4d414353
    7622:	4d2d                	li	s10,11
    7624:	2c32                	fld	fs8,264(sp)
    7626:	6220                	flw	fs0,64(a2)
    7628:	2079                	jal	76b6 <_sbrk+0xe0>
    762a:	534e                	lw	t1,240(sp)
    762c:	4e44                	lw	s1,28(a2)
    762e:	0a0a                	slli	s4,s4,0x2
    7630:	0000                	unimp
    7632:	0000                	unimp
    7634:	69206473          	csrrsi	s0,0x692,0
    7638:	696e                	flw	fs2,216(sp)
    763a:	2e74                	fld	fa3,216(a2)
    763c:	2e2e                	fld	ft8,200(sp)
    763e:	000a                	c.slli	zero,0x2
    7640:	73206473          	csrrsi	s0,0x732,0
    7644:	6174                	flw	fa3,68(a0)
    7646:	6574                	flw	fa3,76(a0)
    7648:	203a                	fld	ft0,392(sp)
    764a:	3025                	jal	6e72 <__ssputs_r+0x30>
    764c:	5832                	lw	a6,44(sp)
    764e:	202c                	fld	fa1,64(s0)
    7650:	7974                	flw	fa3,116(a0)
    7652:	6570                	flw	fa2,76(a0)
    7654:	253a                	fld	fa0,392(sp)
    7656:	0a64                	addi	s1,sp,284
    7658:	0000                	unimp
    765a:	0000                	unimp
    765c:	657a6973          	csrrsi	s2,0x657,20
    7660:	203a                	fld	ft0,392(sp)
    7662:	6425                	lui	s0,0x9
    7664:	4d20                	lw	s0,88(a0)
    7666:	0a42                	slli	s4,s4,0x10
    7668:	0000                	unimp
    766a:	0000                	unimp
    766c:	72656877          	0x72656877
    7670:	2065                	jal	7718 <_sbrk+0x142>
    7672:	7369                	lui	t1,0xffffa
    7674:	6d20                	flw	fs0,88(a0)
    7676:	2079                	jal	7704 <_sbrk+0x12e>
    7678:	64726163          	bltu	tp,t2,7cba <__color_map+0x276>
    767c:	00000a3f 74696e69 	0x74696e6900000a3f
    7684:	6620                	flw	fs0,72(a2)
    7686:	7461                	lui	s0,0xffff8
    7688:	7366                	flw	ft6,120(sp)
    768a:	2e2e                	fld	ft8,200(sp)
    768c:	0a2e                	slli	s4,s4,0xb
    768e:	0000                	unimp
    7690:	7366                	flw	ft6,120(sp)
    7692:	6d20                	flw	fs0,88(a0)
    7694:	746e756f          	jal	a0,eedda <_data_lma+0xe6006>
    7698:	6465                	lui	s0,0x19
    769a:	0a2e                	slli	s4,s4,0xb
    769c:	0000                	unimp
    769e:	0000                	unimp
    76a0:	4e49                	li	t3,18
    76a2:	4f46                	lw	t5,80(sp)
    76a4:	542e                	lw	s0,232(sp)
    76a6:	5458                	lw	a4,44(s0)
    76a8:	0000                	unimp
    76aa:	0000                	unimp
    76ac:	534e                	lw	t1,240(sp)
    76ae:	2d4d4143          	0x2d4d4143
    76b2:	324d                	jal	7054 <_svfiprintf_r+0x126>
    76b4:	7720                	flw	fs0,104(a4)
    76b6:	7469                	lui	s0,0xffffa
    76b8:	2068                	fld	fa0,192(s0)
    76ba:	36354843          	fmadd.q	fa6,fa0,ft3,ft6,rmm
    76be:	5735                	li	a4,-19
    76c0:	000a                	c.slli	zero,0x2
    76c2:	0000                	unimp
    76c4:	7962                	flw	fs2,56(sp)
    76c6:	4e20                	lw	s0,88(a2)
    76c8:	6179                	addi	sp,sp,464
    76ca:	616d6153          	0x616d6153
    76ce:	4420                	lw	s0,72(s0)
    76d0:	7665                	lui	a2,0xffff9
    76d2:	6c65                	lui	s8,0x19
    76d4:	7265706f          	j	5edfa <_data_lma+0x56026>
    76d8:	4e20                	lw	s0,88(a2)
    76da:	7465                	lui	s0,0xffff9
    76dc:	6b726f77          	0x6b726f77
    76e0:	000a                	c.slli	zero,0x2
    76e2:	0000                	unimp
    76e4:	2e30                	fld	fa2,88(a2)
    76e6:	3130                	fld	fa2,96(a0)
    76e8:	0061                	c.nop	24
    76ea:	0000                	unimp
    76ec:	6946                	flw	fs2,80(sp)
    76ee:	6d72                	flw	fs10,28(sp)
    76f0:	65726177          	0x65726177
    76f4:	5620                	lw	s0,104(a2)
    76f6:	7265                	lui	tp,0xffff9
    76f8:	6e6f6973          	csrrsi	s2,0x6e6,30
    76fc:	203a                	fld	ft0,392(sp)
    76fe:	7325                	lui	t1,0xfffe9
    7700:	000a                	c.slli	zero,0x2
    7702:	0000                	unimp
    7704:	460a                	lw	a2,128(sp)
    7706:	6572                	flw	fa0,28(sp)
    7708:	2071                	jal	7794 <_sbrk+0x1be>
    770a:	6e49                	lui	t3,0x12
    770c:	6f66                	flw	ft10,88(sp)
    770e:	0a3a                	slli	s4,s4,0xe
    7710:	0000                	unimp
    7712:	0000                	unimp
    7714:	74737953          	0x74737953
    7718:	6d65                	lui	s10,0x19
    771a:	203a                	fld	ft0,392(sp)
    771c:	3825                	jal	6f54 <_svfiprintf_r+0x26>
    771e:	4864                	lw	s1,84(s0)
    7720:	0a7a                	slli	s4,s4,0x1e
    7722:	0000                	unimp
    7724:	65726353          	0x65726353
    7728:	6e65                	lui	t3,0x19
    772a:	203a                	fld	ft0,392(sp)
    772c:	3825                	jal	6f64 <_svfiprintf_r+0x36>
    772e:	4864                	lw	s1,84(s0)
    7730:	0a7a                	slli	s4,s4,0x1e
    7732:	0000                	unimp
    7734:	61434453          	0x61434453
    7738:	6472                	flw	fs0,28(sp)
    773a:	203a                	fld	ft0,392(sp)
    773c:	3825                	jal	6f74 <_svfiprintf_r+0x46>
    773e:	4864                	lw	s1,84(s0)
    7740:	0a7a                	slli	s4,s4,0x1e
    7742:	0000                	unimp
    7744:	736e6553          	0x736e6553
    7748:	203a726f          	jal	tp,af14a <_data_lma+0xa6376>
    774c:	3825                	jal	6f84 <_svfiprintf_r+0x56>
    774e:	4864                	lw	s1,84(s0)
    7750:	0a7a                	slli	s4,s4,0x1e
    7752:	0000                	unimp
    7754:	6574                	flw	fa3,76(a0)
    7756:	6e697473          	csrrci	s0,0x6e6,18
    775a:	45540067          	jr	1109(s0) # ffff9455 <sensor_lcd_map+0xdffd8a55>
    775e:	422e5453          	0x422e5453
    7762:	4e49                	li	t3,18
    7764:	0000                	unimp
    7766:	0000                	unimp
    7768:	650a                	flw	fa0,128(sp)
    776a:	7272                	flw	ft4,60(sp)
    776c:	203a                	fld	ft0,392(sp)
    776e:	6425                	lui	s0,0x9
    7770:	000a                	c.slli	zero,0x2
    7772:	0000                	unimp
    7774:	002e                	c.slli	zero,0xb
    7776:	0000                	unimp
    7778:	4e554f43          	fmadd.q	ft10,fa0,ft5,fs1,rmm
    777c:	2e54                	fld	fa3,152(a2)
    777e:	4942                	lw	s2,16(sp)
    7780:	004e                	c.slli	zero,0x13
    7782:	0000                	unimp
    7784:	68206577          	0x68206577
    7788:	7661                	lui	a2,0xffff8
    778a:	2065                	jal	7832 <nyaops_logo+0x4e>
    778c:	6425                	lui	s0,0x9
    778e:	7320                	flw	fs0,96(a4)
    7790:	616e                	flw	ft2,216(sp)
    7792:	7370                	flw	fa2,100(a4)
    7794:	6f68                	flw	fa0,92(a4)
    7796:	7374                	flw	fa3,100(a4)
    7798:	0a2e                	slli	s4,s4,0xb
    779a:	0000                	unimp
    779c:	7366                	flw	ft6,120(sp)
    779e:	6620                	flw	fs0,72(a2)
    77a0:	6961                	lui	s2,0x18
    77a2:	2c6c                	fld	fa1,216(s0)
    77a4:	7220                	flw	fs0,96(a2)
    77a6:	7365                	lui	t1,0xffff9
    77a8:	203a                	fld	ft0,392(sp)
    77aa:	3025                	jal	6fd2 <_svfiprintf_r+0xa4>
    77ac:	5832                	lw	a6,44(sp)
    77ae:	000a                	c.slli	zero,0x2
    77b0:	6e69                	lui	t3,0x1a
    77b2:	7469                	lui	s0,0xffffa
    77b4:	7320                	flw	fs0,96(a4)
    77b6:	6e65                	lui	t3,0x19
    77b8:	2e726f73          	csrrsi	t5,0x2e7,4
    77bc:	2e2e                	fld	ft8,200(sp)
    77be:	000a                	c.slli	zero,0x2
    77c0:	2d252047          	0x2d252047
    77c4:	6432                	flw	fs0,12(sp)
    77c6:	0000                	unimp
    77c8:	2f31                	jal	7ee4 <__color_map+0x4a0>
    77ca:	2d25                	jal	7e02 <__color_map+0x3be>
    77cc:	6434                	flw	fa3,72(s0)
    77ce:	0000                	unimp
    77d0:	5249                	li	tp,-14
    77d2:	542d                	li	s0,-21
    77d4:	0049                	c.nop	18
    77d6:	0000                	unimp
    77d8:	00474843          	fmadd.s	fa6,fa4,ft4,ft0,rmm
    77dc:	00445453          	fadd.s	fs0,fs0,ft4,unknown
    77e0:	2020                	fld	fs0,64(s0)
    77e2:	0020                	addi	s0,sp,8

000077e4 <nyaops_logo>:
    77e4:	0000 f800 f8f8 f8f8 f8f8 f8f8 f8f8 f8f8     ................
    77f4:	f8f8 f8f8 f8f8 00f8 0000 0000 f8f8 f8f8     ................
    7804:	00f8 0000 0000 0000 0000 f800 f8f8 f8f8     ................
    7814:	0000 0000 f800 f8f8 f8f8 f8f8 f8f8 f8f8     ................
    7824:	f8f8 f8f8 f8f8 f8f8 00f8 0000 0000 f8f8     ................
    7834:	f8f8 f8f8 f8f8 f8f8 f8f8 f8f8 f8f8 f8f8     ................
    7844:	f8f8 0000 0000 f800 f8f8 f8f8 f8f8 f8f8     ................
    7854:	f8f8 f8f8 f8f8 f8f8 f8f8 00f8 0000 0000     ................
    7864:	f8f8 f8f8 f8f8 f8f8 f8f8 f8f8 f8f8 f8f8     ................
    7874:	f8f8 f8f8 0000 0000 0000 ff00 ffff ffff     ................
	...
    788c:	0000 ffff ffff 00ff 0000 0000 ffff ffff     ................
    789c:	e0ff e0e0 e0e0 e0e0 e0e0 ffe0 ffff ffff     ................
    78ac:	0000 0000 ff00 ffff ffff e0e0 e0e0 e0e0     ................
    78bc:	e0e0 e0e0 ffff ffff 00ff 0000 0000 ffff     ................
    78cc:	ffff 00ff 0000 0000 0000 0000 ff00 ffff     ................
    78dc:	ffff 0000 0000 ff00 ffff ffff e0e0 e0e0     ................
    78ec:	e0e0 e0e0 e0e0 ffff ffff 00ff 0000 0000     ................
    78fc:	ffff ffff e0ff e0e0 e0e0 e0e0 e0e0 e0e0     ................
    790c:	e0e0 e0e0 0000 0000 0000 ff00 ffff ffff     ................
	...
    7924:	0000 ffff ffff 00ff 0000 0000 0303 0303     ................
    7934:	0303 0303 0303 0303 0303 ff03 ffff ffff     ................
    7944:	0000 0000 ff00 ffff ffff 0303 0303 0303     ................
    7954:	0303 0303 ffff ffff 00ff 0000 0000 ffff     ................
    7964:	ffff 80ff 8080 8080 8080 8080 ff80 ffff     ................
    7974:	ffff 0000 0000 ff00 ffff ffff 0303 0303     ................
    7984:	0303 0303 0303 0303 0303 0003 0000 0000     ................
    7994:	8383 8383 8383 8383 8383 8383 8383 ff83     ................
    79a4:	ffff ffff 0000 0000 0000 0f00 0f0f 0f0f     ................
	...
    79bc:	0000 0f0f 0f0f 000f 0000 0000 0000 0000     ................
	...
    79d4:	0000 0f00 0f0f 0f0f 0000 0000 0f00 0f0f     ................
    79e4:	0f0f 0000 0000 0000 0000 0000 0f0f 0f0f     ................
    79f4:	000f 0000 0000 0f0f 0f0f 0f0f 0f0f 0f0f     ................
    7a04:	0f0f 0f0f 0f0f 0f0f 0f0f 0000 0000 0f00     ................
    7a14:	0f0f 0f0f 0000 0000 0000 0000 0000 0000     ................
	...
    7a2c:	0f0f 0f0f 0f0f 0f0f 0f0f 0f0f 0f0f 0f0f     ................
    7a3c:	0f0f 0f0f 0000 0000                         ........

00007a44 <__color_map>:
    7a44:	1ff8 1ff8 1ff8 1ff8 1ff8 1ff8 1ff0 1ff0     ................
    7a54:	1ff0 1ff0 1ff0 1ff0 1ff0 1fe8 1fe8 1fe8     ................
    7a64:	1fe8 1fe8 1fe8 1fe0 1fe0 1fe0 1fe0 1fe0     ................
    7a74:	1fe0 1fd8 1fd8 1fd8 1fd8 1fd8 1fd8 1fd8     ................
    7a84:	1fd0 1fd0 1fd0 1fd0 1fd0 1fd0 1fc8 1fc8     ................
    7a94:	1fc8 1fc8 1fc8 1fc8 1fc8 1fc0 1fc0 1fc0     ................
    7aa4:	1fc0 1fc0 1fc0 1fb8 1fb8 1fb8 1fb8 1fb8     ................
    7ab4:	1fb8 1fb8 1fb0 1fb0 1fb0 1fb0 1fb0 1fb0     ................
    7ac4:	1fa8 1fa8 1fa8 1fa8 1fa8 1fa8 1fa0 1fa0     ................
    7ad4:	1fa0 1fa0 1fa0 1fa0 1fa0 1f98 1f98 1f98     ................
    7ae4:	1f98 1f98 1f98 1f90 1f90 1f90 1f90 1f90     ................
    7af4:	1f90 1f90 1f88 1f88 1f88 1f88 1f88 1f88     ................
    7b04:	1f80 1f80 1f80 1f80 1f80 1f80 1f78 1f78     ............x.x.
    7b14:	1f78 1f78 1f78 1f78 1f78 1f70 1f70 1f70     x.x.x.x.x.p.p.p.
    7b24:	1f70 1f70 1f70 1f68 1f68 1f68 1f68 1f68     p.p.p.h.h.h.h.h.
    7b34:	1f68 1f68 1f60 1f60 1f60 1f60 1f60 1f60     h.h.`.`.`.`.`.`.
    7b44:	1f58 1f58 1f58 1f58 1f58 1f58 1f58 1f50     X.X.X.X.X.X.X.P.
    7b54:	1f50 1f50 1f50 1f50 1f50 1f48 1f48 1f48     P.P.P.P.P.H.H.H.
    7b64:	1f48 1f48 1f48 1f40 1f40 1f40 1f40 1f40     H.H.H.@.@.@.@.@.
    7b74:	1f40 1f40 1f38 1f38 1f38 1f38 1f38 1f38     @.@.8.8.8.8.8.8.
    7b84:	1f30 1f30 1f30 1f30 1f30 1f30 1f30 1f28     0.0.0.0.0.0.0.(.
    7b94:	1f28 1f28 1f28 1f28 1f28 1f20 1f20 1f20     (.(.(.(.(. . . .
    7ba4:	1f20 1f20 1f20 1f20 1f18 1f18 1f18 1f18      . . . .........
    7bb4:	1f18 1f18 1f10 1f10 1f10 1f10 1f10 1f10     ................
    7bc4:	1f08 1f08 1f08 1f08 1f08 1f08 1f08 1f00     ................
    7bd4:	1f00 1f00 1f00 1f00 1f00 1f00 1f00 1f00     ................
    7be4:	1f00 3f00 3f00 3f00 5f00 5f00 5f00 7f00     ...?.?.?._._._..
    7bf4:	7f00 7f00 9f00 9f00 9f00 bf00 bf00 bf00     ................
    7c04:	bf00 df00 df00 df00 ff00 ff00 ff00 1f01     ................
    7c14:	1f01 1f01 3f01 3f01 3f01 5f01 5f01 5f01     .....?.?.?._._._
    7c24:	5f01 7f01 7f01 7f01 9f01 9f01 9f01 bf01     ._..............
    7c34:	bf01 bf01 df01 df01 df01 ff01 ff01 ff01     ................
    7c44:	ff01 1f02 1f02 1f02 3f02 3f02 3f02 5f02     .........?.?.?._
    7c54:	5f02 5f02 7f02 7f02 7f02 7f02 9f02 9f02     ._._............
    7c64:	9f02 bf02 bf02 bf02 df02 df02 df02 ff02     ................
    7c74:	ff02 ff02 1f03 1f03 1f03 1f03 3f03 3f03     .............?.?
    7c84:	3f03 5f03 5f03 5f03 7f03 7f03 7f03 9f03     .?._._._........
    7c94:	9f03 9f03 bf03 bf03 bf03 bf03 df03 df03     ................
    7ca4:	df03 ff03 ff03 ff03 1f04 1f04 1f04 3f04     ...............?
    7cb4:	3f04 3f04 3f04 5f04 5f04 5f04 7f04 7f04     .?.?.?._._._....
    7cc4:	7f04 9f04 9f04 9f04 bf04 bf04 bf04 df04     ................
    7cd4:	df04 df04 df04 ff04 ff04 ff04 1f05 1f05     ................
    7ce4:	1f05 3f05 3f05 3f05 5f05 5f05 5f05 7f05     ...?.?.?._._._..
    7cf4:	7f05 7f05 7f05 9f05 9f05 9f05 bf05 bf05     ................
    7d04:	bf05 df05 df05 df05 ff05 ff05 ff05 ff05     ................
    7d14:	1f06 1f06 1f06 3f06 3f06 3f06 5f06 5f06     .......?.?.?._._
    7d24:	5f06 7f06 7f06 7f06 9f06 9f06 9f06 9f06     ._..............
    7d34:	bf06 bf06 bf06 df06 df06 df06 ff06 ff06     ................
    7d44:	ff06 1f07 1f07 1f07 3f07 3f07 3f07 3f07     .........?.?.?.?
    7d54:	5f07 5f07 5f07 7f07 7f07 7f07 9f07 9f07     ._._._..........
    7d64:	9f07 bf07 bf07 bf07 df07 df07 df07 df07     ................
    7d74:	ff07 ff07 ff07 ff07 ff07 ff07 ff07 ff07     ................
    7d84:	fe07 fe07 fe07 fe07 fe07 fe07 fd07 fd07     ................
    7d94:	fd07 fd07 fd07 fd07 fd07 fc07 fc07 fc07     ................
    7da4:	fc07 fc07 fc07 fb07 fb07 fb07 fb07 fb07     ................
    7db4:	fb07 fa07 fa07 fa07 fa07 fa07 fa07 fa07     ................
    7dc4:	f907 f907 f907 f907 f907 f907 f807 f807     ................
    7dd4:	f807 f807 f807 f807 f807 f707 f707 f707     ................
    7de4:	f707 f707 f707 f607 f607 f607 f607 f607     ................
    7df4:	f607 f607 f507 f507 f507 f507 f507 f507     ................
    7e04:	f407 f407 f407 f407 f407 f407 f307 f307     ................
    7e14:	f307 f307 f307 f307 f307 f207 f207 f207     ................
    7e24:	f207 f207 f207 f107 f107 f107 f107 f107     ................
    7e34:	f107 f107 f007 f007 f007 f007 f007 f007     ................
    7e44:	ef07 ef07 ef07 ef07 ef07 ef07 ef07 ee07     ................
    7e54:	ee07 ee07 ee07 ee07 ee07 ed07 ed07 ed07     ................
    7e64:	ed07 ed07 ed07 ec07 ec07 ec07 ec07 ec07     ................
    7e74:	ec07 ec07 eb07 eb07 eb07 eb07 eb07 eb07     ................
    7e84:	ea07 ea07 ea07 ea07 ea07 ea07 ea07 e907     ................
    7e94:	e907 e907 e907 e907 e907 e807 e807 e807     ................
    7ea4:	e807 e807 e807 e707 e707 e707 e707 e707     ................
    7eb4:	e707 e707 e607 e607 e607 e607 e607 e607     ................
    7ec4:	e507 e507 e507 e507 e507 e507 e507 e407     ................
    7ed4:	e407 e407 e407 e407 e407 e307 e307 e307     ................
    7ee4:	e307 e307 e307 e307 e207 e207 e207 e207     ................
    7ef4:	e207 e207 e107 e107 e107 e107 e107 e107     ................
    7f04:	e007 e007 e007 e007 e007 e007 e007 e007     ................
    7f14:	e007 e007 e007 e007 e007 e00f e00f e00f     ................
    7f24:	e00f e00f e00f e00f e017 e017 e017 e017     ................
    7f34:	e017 e017 e01f e01f e01f e01f e01f e01f     ................
    7f44:	e01f e027 e027 e027 e027 e027 e027 e02f     ..'.'.'.'.'.'./.
    7f54:	e02f e02f e02f e02f e02f e037 e037 e037     /././././.7.7.7.
    7f64:	e037 e037 e037 e037 e03f e03f e03f e03f     7.7.7.7.?.?.?.?.
    7f74:	e03f e03f e047 e047 e047 e047 e047 e047     ?.?.G.G.G.G.G.G.
    7f84:	e047 e04f e04f e04f e04f e04f e04f e057     G.O.O.O.O.O.O.W.
    7f94:	e057 e057 e057 e057 e057 e057 e05f e05f     W.W.W.W.W.W._._.
    7fa4:	e05f e05f e05f e05f e067 e067 e067 e067     _._._._.g.g.g.g.
    7fb4:	e067 e067 e06f e06f e06f e06f e06f e06f     g.g.o.o.o.o.o.o.
    7fc4:	e06f e077 e077 e077 e077 e077 e077 e07f     o.w.w.w.w.w.w...
    7fd4:	e07f e07f e07f e07f e07f e07f e087 e087     ................
    7fe4:	e087 e087 e087 e087 e08f e08f e08f e08f     ................
    7ff4:	e08f e08f e08f e097 e097 e097 e097 e097     ................
    8004:	e097 e09f e09f e09f e09f e09f e09f e0a7     ................
    8014:	e0a7 e0a7 e0a7 e0a7 e0a7 e0a7 e0af e0af     ................
    8024:	e0af e0af e0af e0af e0b7 e0b7 e0b7 e0b7     ................
    8034:	e0b7 e0b7 e0b7 e0bf e0bf e0bf e0bf e0bf     ................
    8044:	e0bf e0c7 e0c7 e0c7 e0c7 e0c7 e0c7 e0c7     ................
    8054:	e0cf e0cf e0cf e0cf e0cf e0cf e0d7 e0d7     ................
    8064:	e0d7 e0d7 e0d7 e0d7 e0df e0df e0df e0df     ................
    8074:	e0df e0df e0df e0e7 e0e7 e0e7 e0e7 e0e7     ................
    8084:	e0e7 e0ef e0ef e0ef e0ef e0ef e0ef e0ef     ................
    8094:	e0f7 e0f7 e0f7 e0f7 e0f7 e0f7 e0ff e0ff     ................
    80a4:	e0ff e0ff e0ff e0ff e0ff e0ff c0ff c0ff     ................
    80b4:	c0ff a0ff a0ff a0ff a0ff 80ff 80ff 80ff     ................
    80c4:	60ff 60ff 60ff 40ff 40ff 40ff 20ff 20ff     .`.`.`.@.@.@. . 
    80d4:	20ff 00ff 00ff 00ff 00ff e0fe e0fe e0fe     . ..............
    80e4:	c0fe c0fe c0fe a0fe a0fe a0fe 80fe 80fe     ................
    80f4:	80fe 60fe 60fe 60fe 60fe 40fe 40fe 40fe     ...`.`.`.`.@.@.@
    8104:	20fe 20fe 20fe 00fe 00fe 00fe e0fd e0fd     . . . ..........
    8114:	e0fd e0fd c0fd c0fd c0fd a0fd a0fd a0fd     ................
    8124:	80fd 80fd 80fd 60fd 60fd 60fd 40fd 40fd     .......`.`.`.@.@
    8134:	40fd 40fd 20fd 20fd 20fd 00fd 00fd 00fd     .@.@. . . ......
    8144:	e0fc e0fc e0fc c0fc c0fc c0fc a0fc a0fc     ................
    8154:	a0fc a0fc 80fc 80fc 80fc 60fc 60fc 60fc     ...........`.`.`
    8164:	40fc 40fc 40fc 20fc 20fc 20fc 00fc 00fc     .@.@.@. . . ....
    8174:	00fc 00fc e0fb e0fb e0fb c0fb c0fb c0fb     ................
    8184:	a0fb a0fb a0fb 80fb 80fb 80fb 80fb 60fb     ...............`
    8194:	60fb 60fb 40fb 40fb 40fb 20fb 20fb 20fb     .`.`.@.@.@. . . 
    81a4:	00fb 00fb 00fb e0fa e0fa e0fa e0fa c0fa     ................
    81b4:	c0fa c0fa a0fa a0fa a0fa 80fa 80fa 80fa     ................
    81c4:	60fa 60fa 60fa 40fa 40fa 40fa 40fa 20fa     .`.`.`.@.@.@.@. 
    81d4:	20fa 20fa 00fa 00fa 00fa e0f9 e0f9 e0f9     . . ............
    81e4:	c0f9 c0f9 c0f9 c0f9 a0f9 a0f9 a0f9 80f9     ................
    81f4:	80f9 80f9 60f9 60f9 60f9 40f9 40f9 40f9     .....`.`.`.@.@.@
    8204:	20f9 20f9 20f9 20f9 00f9 00f9 00f9 e0f8     . . . . ........
    8214:	e0f8 e0f8 c0f8 c0f8 c0f8 a0f8 a0f8 a0f8     ................
    8224:	80f8 80f8 80f8 80f8 60f8 60f8 60f8 40f8     .........`.`.`.@
    8234:	40f8 40f8 20f8 20f8 20f8 00f8 00f8 00f8     .@.@. . . ......
    8244:	0000 4080 0000 4100 0000 3e00 2400 4974     ...@...A...>.$tI
    8254:	f000 454f 1b90 0000 1bac 0000 1bc8 0000     ..OE............
    8264:	1bea 0000 1bfc 0000 1c14 0000 1c2c 0000     ............,...
    8274:	1c4c 0000 1c5e 0000 1c72 0000 1c86 0000     L...^...r.......
    8284:	1ca4 0000 1cc0 0000 1cdc 0000 1cfe 0000     ................
    8294:	1d10 0000 1d28 0000 1d40 0000 1d60 0000     ....(...@...`...
    82a4:	1d72 0000 1d86 0000 1d9a 0000               r...........

000082b0 <__FONTS_BIG_>:
	...
    82c0:	0000 fc00 0000 0000 0000 0d00 000c 0000     ................
    82d0:	1c00 001c 1c1c 0000 0000 0000 0000 0000     ................
    82e0:	a020 207c a020 207c 0f01 0101 0f01 0101      .|  .| ........
    82f0:	3800 e444 849e 0000 0800 3f08 0c08 0007     .8D........?....
    8300:	2418 9824 3040 0408 0c08 0103 0906 0609     .$$.@0..........
    8310:	b800 c464 3824 0080 0c07 0808 060b 080f     ..d.$8..........
    8320:	0000 1c00 001c 0000 0000 0000 0000 0000     ................
    8330:	0000 e000 0418 0002 0000 0700 2018 0040     ............. @.
    8340:	0000 0402 e018 0000 0000 2040 0718 0000     ..........@ ....
    8350:	0000 3048 30fc 0048 0000 0000 0000 0000     ..H0.0H.........
    8360:	0000 e000 0000 0000 0101 0f01 0101 0001     ................
	...
    8378:	0000 6c40 003c 0000 0000 0000 0000 0000     ..@l<...........
    8388:	0000 0101 0101 0000 0000 0000 0000 0000     ................
    8398:	0000 0c00 000c 0000 0000 0000 38c0 000c     .............8..
    83a8:	2000 071c 0001 0000 f000 8408 44c4 f028     . ...........D(.
    83b8:	0300 0805 0808 0304 0000 0810 00fc 0000     ................
    83c8:	0000 0808 080f 0808 0800 0404 8c04 0078     ..............x.
    83d8:	0800 0a0c 0809 0008 0400 4444 e444 00b8     ..........DDD...
    83e8:	0800 0808 0408 0003 8000 3060 fc0c 0000     ..........`0....
    83f8:	0303 0202 0f02 0202 7c00 4444 84c4 0000     .........|DD....
    8408:	0800 0808 0704 0000 f000 4488 4444 0080     ...........DDD..
    8418:	0300 080c 0c08 0007 0400 0404 7cc4 000c     .............|..
    8428:	0000 070c 0001 0000 3800 44a4 a444 0038     .........8.DD.8.
    8438:	0700 080c 0808 0007 7800 848c 4c84 00f0     .........x...L..
    8448:	0000 0808 0408 0003 0000 6000 0060 0000     ...........``...
    8458:	0000 0c00 000c 0000 0000 6000 0060 0000     ...........``...
    8468:	0000 6c40 003c 0000 0000 c080 2060 0010     ..@l<.......` ..
    8478:	0000 0301 0406 0008 4000 4040 4040 0040     .........@@@@@@.
    8488:	0100 0101 0101 0001 0000 2010 c060 0080     ........... `...
    8498:	0000 0408 0306 0001 0000 8484 7088 0000     .............p..
    84a8:	0000 0c0d 0000 0000 30c0 c488 c444 f008     .........0..D...
    84b8:	201f 484f 6f48 0708 0000 3cc0 3c04 00e0     . OHHo.....<.<..
    84c8:	0e00 0203 0202 0e03 fc00 4444 e444 00b8     ..........DDD...
    84d8:	0f00 0808 0c08 0007 f000 0408 0404 0008     ................
    84e8:	0300 0804 0808 0004 fc00 0404 0404 f008     ................
    84f8:	0f00 0808 0c08 0306 fc00 4444 4444 0000     ..........DDDD..
    8508:	0f00 0808 0808 0000 0000 84fc 8484 0084     ................
    8518:	0000 000f 0000 0000 18e0 040c 8484 0088     ................
    8528:	0603 080c 0808 000f fc00 4040 4040 00fc     ..........@@@@..
    8538:	0f00 0000 0000 000f 0400 fc04 0404 0000     ................
    8548:	0800 0f08 0808 0000 0400 0404 fc04 0000     ................
    8558:	0400 0808 0708 0000 fc00 e0c0 0830 0004     ............0...
    8568:	0f00 0100 0403 0008 0000 00fc 0000 0000     ................
    8578:	0000 080f 0808 0808 f800 f00c 38c0 fc04     .............8..
    8588:	0f00 0100 0001 0f00 fc00 601c 0080 00fc     ...........`....
    8598:	0f00 0000 0c03 000f 18f0 0404 0404 f008     ................
    85a8:	0403 0808 0808 0306 fc00 8484 4c84 0078     .............Lx.
    85b8:	0f00 0000 0000 0000 08f0 0404 0804 00f0     ................
    85c8:	0403 3808 4448 0063 fc00 c444 38c4 0000     ...8HDc...D..8..
    85d8:	0f00 0000 0e03 0008 3800 4444 84c4 0000     .........8DD....
    85e8:	0800 0808 0808 0007 0404 fc04 0404 0004     ................
    85f8:	0000 0f00 0000 0000 fc00 0000 0000 00fc     ................
    8608:	0700 080c 0c08 0007 1c00 80f0 8000 1cf0     ................
    8618:	0000 0f01 0708 0000 c07c c000 00e0 7cc0     ........|......|
    8628:	0f00 030c 0e01 000f 0c04 e030 30e0 040c     ..........0..0..
    8638:	0c08 0107 0701 080c 1804 8060 1860 0004     ..........`.`...
    8648:	0000 0f00 0000 0000 0400 0404 34c4 041c     .............4..
    8658:	0800 0b0e 0808 0008 0000 fe00 0202 0000     ................
    8668:	0000 7f00 4040 0000 0400 e038 0080 0000     ....@@....8.....
    8678:	0000 0000 1c03 0030 0000 0202 00fe 0000     ......0.........
    8688:	0000 4040 007f 0000 6000 0418 6018 0000     ..@@.....`...`..
	...
    86a8:	4040 4040 4040 4040 0400 080c 0000 0000     @@@@@@@@........
	...
    86c0:	0000 2040 2020 00c0 0600 0909 0509 000f     ..@   ..........
    86d0:	fc00 2040 6020 00c0 0f00 0808 0408 0003     ..@  `..........
    86e0:	8000 2040 2020 0020 0700 0804 0808 0008     ..@    .........
    86f0:	8000 2040 2020 00fc 0700 080c 0408 000f     ..@   ..........
    8700:	c000 2060 6020 00c0 0700 090d 0909 0009     ..`  `..........
    8710:	4000 f840 4444 0004 0000 0f00 0000 0000     .@@.DD..........
    8720:	c000 2020 2020 20e0 3f00 4a4a 4a4a 3049     ..    . .?JJJJI0
    8730:	fc00 2040 2020 00c0 0f00 0000 0000 000f     ..@   ..........
    8740:	2000 ec2c 0000 0000 0800 0f08 0808 0008     . ,.............
    8750:	2000 2020 ec2c 0000 2000 4040 3f60 0000     .   ,.... @@`?..
    8760:	fc00 8000 6040 0020 0f00 0201 0c06 0008     ....@` .........
    8770:	0400 fc04 0000 0000 0800 0f08 0808 0008     ................
    8780:	60e0 e020 2060 00e0 000f 0f00 0000 000f     .` .` ..........
    8790:	e000 2040 2020 00c0 0f00 0000 0000 000f     ..@   ..........
    87a0:	8000 2040 2020 c060 0700 080c 0808 0304     ..@   `.........
    87b0:	e000 2040 6020 00c0 7f00 0808 0408 0003     ..@  `..........
    87c0:	8000 2040 2020 00e0 0700 080c 0408 007f     ..@   ..........
    87d0:	e000 2040 2020 00c0 0f00 0000 0000 0000     ..@   ..........
    87e0:	c000 2020 2020 0000 0800 0909 0609 0000     ..    ..........
    87f0:	2020 20f8 2020 0020 0000 0c07 0808 0008       .    .........
    8800:	e000 0000 0000 00e0 0700 0808 0408 000f     ................
    8810:	6000 00c0 0000 60c0 0000 0e01 0608 0001     .`.....`........
    8820:	00e0 8000 0000 00e0 080f 0007 0807 0007     ................
    8830:	2000 c060 c000 2060 0800 060c 0601 080c     . `...` ........
    8840:	6000 00c0 0000 60c0 4040 3641 0618 0001     .`.....`@@A6....
    8850:	2000 2020 60a0 0020 0800 0b0c 0809 0008     .   .` .........
    8860:	8000 7c80 0202 0000 0000 3f00 4040 0000     ...|.......?@@..
    8870:	0000 0000 00ff 0000 0000 0000 007f 0000     ................
    8880:	0000 0202 807c 0080 0000 4040 003f 0000     ....|.....@@?...
    8890:	4080 8040 0000 00c0 0001 0000 0101 0000     .@@.............

000088a0 <__FONTS_SMALL_>:
	...
    88a8:	2f00 0000 0000 0007 0007 1400 147f 147f     ./..............
    88b8:	2400 7f2a 122a 6200 0864 2313 3600 5549     .$*.*..bd..#.6IU
    88c8:	5022 0000 0305 0000 0000 221c 0041 0000     "P........."A...
    88d8:	2241 001c 1400 3e08 1408 0800 3e08 0808     A".....>.....>..
    88e8:	0000 a000 0060 0800 0808 0808 0000 6060     ....`.........``
    88f8:	0000 2000 0810 0204 3e00 4951 3e45 0000     ... .....>QIE>..
    8908:	7f42 0040 4200 5161 4649 2100 4541 314b     B.@..BaQIF.!AEK1
    8918:	1800 1214 107f 2700 4545 3945 3c00 494a     .......'EEE9.<JI
    8928:	3049 0100 0971 0305 3600 4949 3649 0600     I0..q....6III6..
    8938:	4949 1e29 0000 3636 0000 0000 3656 0000     II)...66....V6..
    8948:	0800 2214 0041 1400 1414 1414 0000 2241     ..."A.........A"
    8958:	0814 0200 5101 0609 3200 5949 3e51 7c00     .....Q...2IYQ>.|
    8968:	1112 7c12 7f00 4949 3649 3e00 4141 2241     ...|..III6.>AAA"
    8978:	7f00 4141 1c22 7f00 4949 4149 7f00 0909     ..AA"...IIIA....
    8988:	0109 3e00 4941 7a49 7f00 0808 7f08 0000     ...>AIIz........
    8998:	7f41 0041 2000 4140 013f 7f00 1408 4122     A.A.. @A?....."A
    89a8:	7f00 4040 4040 7f00 0c02 7f02 7f00 0804     ..@@@@..........
    89b8:	7f10 3e00 4141 3e41 7f00 0909 0609 3e00     ...>AAA>.......>
    89c8:	5141 5e21 7f00 1909 4629 4600 4949 3149     AQ!^....)F.FIII1
    89d8:	0100 7f01 0101 3f00 4040 3f40 1f00 4020     .......?@@@?.. @
    89e8:	1f20 3f00 3840 3f40 6300 0814 6314 0700      ..?@8@?.c...c..
    89f8:	7008 0708 6100 4951 4345 0000 417f 0041     .p...aQIEC...AA.
    8a08:	5500 552a 552a 0000 4141 007f 0400 0102     .U*U*U..AA......
    8a18:	0402 4000 4040 4040 0000 0201 0004 2000     ...@@@@@....... 
    8a28:	5454 7854 7f00 4448 3844 3800 4444 2044     TTTx..HDD8.8DDD 
    8a38:	3800 4444 7f48 3800 5454 1854 0800 097e     .8DDH..8TTT...~.
    8a48:	0201 1800 a4a4 7ca4 7f00 0408 7804 0000     .......|.....x..
    8a58:	7d44 0040 4000 8480 007d 7f00 2810 0044     D}@..@..}....(D.
    8a68:	0000 7f41 0040 7c00 1804 7804 7c00 0408     ..A.@..|...x.|..
    8a78:	7804 3800 4444 3844 fc00 2424 1824 1800     .x.8DDD8..$$$...
    8a88:	2424 fc18 7c00 0408 0804 4800 5454 2054     $$...|.....HTTT 
    8a98:	0400 443f 2040 3c00 4040 7c20 1c00 4020     ..?D@ .<@@ |.. @
    8aa8:	1c20 3c00 3040 3c40 4400 1028 4428 1c00      ..<@0@<.D(.(D..
    8ab8:	a0a0 7ca0 4400 5464 444c 1414 1414 1414     ...|.DdTLD......
    8ac8:	0000 bf80                                   ....

00008acc <regs>:
    8acc:	03ef 8003 cf02 0003 30c1 04ed 0364 8112     .........0..d...
    8adc:	03e8 0085 cb78 3905 002c 0234 01f7 ea20     ....x..9,.4... .
    8aec:	0002 c000 2301 01c1 c510 3e02 c728 8601     .....#.....>(...
    8afc:	0136 3748 0001 013a b155 0002 b618 0803     6.H7..:.U.......
    8b0c:	2782 01f2 2600 0101 0fe0 310f 0c2b 080e     .'...&.....1+...
    8b1c:	f14e 0737 0310 090e e100 000f 140e 1103     N.7.............
    8b2c:	3107 48c1 0f08 310c 0f36 8011 8029 0000     .1.H...16...)...

00008b3c <ExCvt>:
    8b3c:	9a80 4145 418e 808f 4545 4945 4949 8f8e     ..EA.A..EEEIII..
    8b4c:	9290 4f92 4f99 5555 9959 9b9a 9d9c 9f9e     ...O.OUUY.......
    8b5c:	4941 554f a5a5 a7a6 a9a8 abaa adac afae     AIOU............
    8b6c:	b1b0 b3b2 b5b4 b7b6 b9b8 bbba bdbc bfbe     ................
    8b7c:	c1c0 c3c2 c5c4 c7c6 c9c8 cbca cdcc cfce     ................
    8b8c:	d1d0 d3d2 d5d4 d7d6 d9d8 dbda dddc dfde     ................
    8b9c:	e1e0 e3e2 e5e4 e7e6 e9e8 ebea edec efee     ................
    8bac:	f1f0 f3f2 f5f4 f7f6 f9f8 fbfa fdfc fffe     ................
    8bbc:	4146 3354 2032 2020 0000 0000 2b2a 3a2c     FAT32   ....*+,:
    8bcc:	3c3b 3e3d 5d5b 227c 7f3f 0000 d3cc ffff     ;<=>[]|"?.......
    8bdc:	d2f2 ffff d3c6 ffff d2fa ffff d3c6 ffff     ................
    8bec:	d2c0 ffff d3c6 ffff d2fa ffff d2f2 ffff     ................
    8bfc:	d2f2 ffff d2c0 ffff d2fa ffff d300 ffff     ................
    8c0c:	d300 ffff d300 ffff d2c0 ffff d2b2 ffff     ................
    8c1c:	d2b2 ffff d386 ffff d462 ffff d386 ffff     ........b.......
    8c2c:	d280 ffff d386 ffff d462 ffff d2b2 ffff     ........b.......
    8c3c:	d2b2 ffff d280 ffff d462 ffff d2c0 ffff     ........b.......
    8c4c:	d2c0 ffff d2c0 ffff d280 ffff d732 ffff     ............2...
    8c5c:	d684 ffff d684 ffff d682 ffff d688 ffff     ................
    8c6c:	d688 ffff d658 ffff d682 ffff d688 ffff     ....X...........
    8c7c:	d658 ffff d688 ffff d682 ffff d720 ffff     X........... ...
    8c8c:	d720 ffff d720 ffff d658 ffff                ... ...X...

00008c98 <__clz_tab>:
    8c98:	0100 0202 0303 0303 0404 0404 0404 0404     ................
    8ca8:	0505 0505 0505 0505 0505 0505 0505 0505     ................
    8cb8:	0606 0606 0606 0606 0606 0606 0606 0606     ................
    8cc8:	0606 0606 0606 0606 0606 0606 0606 0606     ................
    8cd8:	0707 0707 0707 0707 0707 0707 0707 0707     ................
    8ce8:	0707 0707 0707 0707 0707 0707 0707 0707     ................
    8cf8:	0707 0707 0707 0707 0707 0707 0707 0707     ................
    8d08:	0707 0707 0707 0707 0707 0707 0707 0707     ................
    8d18:	0808 0808 0808 0808 0808 0808 0808 0808     ................
    8d28:	0808 0808 0808 0808 0808 0808 0808 0808     ................
    8d38:	0808 0808 0808 0808 0808 0808 0808 0808     ................
    8d48:	0808 0808 0808 0808 0808 0808 0808 0808     ................
    8d58:	0808 0808 0808 0808 0808 0808 0808 0808     ................
    8d68:	0808 0808 0808 0808 0808 0808 0808 0808     ................
    8d78:	0808 0808 0808 0808 0808 0808 0808 0808     ................
    8d88:	0808 0808 0808 0808 0808 0808 0808 0808     ................
    8d98:	2d23 2b30 0020 0000 6c68 004c 6665 4567     #-0+ ...hlL.efgE
    8da8:	4746 0000 3130 3332 3534 3736 3938 4241     FG..0123456789AB
    8db8:	4443 4645 0000 0000 3130 3332 3534 3736     CDEF....01234567
    8dc8:	3938 6261 6463 6665 0000 0000               89abcdef....
